(dp0
F1.0
F0.0
sF2.0
F0.04283389017390559
sF3.0
F0.10019006040649708
sF4.0
F0.16228125046529876
sF5.0
F0.3356055422209872
sF6.0
F0.603849073343173
sF7.0
F1.0128871374623551
sF8.0
F1.5428115858585763
sF9.0
F2.17428776227228
sF10.0
F2.922361991953662
sF11.0
F3.7588860226910272
sF12.0
F4.677398065479937
sF13.0
F5.68684325705343
sF14.0
F6.739487071123497
sF15.0
F7.8747856907451865
sF16.0
F9.034684796056027
sF17.0
F10.257191967246602
sF18.0
F11.511326685430232
sF19.0
F12.80511565520068
sF20.0
F14.13587631954191
sF21.0
F15.498502505123962
sF22.0
F16.882065225392658
sF23.0
F18.318776243370156
sF24.0
F19.750969309428537
sF25.0
F21.246809654636014
sF26.0
F22.730461344467503
sF27.0
F24.26799939422933
sF28.0
F25.808784227456197
sF29.0
F27.384753044771514
sF30.0
F28.97405103140544
sF31.0
F30.594395639993085
sF32.0
F32.21576193479505
sF33.0
F33.88647587678211
sF34.0
F35.54004726347491
sF35.0
F37.25577846308315
sF36.0
F38.946112149975576
sF37.0
F40.69019376716173
sF38.0
F42.42657660710008
sF39.0
F44.198346204889674
sF40.0
F45.97464662680916
sF41.0
F47.78241157665939
sF42.0
F49.583079035406335
sF43.0
F51.43440240828707
sF44.0
F53.26055780400839
sF45.0
F55.14894452805373
sF46.0
F57.005097763251285
sF47.0
F58.91546159088103
sF48.0
F60.80927385532295
sF49.0
F62.74090930112473
sF50.0
F64.66886134676628
sF51.0
F66.6284877389485
sF52.0
F68.57505765943111
sF53.0
F70.5707074567658
sF54.0
F72.53712031287002
sF55.0
F74.56530601795669
sF56.0
F76.55663574930914
sF57.0
F78.60038185245645
sF58.0
F80.62387133173752
sF59.0
F82.68502288753018
sF60.0
F84.73819399261241
sF61.0
F86.82313695395237
sF62.0
F88.89043759296591
sF63.0
F91.0073657663801
sF64.0
F93.09071333524376
sF65.0
F95.23634036815737
sF66.0
F97.34301051354939
sF67.0
F99.50117780825042
sF68.0
F101.63614735519242
sF69.0
F103.80966964264721
sF70.0
F105.97139077893593
sF71.0
F108.16606160970916
sF72.0
F110.3387038776582
sF73.0
F112.56095613091989
sF74.0
F114.74778234895075
sF75.0
F116.99609805452516
sF76.0
F119.20168147550926
sF77.0
F121.45978712546034
sF78.0
F123.69113800114363
sF79.0
F125.96216929145422
sF80.0
F128.21800611946668
sF81.0
F130.50709115717703
sF82.0
F132.77171541387446
sF83.0
F135.08509431719563
sF84.0
F137.3616579867879
sF85.0
F139.70112512541832
sF86.0
F141.9942958198754
sF87.0
F144.34111960992283
sF88.0
F146.65767422652382
sF89.0
F149.01660639345414
sF90.0
F151.3579176727342
sF91.0
F153.73287262077486
sF92.0
F156.07959502746255
sF93.0
F158.4770619914538
sF94.0
F160.83543437232842
sF95.0
F163.25633984439114
sF96.0
F165.62903973420185
sF97.0
F168.05392809911712
sF98.0
F170.44694880719882
sF99.0
F172.88300487403603
sF100.0
F175.29801145450335
sF101.0
F177.74541440773274
sF102.0
F180.16544969123595
sF103.0
F182.63418592813147
sF104.0
F185.06318239012916
sF105.0
F187.55367659319967
sF106.0
F189.99446364443114
sF107.0
F192.4869527633767
sF108.0
F194.9487714262106
sF109.0
F197.4493167481102
sF110.0
F199.93130100068686
sF111.0
F202.44476114315378
sF112.0
F204.93030816331947
sF113.0
F207.46216697973313
sF114.0
F209.9560507956522
sF115.0
F212.50712376068495
sF116.0
F215.01359456177818
sF117.0
F217.56682423763738
sF118.0
F220.09055958716084
sF119.0
F222.65122964407766
sF120.0
F225.19492674729628
sF121.0
F227.76709159752656
sF122.0
F230.31232457536154
sF123.0
F232.90401961857472
sF124.0
F235.4564939187199
sF125.0
F238.06695769336943
sF126.0
F240.63143772741208
sF127.0
F243.24341290810617
sF128.0
F245.82391165965694
sF129.0
F248.44207979407545
sF130.0
F251.0417610084374
sF131.0
F253.66921635024238
sF132.0
F256.2710467664678
sF133.0
F258.91329262619706
sF134.0
F261.5206929335326
sF135.0
F264.1822121990979
sF136.0
F266.7975743014669
sF137.0
F269.46092234039156
sF138.0
F272.09064174890835
sF139.0
F274.75869840534006
sF140.0
F277.4070186633556
sF141.0
F280.0859779672362
sF142.0
F282.73370562051895
sF143.0
F285.4276831107932
sF144.0
F288.07988251498904
sF145.0
F290.79088892614914
sF146.0
F293.4525943397582
sF147.0
F296.16282669863284
sF148.0
F298.83863453165617
sF149.0
F301.55233204460444
sF150.0
F304.24624091041
sF151.0
F306.96912861106193
sF152.0
F309.6613298368909
sF153.0
F312.39742738827346
sF154.0
F315.0931065162914
sF155.0
F317.8460921633357
sF156.0
F320.5507356390305
sF157.0
F323.30116269483926
sF158.0
F326.01722573704393
sF159.0
F328.770440651019
sF160.0
F331.5038940754432
sF161.0
F334.2663491844861
sF162.0
F336.9964809346177
sF163.0
F339.77079494009723
sF164.0
F342.5034063532276
sF165.0
F345.294812596437
sF166.0
F348.037957861884
sF167.0
F350.8243559738545
sF168.0
F353.57760197814315
sF169.0
F356.3689326727761
sF170.0
F359.14029198989687
sF171.0
F361.9383576538065
sF172.0
F364.7049251589419
sF173.0
F367.5147780108279
sF174.0
F370.28620651286326
sF175.0
F373.11136931343975
sF176.0
F375.89046792730636
sF177.0
F378.7121288650125
sF178.0
F381.50248348361833
sF179.0
F384.32807916011706
sF180.0
F387.13684673830915
sF181.0
F389.96922189665304
sF182.0
F392.77373109679905
sF183.0
F395.6183626059238
sF184.0
F398.4264248670046
sF185.0
F401.28699074661785
sF186.0
F404.10164582438404
sF187.0
F406.95765557256647
sF188.0
F409.783836986678
sF189.0
F412.6454804929956
sF190.0
F415.4866737458311
sF191.0
F418.35488088175185
sF192.0
F421.1935572604952
sF193.0
F424.0716388853646
sF194.0
F426.9153979902268
sF195.0
F429.81005942400714
sF196.0
F432.65964840847903
sF197.0
F435.5506781616558
sF198.0
F438.41216716482404
sF199.0
F441.30703616829106
sF200.0
F444.183901219552
sF201.0
F447.08510895522187
sF202.0
F449.95842290170395
sF203.0
F452.87026805158894
sF204.0
F455.7458365621452
sF205.0
F458.6726018119979
sF206.0
F461.5554295692483
sF207.0
F464.4772327808076
sF208.0
F467.36994640065075
sF209.0
F470.29641789688384
sF210.0
F473.20403261422007
sF211.0
F476.1350096394058
sF212.0
F479.0375833723208
sF213.0
F481.9792727643245
sF214.0
F484.88504618756224
sF215.0
F487.84315787202183
sF216.0
F490.7530582044613
sF217.0
F493.7061592895441
sF218.0
F496.6265182807087
sF219.0
F499.5832237257998
sF220.0
F502.5191786466841
sF221.0
F505.47991332853525
sF222.0
F508.4107173735036
sF223.0
F511.38314076545635
sF224.0
F514.3171474656158
sF225.0
F517.303514631057
sF226.0
F520.2432188330133
sF227.0
F523.2245248293975
sF228.0
F526.174327429357
sF229.0
F529.1565307643554
sF230.0
F532.1207845226742
sF231.0
F535.109412873494
sF232.0
F538.0694861320508
sF233.0
F541.0671172414537
sF234.0
F544.0283448241591
sF235.0
F547.0418569395847
sF236.0
F550.0079475858926
sF237.0
F553.0159649107817
sF238.0
F555.9931270309363
sF239.0
F559.0023583008093
sF240.0
F561.993479952719
sF241.0
F565.0079549431246
sF242.0
F567.9943189554657
sF243.0
F571.0171596707621
sF244.0
F574.004502699847
sF245.0
F577.0406299954255
sF246.0
F580.032902737316
sF247.0
F583.0657998909409
sF248.0
F586.0649243635137
sF249.0
F589.0986361031028
sF250.0
F592.112518154435
sF251.0
F595.1509419384439
sF252.0
F598.1590489584389
sF253.0
F601.2036751323229
sF254.0
F604.2141056854592
sF255.0
F607.273436983189
sF256.0
F610.2885717025147
sF257.0
F613.3409152658412
sF258.0
F616.3625031083349
sF259.0
F619.4181897676929
sF260.0
F622.4533430559798
sF261.0
F625.5124256114688
sF262.0
F628.5419104248157
sF263.0
F631.6081101229287
sF264.0
F634.6383296545146
sF265.0
F637.717900219157
sF266.0
F640.7538398313175
sF267.0
F643.827322713585
sF268.0
F646.8703553039451
sF269.0
F649.9447052982624
sF270.0
F653.0019594140555
sF271.0
F656.0817836582365
sF272.0
F659.1318325093584
sF273.0
F662.2181563763069
sF274.0
F665.2691036214
sF275.0
F668.3700999817489
sF276.0
F671.4257304952351
sF277.0
F674.5210381471251
sF278.0
F677.5826282094154
sF279.0
F680.6786107027531
sF280.0
F683.7554058748125
sF281.0
F686.8563933240681
sF282.0
F689.9262815891701
sF283.0
F693.0338364139617
sF284.0
F696.1059804680815
sF285.0
F699.2267188936615
sF286.0
F702.3027783059731
sF287.0
F705.4182409249822
sF288.0
F708.5014773739588
sF289.0
F711.6163592564418
sF290.0
F714.7137878254329
sF291.0
F717.8332969495752
sF292.0
F720.9240156039018
sF293.0
F724.0505845701199
sF294.0
F727.1400457685912
sF295.0
F730.2834077055443
sF296.0
F733.3770217086033
sF297.0
F736.5127091089437
sF298.0
F739.614335982498
sF299.0
F742.7515627451132
sF300.0
F745.8665454679882
sF301.0
F749.0071871285058
sF302.0
F752.1150291860846
sF303.0
F755.2636554991047
sF304.0
F758.3734650428014
sF305.0
F761.5345627585891
sF306.0
F764.6477738358764
sF307.0
F767.8043006316936
sF308.0
F770.9240482530435
sF309.0
F774.081071631389
sF310.0
F777.2149977650482
sF311.0
F780.3746375552303
sF312.0
F783.5035070697966
sF313.0
F786.6689289475779
sF314.0
F789.7981740611528
sF315.0
F792.9790420021151
sF316.0
F796.1100214364532
sF317.0
F799.2842734221219
sF318.0
F802.4226433280519
sF319.0
F805.5968600245344
sF320.0
F808.7457979165931
sF321.0
F811.9247020029176
sF322.0
F815.0682194646917
sF323.0
F818.2520028605265
sF324.0
F821.3957059624845
sF325.0
F824.5891073830784
sF326.0
F827.7382228421138
sF327.0
F830.9262212095465
sF328.0
F834.0792589143608
sF329.0
F837.2658896561477
sF330.0
F840.4331739098847
sF331.0
F843.6235266147298
sF332.0
F846.7844467999546
sF333.0
F849.9811343227669
sF334.0
F853.1415421906578
sF335.0
F856.3511497669266
sF336.0
F859.5147570841322
sF337.0
F862.716274844478
sF338.0
F865.8860615786716
sF339.0
F869.0895341458997
sF340.0
F872.2686167081821
sF341.0
F875.4745601495127
sF342.0
F878.6499687848408
sF343.0
F881.860627046966
sF344.0
F885.0359242800234
sF345.0
F888.2586147181538
sF346.0
F891.4376904207287
sF347.0
F894.6554444191213
sF348.0
F897.838796039635
sF349.0
F901.055935133826
sF350.0
F904.2523537367603
sF351.0
F907.4743490421115
sF352.0
F910.6640204043575
sF353.0
F913.8890063304523
sF354.0
F917.0798263949747
sF355.0
F920.3182581612032
sF356.0
F923.5112286093498
sF357.0
F926.7432009833595
sF358.0
F929.9415352039025
sF359.0
F933.1735641483834
sF360.0
F936.3844565666576
sF361.0
F939.6195771041574
sF362.0
F942.8250134261674
sF363.0
F946.0660454259757
sF364.0
F949.2701812026806
sF365.0
F952.52479270167
sF366.0
F955.7338031347209
sF367.0
F958.9814728968125
sF368.0
F962.1929236975808
sF369.0
F965.4428763627511
sF370.0
F968.6689554831202
sF371.0
F971.9201584500306
sF372.0
F975.1406615836133
sF373.0
F978.3954960697438
sF374.0
F981.616756027736
sF375.0
F984.8855687479522
sF376.0
F988.1099260030551
sF377.0
F991.370697669309
sF378.0
F994.5994690635717
sF379.0
F997.8617582599685
sF380.0
F1001.1021827967426
sF381.0
F1004.3662303633116
sF382.0
F1007.5998334987551
sF383.0
F1010.8699880820633
sF384.0
F1014.1039431697368
sF385.0
F1017.3848456881765
sF386.0
F1020.6227076530413
sF387.0
F1023.8969386694296
sF388.0
F1027.136651905477
sF389.0
F1030.412471989987
sF390.0
F1033.6658486535837
sF391.0
F1036.9436827307702
sF392.0
F1040.1894472901577
sF393.0
F1043.4720686817016
sF394.0
F1046.718718629568
sF395.0
F1050.0141561140365
sF396.0
F1053.2630106373654
sF397.0
F1056.5498956361885
sF398.0
F1059.80301548632
sF399.0
F1063.0923774886655
sF400.0
F1066.3583672980071
sF401.0
F1069.6464222703582
sF402.0
F1072.9054459213053
sF403.0
F1076.1983429620316
sF404.0
F1079.4572802641208
sF405.0
F1082.762723004678
sF406.0
F1086.0228482580474
sF407.0
F1089.3215665645625
sF408.0
F1092.5846737108566
sF409.0
F1095.883559193503
sF410.0
F1099.1592715443292
sF411.0
F1102.4606668937638
sF412.0
F1105.7277480512623
sF413.0
F1109.0331709585578
sF414.0
F1112.3017473084112
sF415.0
F1115.6185398752152
sF416.0
F1118.88903063096
sF417.0
F1122.1973700040821
sF418.0
F1125.4721891815377
sF419.0
F1128.7808729394947
sF420.0
F1132.0681577995151
sF421.0
F1135.3771490474776
sF422.0
F1138.6573279536979
sF423.0
F1141.971359074226
sF424.0
F1145.2518536676444
sF425.0
F1148.5764226681301
sF426.0
F1151.8581182455118
sF427.0
F1155.1768089560908
sF428.0
F1158.4634900037227
sF429.0
F1161.7810894044846
sF430.0
F1165.0775491437082
sF431.0
F1168.3978319190767
sF432.0
F1171.6883669808133
sF433.0
F1175.0123480655518
sF434.0
F1178.3033988765
sF435.0
F1181.637852354633
sF436.0
F1184.9298212611668
sF437.0
F1188.2586534269626
sF438.0
F1191.5558345632815
sF439.0
F1194.8844098815803
sF440.0
F1198.190967178535
sF441.0
F1201.522228809482
sF442.0
F1204.8214045408645
sF443.0
F1208.157236176738
sF444.0
F1211.456402769132
sF445.0
F1214.801780465567
sF446.0
F1218.104236602465
sF447.0
F1221.4417399909253
sF448.0
F1224.7506754760939
sF449.0
F1228.087463862758
sF450.0
F1231.4069426450608
sF451.0
F1234.7455813754038
sF452.0
F1238.0581938664611
sF453.0
F1241.4024315479637
sF454.0
F1244.7147479729988
sF455.0
F1248.0678942220818
sF456.0
F1251.3833087114556
sF457.0
F1254.7313936747403
sF458.0
F1258.0517572755577
sF459.0
F1261.3982801855404
sF460.0
F1264.7275331674746
sF461.0
F1268.0777246964524
sF462.0
F1271.4026778687264
sF463.0
F1274.7560890084062
sF464.0
F1278.0781482806042
sF465.0
F1281.4439101149399
sF466.0
F1284.768714370803
sF467.0
F1288.1277803995883
sF468.0
F1291.4564118966628
sF469.0
F1294.8134797492037
sF470.0
F1298.1545367669905
sF471.0
F1301.5128141752443
sF472.0
F1304.8475235789047
sF473.0
F1308.2110284926764
sF474.0
F1311.5439741972314
sF475.0
F1314.9177058882894
sF476.0
F1318.2544249358514
sF477.0
F1321.6221232228083
sF478.0
F1324.9630899500808
sF479.0
F1328.328468279755
sF480.0
F1331.6796749128114
sF481.0
F1335.0499838285452
sF482.0
F1338.3927837038468
sF483.0
F1341.7661189572564
sF484.0
F1345.1083577748657
sF485.0
F1348.4932196561942
sF486.0
F1351.839455298546
sF487.0
F1355.2166214940544
sF488.0
F1358.5661040026887
sF489.0
F1361.9435265056907
sF490.0
F1365.3059765894488
sF491.0
F1368.683891901721
sF492.0
F1372.039676760592
sF493.0
F1375.422027581611
sF494.0
F1378.7768737075648
sF495.0
F1382.1694949992573
sF496.0
F1385.5272929336913
sF497.0
F1388.9130523088015
sF498.0
F1392.273087793004
sF499.0
F1395.658658047566
sF500.0
F1399.0320338065567
sF501.0
F1402.4209473657268
sF502.0
F1405.7857735771186
sF503.0
F1409.1782452729967
sF504.0
F1412.5423306769849
sF505.0
F1415.9478058285924
sF506.0
F1419.3159088907687
sF507.0
F1422.712708543058
sF508.0
F1426.0830313042304
sF509.0
F1429.480788635212
sF510.0
F1432.8625583542878
sF511.0
F1436.2647451551525
sF512.0
F1439.6367945809395
sF513.0
F1443.0426148777326
sF514.0
F1446.4146054615862
sF515.0
F1449.830779130465
sF516.0
F1453.2069317058983
sF517.0
F1456.61463748592
sF518.0
F1459.9920039801395
sF519.0
F1463.3994548570283
sF520.0
F1466.7900045973051
sF521.0
F1470.2011669136973
sF522.0
F1473.581369182071
sF523.0
F1476.993570727457
sF524.0
F1480.3754144574907
sF525.0
F1483.8001192443448
sF526.0
F1487.1856517964238
sF527.0
F1490.6008728320996
sF528.0
F1493.989211817777
sF529.0
F1497.403826112088
sF530.0
F1500.8054829249966
sF531.0
F1504.2236174155446
sF532.0
F1507.6134584112567
sF533.0
F1511.0345334051422
sF534.0
F1514.4253574702686
sF535.0
F1517.860695454224
sF536.0
F1521.2547766648374
sF537.0
F1524.6782279620932
sF538.0
F1528.0752124663743
sF539.0
F1531.4986991121955
sF540.0
F1534.9096750988024
sF541.0
F1538.336552770876
sF542.0
F1541.7362142221912
sF543.0
F1545.1648747768668
sF544.0
F1548.5667584972568
sF545.0
F1552.0083495793494
sF546.0
F1555.4114128965653
sF547.0
F1558.8437806230836
sF548.0
F1562.2479969960216
sF549.0
F1565.6834299740942
sF550.0
F1569.099594855051
sF551.0
F1572.5376319376562
sF552.0
F1575.9440357722128
sF553.0
F1579.383716110982
sF554.0
F1582.7926029593164
sF555.0
F1586.2453579696112
sF556.0
F1589.6558350041385
sF557.0
F1593.0981134882318
sF558.0
F1596.5103570655888
sF559.0
F1599.9540497487164
sF560.0
F1603.3791104560235
sF561.0
F1606.8250742007513
sF562.0
F1610.2399693891894
sF563.0
F1613.6875415884558
sF564.0
F1617.1041598057895
sF565.0
F1620.5639272278509
sF566.0
F1623.983294461627
sF567.0
F1627.43151597425
sF568.0
F1630.8526639798863
sF569.0
F1634.303508048512
sF570.0
F1637.737551743161
sF571.0
F1641.1902181294647
sF572.0
F1644.6133704734018
sF573.0
F1648.068989317718
sF574.0
F1651.4935061478204
sF575.0
F1654.9622001152222
sF576.0
F1658.3895127049025
sF577.0
F1661.8491645737186
sF578.0
F1665.276763520804
sF579.0
F1668.7363091080506
sF580.0
F1672.1799505438596
sF581.0
F1675.6410284771173
sF582.0
F1679.073597630843
sF583.0
F1682.5363246717745
sF584.0
F1685.9701359170433
sF585.0
F1689.4482783460471
sF586.0
F1692.8834261199265
sF587.0
F1696.3483385020388
sF588.0
F1699.7863629137755
sF589.0
F1703.2535559767161
sF590.0
F1706.702989164582
sF591.0
F1710.1712005621696
sF592.0
F1713.6110078619558
sF593.0
F1717.083382121719
sF594.0
F1720.5191427689044
sF595.0
F1724.006412345609
sF596.0
F1727.4468352551692
sF597.0
F1730.92110316424
sF598.0
F1734.362751949395
sF599.0
F1737.8379909689554
sF600.0
F1741.2929303286055
sF601.0
F1744.7718319689895
sF602.0
F1748.21613445682
sF603.0
F1751.694440623214
sF604.0
F1755.140372311893
sF605.0
F1758.633838398885
sF606.0
F1762.0802821129969
sF607.0
F1765.5621783297952
sF608.0
F1769.0101149865664
sF609.0
F1772.493843478893
sF610.0
F1775.9549638616659
sF611.0
F1779.4386221234456
sF612.0
F1782.8879515079514
sF613.0
F1786.3750541065583
sF614.0
F1789.8232565405783
sF615.0
F1793.3226922157944
sF616.0
F1796.7745282040028
sF617.0
F1800.2643048529694
sF618.0
F1803.7150938308223
sF619.0
F1807.2052146555102
sF620.0
F1810.6722882397635
sF621.0
F1814.1651045360688
sF622.0
F1817.619785259618
sF623.0
F1821.1135896134451
sF624.0
F1824.5693795653667
sF625.0
F1828.0790203572128
sF626.0
F1831.53423844964
sF627.0
F1835.0317014788097
sF628.0
F1838.4912334905546
sF629.0
F1841.989079364147
sF630.0
F1845.4623246647193
sF631.0
F1848.9589745325886
sF632.0
F1852.4242915931277
sF633.0
F1855.9228878904298
sF634.0
F1859.3869504100182
sF635.0
F1862.8999885608373
sF636.0
F1866.3663930041755
sF637.0
F1869.8704723396222
sF638.0
F1873.3378359740016
sF639.0
F1876.842079139732
sF640.0
F1880.3245246007505
sF641.0
F1883.8306586463516
sF642.0
F1887.3016550344169
sF643.0
F1890.8108341438656
sF644.0
F1894.2828301553125
sF645.0
F1897.8050924120648
sF646.0
F1901.2807026233033
sF647.0
F1904.7915320666402
sF648.0
F1908.269935108855
sF649.0
F1911.7834966719288
sF650.0
F1915.2736504922989
sF651.0
F1918.7890116246604
sF652.0
F1922.2721156709024
sF653.0
F1925.7891317946155
sF654.0
F1929.2723336297781
sF655.0
F1932.8042011514715
sF656.0
F1936.2923109816493
sF657.0
F1939.8139779710132
sF658.0
F1943.3020410616457
sF659.0
F1946.8255949423756
sF660.0
F1950.3280801017274
sF661.0
F1953.8562468084867
sF662.0
F1957.3480999315568
sF663.0
F1960.8772858135517
sF664.0
F1964.371845933627
sF665.0
F1967.9157066243995
sF666.0
F1971.4110301470625
sF667.0
F1974.9451360966734
sF668.0
F1978.443489407167
sF669.0
F1981.9785883718523
sF670.0
F1985.4899371530469
sF671.0
F1989.0268140308824
sF672.0
F1992.5313670060084
sF673.0
F1996.0699455596166
sF674.0
F1999.5734667908894
sF675.0
F2003.12576330702
sF676.0
F2006.6340109038424
sF677.0
F2010.1771756016062
sF678.0
F2013.6849859992483
sF679.0
F2017.228478283711
sF680.0
F2020.7530042065964
sF681.0
F2024.2977407163903
sF682.0
F2027.8116408167102
sF683.0
F2031.3590251893786
sF684.0
F2034.8726426665028
sF685.0
F2038.4358960126578
sF686.0
F2041.949928645909
sF687.0
F2045.5016172978894
sF688.0
F2049.0187954851763
sF689.0
F2052.5726163687063
sF690.0
F2056.100831992515
sF691.0
F2059.656411754966
sF692.0
F2063.1763825858893
sF693.0
F2066.7322560168577
sF694.0
F2070.252023141086
sF695.0
F2073.81870297181
sF696.0
F2077.3417792145
sF697.0
F2080.900149691994
sF698.0
F2084.421955895617
sF699.0
F2087.981420410987
sF700.0
F2091.5182843830826
sF701.0
F2095.0795530947853
sF702.0
F2098.6053074092147
sF703.0
F2102.1664649839977
sF704.0
F2105.694896884552
sF705.0
F2109.270038253461
sF706.0
F2112.8000404151817
sF707.0
F2116.3647233936604
sF708.0
F2119.898503655837
sF709.0
F2123.464389305619
sF710.0
F2127.008688264079
sF711.0
F2130.5762622004236
sF712.0
F2134.1105744725796
sF713.0
F2137.6810434430736
sF714.0
F2141.2154614334945
sF715.0
F2144.795922679659
sF716.0
F2148.3332165283127
sF717.0
F2151.904697958073
sF718.0
F2155.443058679031
sF719.0
F2159.014598286377
sF720.0
F2162.563983546595
sF721.0
F2166.139328375022
sF722.0
F2169.6791362171784
sF723.0
F2173.2548704635824
sF724.0
F2176.7961737980722
sF725.0
F2180.382945335038
sF726.0
F2183.925967903818
sF727.0
F2187.5012789567254
sF728.0
F2191.0458238094993
sF729.0
F2194.6229101216086
sF730.0
F2198.1764641808845
sF731.0
F2201.754825099793
sF732.0
F2205.2998291978797
sF733.0
F2208.8785423585246
sF734.0
F2212.4239453036093
sF735.0
F2216.0133170553036
sF736.0
F2219.559695479734
sF737.0
F2223.141076231498
sF738.0
F2226.687609785997
sF739.0
F2230.267029652052
sF740.0
F2233.8241980159087
sF741.0
F2237.4065896619545
sF742.0
F2240.953543225535
sF743.0
F2244.534561393595
sF744.0
F2248.084156134489
sF745.0
F2251.6765550107643
sF746.0
F2255.2256248377917
sF747.0
F2258.808040192876
sF748.0
F2262.358957225738
sF749.0
F2265.9414422666496
sF750.0
F2269.503551437208
sF751.0
F2273.0856579759816
sF752.0
F2276.6385947666085
sF753.0
F2280.2239811000636
sF754.0
F2283.775410847206
sF755.0
F2287.3732899307965
sF756.0
F2290.926603036992
sF757.0
F2294.5139361167776
sF758.0
F2298.068388425974
sF759.0
F2301.654880665564
sF760.0
F2305.2221017270017
sF761.0
F2308.8092941628993
sF762.0
F2312.3668016520837
sF763.0
F2315.9546364572475
sF764.0
F2319.512133891821
sF765.0
F2323.1114755421977
sF766.0
F2326.6696672677776
sF767.0
F2330.257351108462
sF768.0
F2333.8166688419383
sF769.0
F2337.4045461920236
sF770.0
F2340.975574838677
sF771.0
F2344.563181993488
sF772.0
F2348.121996248546
sF773.0
F2351.712157930241
sF774.0
F2355.2701294832755
sF775.0
F2358.871600891307
sF776.0
F2362.4311874553014
sF777.0
F2366.0204442156955
sF778.0
F2369.582102736268
sF779.0
F2373.169241353839
sF780.0
F2376.7414665886045
sF781.0
F2380.329430322641
sF782.0
F2383.8904977463603
sF783.0
F2387.480227219434
sF784.0
F2391.0400925533863
sF785.0
F2394.6400513207236
sF786.0
F2398.202586552532
sF787.0
F2401.7915864193274
sF788.0
F2405.3533989052557
sF789.0
F2408.9424677626603
sF790.0
F2412.5165248084836
sF791.0
F2416.105830429767
sF792.0
F2419.6689598295566
sF793.0
F2423.2589628597048
sF794.0
F2426.824244880987
sF795.0
F2430.4258257343445
sF796.0
F2433.9862283269417
sF797.0
F2437.5801958652096
sF798.0
F2441.143312349232
sF799.0
F2444.734460039338
sF800.0
F2448.3077844095096
sF801.0
F2451.899357740099
sF802.0
F2455.4634999701407
sF803.0
F2459.0553082001943
sF804.0
F2462.6186864509095
sF805.0
F2466.2217358126095
sF806.0
F2469.786540501506
sF807.0
F2473.3783424865965
sF808.0
F2476.943658127254
sF809.0
F2480.534557574262
sF810.0
F2484.1136311876494
sF811.0
F2487.706253467581
sF812.0
F2491.2721567371086
sF813.0
F2494.8670198138125
sF814.0
F2498.433759722246
sF815.0
F2502.038682859581
sF816.0
F2505.606931911384
sF817.0
F2509.201243820035
sF818.0
F2512.7696902780413
sF819.0
F2516.3652421588695
sF820.0
F2519.946149593401
sF821.0
F2523.5416675943407
sF822.0
F2527.11218923654
sF823.0
F2530.708784153776
sF824.0
F2534.2783054725155
sF825.0
F2537.8886534786493
sF826.0
F2541.4597628731676
sF827.0
F2545.0584888175763
sF828.0
F2548.631290720969
sF829.0
F2552.2280923401177
sF830.0
F2555.815999334577
sF831.0
F2559.4118904824886
sF832.0
F2562.9896591639063
sF833.0
F2566.587487174593
sF834.0
F2570.165807628224
sF835.0
F2573.777566098775
sF836.0
F2577.355064711876
sF837.0
F2580.955991540045
sF838.0
F2584.5369683587683
sF839.0
F2588.1373359519757
sF840.0
F2591.730344621594
sF841.0
F2595.3325698492877
sF842.0
F2598.9151630536676
sF843.0
F2602.5198975844673
sF844.0
F2606.1010272682515
sF845.0
F2609.718395950374
sF846.0
F2613.301735592784
sF847.0
F2616.908195689379
sF848.0
F2620.49268412477
sF849.0
F2624.0976285973716
sF850.0
F2627.6981748575577
sF851.0
F2631.3052645540893
sF852.0
F2634.8930484335046
sF853.0
F2638.5015969319093
sF854.0
F2642.087789425454
sF855.0
F2645.7118245008846
sF856.0
F2649.3002790205655
sF857.0
F2652.9099832200673
sF858.0
F2656.50098677694
sF859.0
F2660.111326589178
sF860.0
F2663.7147980715467
sF861.0
F2667.3267815260565
sF862.0
F2670.9185351919846
sF863.0
F2674.531727840789
sF864.0
F2678.123038217149
sF865.0
F2681.7494210714613
sF866.0
F2685.344066181496
sF867.0
F2688.95870719098
sF868.0
F2692.5534022537004
sF869.0
F2696.1686772133976
sF870.0
F2699.7788147794627
sF871.0
F2703.394272903568
sF872.0
F2706.9902388947476
sF873.0
F2710.607072688044
sF874.0
F2714.205712720889
sF875.0
F2717.837522241024
sF876.0
F2721.4360760051677
sF877.0
F2725.052827368148
sF878.0
F2728.6547900555674
sF879.0
F2732.2748570879994
sF880.0
F2735.8880808867825
sF881.0
F2739.506526455208
sF882.0
F2743.1086259030526
sF883.0
F2746.7297481635733
sF884.0
F2750.3306989802422
sF885.0
F2753.964832603572
sF886.0
F2757.568592738632
sF887.0
F2761.189674662029
sF888.0
F2764.794137310534
sF889.0
F2768.4154652872144
sF890.0
F2772.0318419785235
sF891.0
F2775.6563631438567
sF892.0
F2779.2581788798625
sF893.0
F2782.883029184324
sF894.0
F2786.486923649991
sF895.0
F2790.1239629065403
sF896.0
F2793.727178560609
sF897.0
F2797.353703084962
sF898.0
F2800.957621178124
sF899.0
F2804.5835297257427
sF900.0
F2808.199865372191
sF901.0
F2811.8284921257673
sF902.0
F2815.433601430076
sF903.0
F2819.064030825954
sF904.0
F2822.6666915667606
sF905.0
F2826.310162883263
sF906.0
F2829.913757541593
sF907.0
F2833.5452874888842
sF908.0
F2837.1477769497455
sF909.0
F2840.778323358754
sF910.0
F2844.3975529245563
sF911.0
F2848.028709469367
sF912.0
F2851.6316792699376
sF913.0
F2855.2658337390303
sF914.0
F2858.8676124844924
sF915.0
F2862.513865768281
sF916.0
F2866.1172312172826
sF917.0
F2869.749619584645
sF918.0
F2873.3553470374354
sF919.0
F2876.986368090263
sF920.0
F2880.6043116851165
sF921.0
F2884.2363862154516
sF922.0
F2887.8429904691525
sF923.0
F2891.4731224886245
sF924.0
F2895.079592303627
sF925.0
F2898.7247473947564
sF926.0
F2902.3314016860263
sF927.0
F2905.9619737316157
sF928.0
F2909.5674079874093
sF929.0
F2913.1990934332666
sF930.0
F2916.8190351288367
sF931.0
F2920.448455188416
sF932.0
F2924.0531608503998
sF933.0
F2927.6823692354556
sF934.0
F2931.2903743645784
sF935.0
F2934.9323177863866
sF936.0
F2938.5363990011792
sF937.0
F2942.167632078413
sF938.0
F2945.7730484146546
sF939.0
F2949.402973221482
sF940.0
F2953.020776840685
sF941.0
F2956.651289882634
sF942.0
F2960.2571823527674
sF943.0
F2963.886445184936
sF944.0
F2967.492274998027
sF945.0
F2971.134456318254
sF946.0
F2974.7404110914276
sF947.0
F2978.3701168699586
sF948.0
F2981.9737212785944
sF949.0
F2985.6047970546188
sF950.0
F2989.2231116382945
sF951.0
F2992.8523055272817
sF952.0
F2996.455960657263
sF953.0
F3000.0856195295887
sF954.0
F3003.692214253819
sF955.0
F3007.334021426123
sF956.0
F3010.938785153879
sF957.0
F3014.5701797276233
sF958.0
F3018.175401626837
sF959.0
F3021.8053829659048
sF960.0
F3025.423199387441
sF961.0
F3029.055029626938
sF962.0
F3032.661943986814
sF963.0
F3036.289657418208
sF964.0
F3039.8963064045493
sF965.0
F3043.5409784023545
sF966.0
F3047.146856034168
sF967.0
F3050.776923370343
sF968.0
F3054.3832245967496
sF969.0
F3058.015711081762
sF970.0
F3061.636869309282
sF971.0
F3065.266819202779
sF972.0
F3068.874289735472
sF973.0
F3072.504502684475
sF974.0
F3076.113719352869
sF975.0
F3079.7565024500823
sF976.0
F3083.362433698944
sF977.0
F3086.994338557876
sF978.0
F3090.5999318730765
sF979.0
F3094.231975297742
sF980.0
F3097.851801859589
sF981.0
F3101.483182440264
sF982.0
F3105.088095245653
sF983.0
F3108.719872403734
sF984.0
F3112.326745880568
sF985.0
F3115.973055913803
sF986.0
F3119.5791282670707
sF987.0
F3123.211277515726
sF988.0
F3126.815723586343
sF989.0
F3130.45096192376
sF990.0
F3134.07196070495
sF991.0
F3137.700938720129
sF992.0
F3141.3080588193607
sF993.0
F3144.9407276925504
sF994.0
F3148.5479213006047
sF995.0
F3152.1919664454963
sF996.0
F3155.7964544783545
sF997.0
F3159.429790910299
sF998.0
F3163.036193073835
sF999.0
F3166.6676055781386
sF1000.0
F3170.284753511038
sF1001.0
F3173.919647937719
sF1002.0
F3177.524348931322
sF1003.0
F3181.1564056494913
sF1004.0
F3184.7603456308207
sF1005.0
F3188.4069868189963
sF1006.0
F3192.0118283678557
sF1007.0
F3195.6428191771884
sF1008.0
F3199.2474510142224
sF1009.0
F3202.8801013556017
sF1010.0
F3206.4989116049846
sF1011.0
F3210.12962851193
sF1012.0
F3213.732903189985
sF1013.0
F3217.3659586775207
sF1014.0
F3220.9727038977403
sF1015.0
F3224.61445219558
sF1016.0
F3228.218197901056
sF1017.0
F3231.851413642776
sF1018.0
F3235.456314949291
sF1019.0
F3239.0876248991462
sF1020.0
F3242.7030643100798
sF1021.0
F3246.3351007285264
sF1022.0
F3249.94171930802
sF1023.0
F3253.569855926934
sF1024.0
F3257.173809934928
sF1025.0
F3260.817578963244
sF1026.0
F3264.422372891613
sF1027.0
F3268.0514378762805
sF1028.0
F3271.655796020637
sF1029.0
F3275.2857192529464
sF1030.0
F3278.9030873960555
sF1031.0
F3282.5316349215204
sF1032.0
F3286.134295765333
sF1033.0
F3289.7656868934578
sF1034.0
F3293.3682437334373
sF1035.0
F3297.008857894116
sF1036.0
F3300.611033985209
sF1037.0
F3304.2414876496678
sF1038.0
F3307.84392393146
sF1039.0
F3311.4725799996963
sF1040.0
F3315.0849738813686
sF1041.0
F3318.715245506653
sF1042.0
F3322.3179239036517
sF1043.0
F3325.9470420126117
sF1044.0
F3329.547224827514
sF1045.0
F3333.189807157631
sF1046.0
F3336.7921600660234
sF1047.0
F3340.4196937593747
sF1048.0
F3344.021557627928
sF1049.0
F3347.6491679222277
sF1050.0
F3351.2626311006884
sF1051.0
F3354.890974367395
sF1052.0
F3358.489032709317
sF1053.0
F3362.118954756411
sF1054.0
F3365.7168975778163
sF1055.0
F3369.356164591532
sF1056.0
F3372.9567505434284
sF1057.0
F3376.582255173016
sF1058.0
F3380.184051305038
sF1059.0
F3383.8085046747688
sF1060.0
F3387.421149512653
sF1061.0
F3391.049933551753
sF1062.0
F3394.6503069013347
sF1063.0
F3398.2788778178806
sF1064.0
F3401.876524206356
sF1065.0
F3405.519516281424
sF1066.0
F3409.1194359463075
sF1067.0
F3412.7471033415754
sF1068.0
F3416.346426346916
sF1069.0
F3419.9754061954927
sF1070.0
F3423.58818506178
sF1071.0
F3427.2179109253134
sF1072.0
F3430.8156056645907
sF1073.0
F3434.4446638178397
sF1074.0
F3438.0448343077705
sF1075.0
F3441.685050110052
sF1076.0
F3445.2847779710187
sF1077.0
F3448.912983701203
sF1078.0
F3452.513720624949
sF1079.0
F3456.1409467803464
sF1080.0
F3459.752655494988
sF1081.0
F3463.3809909511397
sF1082.0
F3466.9823658700016
sF1083.0
F3470.6077930927936
sF1084.0
F3474.205993780934
sF1085.0
F3477.8471079986234
sF1086.0
F3481.4501445475044
sF1087.0
F3485.076248721544
sF1088.0
F3488.676148734313
sF1089.0
F3492.3044090245253
sF1090.0
F3495.9181812149295
sF1091.0
F3499.5472339587627
sF1092.0
F3503.147078360608
sF1093.0
F3506.7757265276095
sF1094.0
F3510.376771713253
sF1095.0
F3514.017356611633
sF1096.0
F3517.619033044354
sF1097.0
F3521.2476281868276
sF1098.0
F3524.8500657827867
sF1099.0
F3528.475942635861
sF1100.0
F3532.089975850732
sF1101.0
F3535.719920487403
sF1102.0
F3539.3203386949967
sF1103.0
F3542.947107578911
sF1104.0
F3546.546706544523
sF1105.0
F3550.187209715711
sF1106.0
F3553.7904911984197
sF1107.0
F3557.4152583461982
sF1108.0
F3561.014922802
sF1109.0
F3564.6412018616647
sF1110.0
F3568.255679302872
sF1111.0
F3571.8805032696864
sF1112.0
F3575.4783195934433
sF1113.0
F3579.1040625107735
sF1114.0
F3582.7011080514712
sF1115.0
F3586.341712727489
sF1116.0
F3589.937773754491
sF1117.0
F3593.563600279236
sF1118.0
F3597.157993905619
sF1119.0
F3600.782975395966
sF1120.0
F3604.390854667374
sF1121.0
F3608.0168056620096
sF1122.0
F3611.6129506742395
sF1123.0
F3615.2368897965957
sF1124.0
F3618.831395518608
sF1125.0
F3622.4678698262023
sF1126.0
F3626.065280031328
sF1127.0
F3629.687073662132
sF1128.0
F3633.282777920057
sF1129.0
F3636.90435398428
sF1130.0
F3640.514371968109
sF1131.0
F3644.136450859845
sF1132.0
F3647.732152369144
sF1133.0
F3651.3527973182117
sF1134.0
F3654.948735736513
sF1135.0
F3658.582169387064
sF1136.0
F3662.178335142944
sF1137.0
F3665.797375833323
sF1138.0
F3669.392369954118
sF1139.0
F3673.0100473906778
sF1140.0
F3676.618468507573
sF1141.0
F3680.2384642898724
sF1142.0
F3683.831926917207
sF1143.0
F3687.4488144661946
sF1144.0
F3691.0441926599274
sF1145.0
F3694.675076099748
sF1146.0
F3698.269284369803
sF1147.0
F3701.8869784022872
sF1148.0
F3705.4794854364272
sF1149.0
F3709.0940872935216
sF1150.0
F3712.7017731126407
sF1151.0
F3716.3190464748777
sF1152.0
F3719.9112113539336
sF1153.0
F3723.5257630214446
sF1154.0
F3727.117395250206
sF1155.0
F3730.7466417948503
sF1156.0
F3734.339655407032
sF1157.0
F3737.954312877802
sF1158.0
F3741.54439066971
sF1159.0
F3745.159831639854
sF1160.0
F3748.76415511855
sF1161.0
F3752.378998678373
sF1162.0
F3755.969791188442
sF1163.0
F3759.584299409485
sF1164.0
F3763.1741109919603
sF1165.0
F3766.800909650101
sF1166.0
F3770.3930630669465
sF1167.0
F3774.0065903614213
sF1168.0
F3777.5963813824355
sF1169.0
F3781.207223008215
sF1170.0
F3784.8102041647167
sF1171.0
F3788.4250880777017
sF1172.0
F3792.012883595445
sF1173.0
F3795.625099386891
sF1174.0
F3799.213818560106
sF1175.0
F3802.83883433862
sF1176.0
F3806.4277453032446
sF1177.0
F3810.0381743715348
sF1178.0
F3813.625947623452
sF1179.0
F3817.236937063938
sF1180.0
F3820.837476172243
sF1181.0
F3824.4479172777023
sF1182.0
F3828.0344808510295
sF1183.0
F3831.645138194694
sF1184.0
F3835.2305735668506
sF1185.0
F3838.853287175062
sF1186.0
F3842.439237955074
sF1187.0
F3846.05101796796
sF1188.0
F3849.635472949304
sF1189.0
F3853.2436157605484
sF1190.0
F3856.8437108827034
sF1191.0
F3860.453969878562
sF1192.0
F3864.039345038993
sF1193.0
F3867.647669901314
sF1194.0
F3871.2323125476796
sF1195.0
F3874.8570743445307
sF1196.0
F3878.443390703996
sF1197.0
F3882.052377945213
sF1198.0
F3885.636685947121
sF1199.0
F3889.2469912331544
sF1200.0
F3892.8454302424952
sF1201.0
F3896.454638299539
sF1202.0
F3900.041749781405
sF1203.0
F3903.6501132459002
sF1204.0
F3907.2348237207493
sF1205.0
F3910.8563222296375
sF1206.0
F3914.442079018386
sF1207.0
F3918.0529098807224
sF1208.0
F3921.6386561386435
sF1209.0
F3925.24499373098
sF1210.0
F3928.843109088542
sF1211.0
F3932.4537360511895
sF1212.0
F3936.0361994720183
sF1213.0
F3939.644631718767
sF1214.0
F3943.2270658391126
sF1215.0
F3946.8478186564453
sF1216.0
F3950.431390300871
sF1217.0
F3954.0382588418797
sF1218.0
F3957.6210817345
sF1219.0
F3961.2272168956597
sF1220.0
F3964.8229296305285
sF1221.0
F3968.4288651794195
sF1222.0
F3972.0113605606384
sF1223.0
F3975.619446538082
sF1224.0
F3979.19927625298
sF1225.0
F3982.8181941665725
sF1226.0
F3986.40017470765
sF1227.0
F3990.0066189398344
sF1228.0
F3993.587181680929
sF1229.0
F3997.1910211097324
sF1230.0
F4000.782639671198
sF1231.0
F4004.388413686925
sF1232.0
F4007.9661062778514
sF1233.0
F4011.570711892153
sF1234.0
F4015.1462737141164
sF1235.0
F4018.7617152191165
sF1236.0
F4022.339626241955
sF1237.0
F4025.9427614800766
sF1238.0
F4029.5177886789033
sF1239.0
F4033.1198572434255
sF1240.0
F4036.7082926288376
sF1241.0
F4040.310064968392
sF1242.0
F4043.886279350923
sF1243.0
F4047.486134387068
sF1244.0
F4051.0609801149767
sF1245.0
F4054.6718086690244
sF1246.0
F4058.2485620257066
sF1247.0
F4061.848201131169
sF1248.0
F4065.4228322660074
sF1249.0
F4069.019402264869
sF1250.0
F4072.6060724592635
sF1251.0
F4076.2041245311516
sF1252.0
F4079.778761912925
sF1253.0
F4083.372870249065
sF1254.0
F4086.9450423528806
sF1255.0
F4090.5509047013607
sF1256.0
F4094.1248537713914
sF1257.0
F4097.718957676677
sF1258.0
F4101.288076981968
sF1259.0
F4104.879934240397
sF1260.0
F4108.462629221652
sF1261.0
F4112.054129647026
sF1262.0
F4115.624891190116
sF1263.0
F4119.216043617075
sF1264.0
F4122.783595439861
sF1265.0
F4126.386019616461
sF1266.0
F4129.9541373426
sF1267.0
F4133.546357072754
sF1268.0
F4137.113493642827
sF1269.0
F4140.700179700756
sF1270.0
F4144.277968793806
sF1271.0
F4147.867809913877
sF1272.0
F4151.4315576213085
sF1273.0
F4155.018799046169
sF1274.0
F4158.57992432322
sF1275.0
F4162.176460596995
sF1276.0
F4165.740933467578
sF1277.0
F4169.325245351532
sF1278.0
F4172.885581078967
sF1279.0
F4176.4687006993245
sF1280.0
F4180.041794092542
sF1281.0
F4183.621714526209
sF1282.0
F4187.18358630696
sF1283.0
F4190.764034586794
sF1284.0
F4194.324172402867
sF1285.0
F4197.912540012721
sF1286.0
F4201.473827753019
sF1287.0
F4205.052441190904
sF1288.0
F4208.610136473581
sF1289.0
F4212.1845653491655
sF1290.0
F4215.755308263938
sF1291.0
F4219.329625893232
sF1292.0
F4222.888398669039
sF1293.0
F4226.461687284188
sF1294.0
F4230.015796892354
sF1295.0
F4233.601826183791
sF1296.0
F4237.157577744639
sF1297.0
F4240.7300188947565
sF1298.0
F4244.285713595051
sF1299.0
F4247.856880836894
sF1300.0
F4251.423513136261
sF1301.0
F4254.992707198679
sF1302.0
F4258.548950434147
sF1303.0
F4262.119491363178
sF1304.0
F4265.671912747399
sF1305.0
F4269.252376370031
sF1306.0
F4272.804016467272
sF1307.0
F4276.3734300172355
sF1308.0
F4279.924950113696
sF1309.0
F4283.4896225718485
sF1310.0
F4287.050912888501
sF1311.0
F4290.617607453409
sF1312.0
F4294.165861028221
sF1313.0
F4297.729006646806
sF1314.0
F4301.276192331881
sF1315.0
F4304.851152089556
sF1316.0
F4308.396456962392
sF1317.0
F4311.959580187131
sF1318.0
F4315.504742747808
sF1319.0
F4319.06650849681
sF1320.0
F4322.621685019115
sF1321.0
F4326.181688143035
sF1322.0
F4329.723944933953
sF1323.0
F4333.287793969198
sF1324.0
F4336.82679355325
sF1325.0
F4340.396306763652
sF1326.0
F4343.93758829513
sF1327.0
F4347.497510819837
sF1328.0
F4351.03600330565
sF1329.0
F4354.590039614646
sF1330.0
F4358.138630527065
sF1331.0
F4361.696159985973
sF1332.0
F4365.23153862051
sF1333.0
F4368.786624220934
sF1334.0
F4372.320817161972
sF1335.0
F4375.885570157701
sF1336.0
F4379.420722846326
sF1337.0
F4382.973070453396
sF1338.0
F4386.505969142836
sF1339.0
F4390.0597998981875
sF1340.0
F4393.600853295459
sF1341.0
F4397.153952976433
sF1342.0
F4400.68381828823
sF1343.0
F4404.235749044705
sF1344.0
F4407.764834555802
sF1345.0
F4411.324324268245
sF1346.0
F4414.853475748505
sF1347.0
F4418.402947743552
sF1348.0
F4421.931394688246
sF1349.0
F4425.4783362209555
sF1350.0
F4429.0163738111
sF1351.0
F4432.564625710062
sF1352.0
F4436.091213846949
sF1353.0
F4439.637302434416
sF1354.0
F4443.163901751057
sF1355.0
F4446.718659654241
sF1356.0
F4450.245107732132
sF1357.0
F4453.786916441135
sF1358.0
F4457.311635484758
sF1359.0
F4460.855351586816
sF1360.0
F4464.387151801739
sF1361.0
F4467.929627554672
sF1362.0
F4471.450842737863
sF1363.0
F4474.994238494355
sF1364.0
F4478.512620019925
sF1365.0
F4482.060660949689
sF1366.0
F4485.580630857977
sF1367.0
F4489.121537318003
sF1368.0
F4492.638105297181
sF1369.0
F4496.1760623731725
sF1370.0
F4499.700782677367
sF1371.0
F4503.241428452262
sF1372.0
F4506.75504731308
sF1373.0
F4510.293013071928
sF1374.0
F4513.807156457734
sF1375.0
F4517.3526000386455
sF1376.0
F4520.866599137471
sF1377.0
F4524.402840126371
sF1378.0
F4527.917370071213
sF1379.0
F4531.4510551078365
sF1380.0
F4534.971773518101
sF1381.0
F4538.505629044932
sF1382.0
F4542.01769523576
sF1383.0
F4545.552762866016
sF1384.0
F4549.061824642162
sF1385.0
F4552.60192908283
sF1386.0
F4556.113886106825
sF1387.0
F4559.645282032541
sF1388.0
F4563.152800231065
sF1389.0
F4566.682178600945
sF1390.0
F4570.199385729968
sF1391.0
F4573.7299771078215
sF1392.0
F4577.235009328136
sF1393.0
F4580.7628596860395
sF1394.0
F4584.268132487828
sF1395.0
F4587.805489763382
sF1396.0
F4591.310648467354
sF1397.0
F4594.836552390349
sF1398.0
F4598.341309671296
sF1399.0
F4601.8650906792345
sF1400.0
F4605.377706301286
sF1401.0
F4608.901515596367
sF1402.0
F4612.4027393300275
sF1403.0
F4615.9256833852405
sF1404.0
F4619.424674829458
sF1405.0
F4622.956192852798
sF1406.0
F4626.456432508893
sF1407.0
F4629.976136325277
sF1408.0
F4633.473131853423
sF1409.0
F4636.9901736292995
sF1410.0
F4640.497561905481
sF1411.0
F4644.015786330211
sF1412.0
F4647.510056254402
sF1413.0
F4651.02690564408
sF1414.0
F4654.520007050299
sF1415.0
F4658.046717334676
sF1416.0
F4661.540118509736
sF1417.0
F4665.053672225149
sF1418.0
F4668.54601858828
sF1419.0
F4672.058771362237
sF1420.0
F4675.559866680637
sF1421.0
F4679.072754455391
sF1422.0
F4682.56497552085
sF1423.0
F4686.074864080686
sF1424.0
F4689.564581344498
sF1425.0
F4693.08497944504
sF1426.0
F4696.575225242258
sF1427.0
F4700.086264316518
sF1428.0
F4703.5734130727415
sF1429.0
F4707.081766302711
sF1430.0
F4710.578509313795
sF1431.0
F4714.088978359177
sF1432.0
F4717.575957835242
sF1433.0
F4721.082388932039
sF1434.0
F4724.566564503727
sF1435.0
F4728.084293824796
sF1436.0
F4731.569678880286
sF1437.0
F4735.0772142123515
sF1438.0
F4738.559858790776
sF1439.0
F4742.063848397926
sF1440.0
F4745.560361357137
sF1441.0
F4749.0668510606665
sF1442.0
F4752.550187045022
sF1443.0
F4756.055543530417
sF1444.0
F4759.540020422738
sF1445.0
F4763.056169286907
sF1446.0
F4766.542486361571
sF1447.0
F4770.048203844915
sF1448.0
F4773.531910190454
sF1449.0
F4777.035990357764
sF1450.0
F4780.530397366872
sF1451.0
F4784.037715769341
sF1452.0
F4787.520391914629
sF1453.0
F4791.025461406282
sF1454.0
F4794.5069508027755
sF1455.0
F4798.021367013846
sF1456.0
F4801.508258593061
sF1457.0
F4805.010090432796
sF1458.0
F4808.492741812492
sF1459.0
F4811.994369139327
sF1460.0
F4815.490012586168
sF1461.0
F4818.993504411538
sF1462.0
F4822.476186149627
sF1463.0
F4825.978816403523
sF1464.0
F4829.46169276023
sF1465.0
F4832.975547918746
sF1466.0
F4836.457495997204
sF1467.0
F4839.960908704352
sF1468.0
F4843.4439015751805
sF1469.0
F4846.94465368506
sF1470.0
F4850.437044825357
sF1471.0
F4853.939712403827
sF1472.0
F4857.421466284985
sF1473.0
F4860.922135378498
sF1474.0
F4864.4020991056495
sF1475.0
F4867.912865460294
sF1476.0
F4871.394813804867
sF1477.0
F4874.8959862931715
sF1478.0
F4878.37499906276
sF1479.0
F4881.875132039984
sF1480.0
F4885.363045931647
sF1481.0
F4888.86305275704
sF1482.0
F4892.3409774702895
sF1483.0
F4895.838496846428
sF1484.0
F4899.3160613767905
sF1485.0
F4902.823385077463
sF1486.0
F4906.300972378462
sF1487.0
F4909.799409031148
sF1488.0
F4913.274688874559
sF1489.0
F4916.771497654075
sF1490.0
F4920.255330100748
sF1491.0
F4923.752720146738
sF1492.0
F4927.22874244691
sF1493.0
F4930.722750593731
sF1494.0
F4934.196075711598
sF1495.0
F4937.699535836366
sF1496.0
F4941.175427960343
sF1497.0
F4944.669191867552
sF1498.0
F4948.141986674293
sF1499.0
F4951.634460541063
sF1500.0
F4955.11552320903
sF1501.0
F4958.60970825679
sF1502.0
F4962.080067551532
sF1503.0
F4965.570814422773
sF1504.0
F4969.041028784265
sF1505.0
F4972.539869536705
sF1506.0
F4976.010901797837
sF1507.0
F4979.499750950275
sF1508.0
F4982.968308565712
sF1509.0
F4986.456159113929
sF1510.0
F4989.932885252345
sF1511.0
F4993.421743714116
sF1512.0
F4996.888845657629
sF1513.0
F5000.376026765084
sF1514.0
F5003.840262372045
sF1515.0
F5007.333821165801
sF1516.0
F5010.802535141668
sF1517.0
F5014.28648961809
sF1518.0
F5017.752300957786
sF1519.0
F5021.233751968081
sF1520.0
F5024.7063895960455
sF1521.0
F5028.190639272263
sF1522.0
F5031.652222427539
sF1523.0
F5035.132101191763
sF1524.0
F5038.593338771265
sF1525.0
F5042.080563423608
sF1526.0
F5045.541801185199
sF1527.0
F5049.020037427846
sF1528.0
F5052.4779223988735
sF1529.0
F5055.953575077965
sF1530.0
F5059.420160341959
sF1531.0
F5062.895352543369
sF1532.0
F5066.352384175613
sF1533.0
F5069.826660790002
sF1534.0
F5073.277630713763
sF1535.0
F5076.761877848984
sF1536.0
F5080.215375734192
sF1537.0
F5083.688975237951
sF1538.0
F5087.138452758984
sF1539.0
F5090.609576931407
sF1540.0
F5094.070151926536
sF1541.0
F5097.540808995734
sF1542.0
F5100.989715706239
sF1543.0
F5104.456506988457
sF1544.0
F5107.90329300801
sF1545.0
F5111.380663563754
sF1546.0
F5114.827439702978
sF1547.0
F5118.292653414067
sF1548.0
F5121.735685120221
sF1549.0
F5125.199500535473
sF1550.0
F5128.652122332607
sF1551.0
F5132.116621630421
sF1552.0
F5135.5570313761145
sF1553.0
F5139.018814394831
sF1554.0
F5142.458778635292
sF1555.0
F5145.928323329463
sF1556.0
F5149.369353572684
sF1557.0
F5152.828606592931
sF1558.0
F5156.2649379486575
sF1559.0
F5159.723674622859
sF1560.0
F5163.170259829516
sF1561.0
F5166.6288284572665
sF1562.0
F5170.061919595121
sF1563.0
F5173.517851598364
sF1564.0
F5176.951860319572
sF1565.0
F5180.415115511969
sF1566.0
F5183.848206004815
sF1567.0
F5187.298742722334
sF1568.0
F5190.727411116391
sF1569.0
F5194.180128235923
sF1570.0
F5197.615124348407
sF1571.0
F5201.065263176094
sF1572.0
F5204.490889390374
sF1573.0
F5207.938923134313
sF1574.0
F5211.362872901534
sF1575.0
F5214.818479361519
sF1576.0
F5218.242763313304
sF1577.0
F5221.686906223725
sF1578.0
F5225.105982561768
sF1579.0
F5228.5504663791535
sF1580.0
F5231.977172358462
sF1581.0
F5235.419940144776
sF1582.0
F5238.836877611909
sF1583.0
F5242.274542878454
sF1584.0
F5245.693614358996
sF1585.0
F5249.14047399079
sF1586.0
F5252.555293582044
sF1587.0
F5255.991557418586
sF1588.0
F5259.404682240086
sF1589.0
F5262.839627395988
sF1590.0
F5266.259991341117
sF1591.0
F5269.69312999668
sF1592.0
F5273.104427027378
sF1593.0
F5276.535824363592
sF1594.0
F5279.94382468616
sF1595.0
F5283.383087365155
sF1596.0
F5286.793117093539
sF1597.0
F5290.221579305104
sF1598.0
F5293.626766909098
sF1599.0
F5297.05764635174
sF1600.0
F5300.470088487567
sF1601.0
F5303.900937441571
sF1602.0
F5307.304034865243
sF1603.0
F5310.732314850054
sF1604.0
F5314.134259377065
sF1605.0
F5317.569473904971
sF1606.0
F5320.972166245551
sF1607.0
F5324.3984287858775
sF1608.0
F5327.797367308061
sF1609.0
F5331.223674305759
sF1610.0
F5334.629294260465
sF1611.0
F5338.0565429461285
sF1612.0
F5341.455166114218
sF1613.0
F5344.878254884727
sF1614.0
F5348.2770428993435
sF1615.0
F5351.70784932601
sF1616.0
F5355.106732163587
sF1617.0
F5358.529594344724
sF1618.0
F5361.924788242051
sF1619.0
F5365.348567349772
sF1620.0
F5368.7517711789305
sF1621.0
F5372.1749719862355
sF1622.0
F5375.568331500784
sF1623.0
F5378.992045979258
sF1624.0
F5382.384651326788
sF1625.0
F5385.815507893834
sF1626.0
F5389.208886666607
sF1627.0
F5392.632425319581
sF1628.0
F5396.022341905069
sF1629.0
F5399.443706126279
sF1630.0
F5402.842704495601
sF1631.0
F5406.26436282702
sF1632.0
F5409.655706462429
sF1633.0
F5413.073561919305
sF1634.0
F5416.463903890919
sF1635.0
F5419.8906518437325
sF1636.0
F5423.279973352047
sF1637.0
F5426.6984395945765
sF1638.0
F5430.084315569744
sF1639.0
F5433.502622466779
sF1640.0
F5436.895697041539
sF1641.0
F5440.31320547237
sF1642.0
F5443.695841138303
sF1643.0
F5447.11076926005
sF1644.0
F5450.492135171374
sF1645.0
F5453.916152589057
sF1646.0
F5457.296923115853
sF1647.0
F5460.7119232038185
sF1648.0
F5464.088655124259
sF1649.0
F5467.502304405972
sF1650.0
F5470.887723254933
sF1651.0
F5474.299687780816
sF1652.0
F5477.67615449326
sF1653.0
F5481.084490441026
sF1654.0
F5484.460607007246
sF1655.0
F5487.875252681094
sF1656.0
F5491.252913862143
sF1657.0
F5494.6583142310965
sF1658.0
F5498.031050897589
sF1659.0
F5501.438943742685
sF1660.0
F5504.820820236969
sF1661.0
F5508.226581825545
sF1662.0
F5511.599984791312
sF1663.0
F5515.002971409633
sF1664.0
F5518.374380698902
sF1665.0
F5521.785965584778
sF1666.0
F5525.158255339137
sF1667.0
F5528.561432299506
sF1668.0
F5531.929510540246
sF1669.0
F5535.332354221313
sF1670.0
F5538.708740658498
sF1671.0
F5542.112006438131
sF1672.0
F5545.480667712181
sF1673.0
F5548.879544380953
sF1674.0
F5552.24711073655
sF1675.0
F5555.653070748636
sF1676.0
F5559.0226257134245
sF1677.0
F5562.420335611458
sF1678.0
F5565.783838314649
sF1679.0
F5569.183018381067
sF1680.0
F5572.554332551359
sF1681.0
F5575.954668320046
sF1682.0
F5579.316417864815
sF1683.0
F5582.712767650845
sF1684.0
F5586.074555257745
sF1685.0
F5589.478582155666
sF1686.0
F5592.842295274026
sF1687.0
F5596.236740570134
sF1688.0
F5599.595882780634
sF1689.0
F5602.990165081323
sF1690.0
F5606.357575728533
sF1691.0
F5609.751764756348
sF1692.0
F5613.109448621597
sF1693.0
F5616.502241072473
sF1694.0
F5619.8582106301765
sF1695.0
F5623.258379599873
sF1696.0
F5626.615045485684
sF1697.0
F5630.005887846567
sF1698.0
F5633.35988055683
sF1699.0
F5636.748349436401
sF1700.0
F5640.110510151458
sF1701.0
F5643.499789290587
sF1702.0
F5646.853965844245
sF1703.0
F5650.241388910091
sF1704.0
F5653.591924325359
sF1705.0
F5656.987324121509
sF1706.0
F5660.340121975126
sF1707.0
F5663.728515737445
sF1708.0
F5667.076176087986
sF1709.0
F5670.464168413897
sF1710.0
F5673.819291138455
sF1711.0
F5677.208224134138
sF1712.0
F5680.55551806731
sF1713.0
F5683.94024394872
sF1714.0
F5687.287636646271
sF1715.0
F5690.679526713943
sF1716.0
F5694.027343920472
sF1717.0
F5697.4114329777385
sF1718.0
F5700.758416162978
sF1719.0
F5704.140355043974
sF1720.0
F5707.4947795781445
sF1721.0
F5710.880113526191
sF1722.0
F5714.226137550125
sF1723.0
F5717.606343318665
sF1724.0
F5720.951148138205
sF1725.0
F5724.339833574631
sF1726.0
F5727.687758474815
sF1727.0
F5731.068398462751
sF1728.0
F5734.409149956701
sF1729.0
F5737.7896282808415
sF1730.0
F5741.140642460253
sF1731.0
F5744.520819018568
sF1732.0
F5747.8623292876055
sF1733.0
F5751.239561056908
sF1734.0
F5754.578301299027
sF1735.0
F5757.963653786567
sF1736.0
F5761.305723524265
sF1737.0
F5764.680504496824
sF1738.0
F5768.0175508162465
sF1739.0
F5771.393371385385
sF1740.0
F5774.739480518414
sF1741.0
F5778.116257061459
sF1742.0
F5781.452966514292
sF1743.0
F5784.82523848453
sF1744.0
F5788.15970006058
sF1745.0
F5791.54316193359
sF1746.0
F5794.879376122416
sF1747.0
F5798.249224135296
sF1748.0
F5801.581862978058
sF1749.0
F5804.9531954453205
sF1750.0
F5808.294469114155
sF1751.0
F5811.666098327676
sF1752.0
F5814.996082607375
sF1753.0
F5818.362987609618
sF1754.0
F5821.696227900864
sF1755.0
F5825.069131843298
sF1756.0
F5828.402976808396
sF1757.0
F5831.765803928646
sF1758.0
F5835.094690664851
sF1759.0
F5838.458449986676
sF1760.0
F5841.79468543496
sF1761.0
F5845.159421571888
sF1762.0
F5848.484670157864
sF1763.0
F5851.8444117759755
sF1764.0
F5855.1713711298535
sF1765.0
F5858.535732980219
sF1766.0
F5861.863515793285
sF1767.0
F5865.220483595325
sF1768.0
F5868.541238621933
sF1769.0
F5871.901651278405
sF1770.0
F5875.227147625792
sF1771.0
F5878.58730845635
sF1772.0
F5881.904156196993
sF1773.0
F5885.259921116355
sF1774.0
F5888.576693161544
sF1775.0
F5891.938037669026
sF1776.0
F5895.254617179807
sF1777.0
F5898.608743191397
sF1778.0
F5901.920747963197
sF1779.0
F5905.273453877643
sF1780.0
F5908.59278259097
sF1781.0
F5911.946502557064
sF1782.0
F5915.258494186693
sF1783.0
F5918.607571402372
sF1784.0
F5921.918715320986
sF1785.0
F5925.272994987829
sF1786.0
F5928.587524165771
sF1787.0
F5931.933960158038
sF1788.0
F5935.243423628268
sF1789.0
F5938.588993620921
sF1790.0
F5941.90574210228
sF1791.0
F5945.254660172832
sF1792.0
F5948.561725090056
sF1793.0
F5951.905766682672
sF1794.0
F5955.212519356421
sF1795.0
F5958.56102446631
sF1796.0
F5961.871653647551
sF1797.0
F5965.213136245914
sF1798.0
F5968.517846757578
sF1799.0
F5971.859749592689
sF1800.0
F5975.172766370007
s.