(lp0
(F84.0
F0.0
tp1
a(F42.0
F0.0
tp2
a(F28.0
F0.0
tp3
a(F21.0
F0.41533209385046194
tp4
a(F16.8
F0.5036140625854308
tp5
a(F14.0
F0.5357143941256644
tp6
a(F12.0
F0.6176235247049411
tp7
a(F10.5
F0.7448949143041462
tp8
a(F9.333333333333334
F0.8648451096834555
tp9
a(F8.4
F0.9798130284518
tp10
a(F7.636363636363637
F1.1243002885333808
tp11
a(F7.0
F1.2836366896315168
tp12
a(F6.461538461538462
F1.4342766971624217
tp13
a(F6.0
F1.6027776115293921
tp14
a(F5.6
F1.7749160606624343
tp15
a(F5.25
F1.954724124655051
tp16
a(F4.9411764705882355
F2.139112969510755
tp17
a(F4.666666666666667
F2.3241936361261537
tp18
a(F4.421052631578948
F2.5219394555180354
tp19
a(F4.2
F2.7261730448554875
tp20
a(F4.0
F2.93099418422444
tp21
a(F3.8181818181818183
F3.1441628635496666
tp22
a(F3.652173913043478
F3.3605622606791643
tp23
a(F3.5
F3.581711433109042
tp24
a(F3.36
F3.808490848078279
tp25
a(F3.230769230769231
F4.036929863260691
tp26
a(F3.111111111111111
F4.2743724162417
tp27
a(F3.0
F4.514036490976262
tp28
a(F2.896551724137931
F4.758104576458319
tp29
a(F2.8
F5.006607934807154
tp30
a(F2.7096774193548385
F5.2596788198356546
tp31
a(F2.625
F5.518674427915489
tp32
a(F2.5454545454545454
F5.7795502618931485
tp33
a(F2.4705882352941178
F6.044831191896633
tp34
a(F2.4
F6.314465350122621
tp35
a(F2.3333333333333335
F6.589078459450312
tp36
a(F2.27027027027027
F6.867617303620533
tp37
a(F2.210526315789474
F7.149989695964674
tp38
a(F2.1538461538461537
F7.437312260493671
tp39
a(F2.1
F7.727768866644556
tp40
a(F2.048780487804878
F8.020134594584487
tp41
a(F2.0
F8.31800662254852
tp42
a(F1.9534883720930232
F8.619598792442263
tp43
a(F1.9090909090909092
F8.925780070944077
tp44
a(F1.8666666666666667
F9.2334714623016
tp45
a(F1.826086956521739
F9.545814288068845
tp46
a(F1.7872340425531914
F9.86562861900012
tp47
a(F1.75
F10.193950734930716
tp48
a(F1.7142857142857142
F10.171665898249515
tp49
a(F1.68
F10.184269512362182
tp50
a(F1.6470588235294117
F10.331047005610628
tp51
a(F1.6153846153846154
F10.774782216660078
tp52
a(F1.5849056603773586
F11.55433469946654
tp53
a(F1.5555555555555556
F12.664698910598258
tp54
a(F1.5272727272727273
F14.10948777637949
tp55
a(F1.5
F15.869041669147581
tp56
a(F1.4736842105263157
F17.892379383157472
tp57
a(F1.4482758620689655
F20.153244794349206
tp58
a(F1.423728813559322
F22.62911652271124
tp59
a(F1.4
F25.285982360894792
tp60
a(F1.3770491803278688
F28.111520459846275
tp61
a(F1.3548387096774193
F31.094012627279913
tp62
a(F1.3333333333333333
F34.201943624245565
tp63
a(F1.3125
F37.44656511426008
tp64
a(F1.2923076923076924
F40.804481200639565
tp65
a(F1.2727272727272727
F44.27162119099057
tp66
a(F1.2537313432835822
F47.84397221787912
tp67
a(F1.2352941176470589
F51.49887254756364
tp68
a(F1.2173913043478262
F55.241594251580075
tp69
a(F1.2
F59.07123263910999
tp70
a(F1.1830985915492958
F62.967866033107775
tp71
a(F1.1666666666666667
F66.93519081348396
tp72
a(F1.1506849315068493
F70.94558151669408
tp73
a(F1.135135135135135
F75.05122286302381
tp74
a(F1.12
F79.18936980708182
tp75
a(F1.105263157894737
F83.39861349084818
tp76
a(F1.0909090909090908
F87.63600518365872
tp77
a(F1.0769230769230769
F91.9080588853404
tp78
a(F1.0632911392405062
F96.23531675878347
tp79
a(F1.05
F100.57779707118051
tp80
a(F1.037037037037037
F104.96379707221583
tp81
a(F1.024390243902439
F109.40720757427724
tp82
a(F1.0120481927710843
F113.89271222238688
tp83
a(F1.0
F118.39620609931843
tp84
a(F0.9882352941176471
F122.89034597316149
tp85
a(F0.9767441860465116
F127.42209764556186
tp86
a(F0.9655172413793104
F132.0139183225975
tp87
a(F0.9545454545454546
F136.58308085440328
tp88
a(F0.9438202247191011
F141.22490189408208
tp89
a(F0.9333333333333333
F145.81697476490172
tp90
a(F0.9230769230769231
F150.46252925835503
tp91
a(F0.9130434782608695
F155.15426039263144
tp92
a(F0.9032258064516129
F159.85833503953012
tp93
a(F0.8936170212765957
F164.6011633389066
tp94
a(F0.8842105263157894
F169.2893870250217
tp95
a(F0.875
F174.01329672659972
tp96
a(F0.865979381443299
F178.76858627354596
tp97
a(F0.8571428571428571
F183.54679471599056
tp98
a(F0.8484848484848485
F188.3171616171068
tp99
a(F0.84
F193.10884740866413
tp100
a(F0.8316831683168316
F197.89088246464217
tp101
a(F0.8235294117647058
F202.7623644361693
tp102
a(F0.8155339805825242
F207.53377892643218
tp103
a(F0.8076923076923077
F212.39994828442232
tp104
a(F0.8
F217.2356664150723
tp105
a(F0.7924528301886793
F222.1146978856737
tp106
a(F0.7850467289719626
F227.02450477856706
tp107
a(F0.7777777777777778
F231.9536998097831
tp108
a(F0.7706422018348624
F236.86499303556843
tp109
a(F0.7636363636363637
F241.7736542124115
tp110
a(F0.7567567567567568
F246.75949202459654
tp111
a(F0.75
F251.69274421205208
tp112
a(F0.7433628318584071
F256.65189041425566
tp113
a(F0.7368421052631579
F261.62270166654815
tp114
a(F0.7304347826086957
F266.5791454071943
tp115
a(F0.7241379310344828
F271.59130813971154
tp116
a(F0.717948717948718
F276.6362149214615
tp117
a(F0.711864406779661
F281.6927811861438
tp118
a(F0.7058823529411765
F286.73962439722305
tp119
a(F0.7
F291.7598531920726
tp120
a(F0.6942148760330579
F296.78349799879044
tp121
a(F0.6885245901639344
F301.9183398034235
tp122
a(F0.6829268292682927
F306.98988221650325
tp123
a(F0.6774193548387096
F312.10930759809503
tp124
a(F0.672
F317.27454682159697
tp125
a(F0.6666666666666666
F322.4160653687018
tp126
a(F0.6614173228346457
F327.6242339109912
tp127
a(F0.65625
F332.852637897341
tp128
a(F0.6511627906976745
F338.0768643026212
tp129
a(F0.6461538461538462
F343.269659492783
tp130
a(F0.6412213740458015
F348.5037008108535
tp131
a(F0.6363636363636364
F353.70212399945535
tp132
a(F0.631578947368421
F358.889841707098
tp133
a(F0.6268656716417911
F364.0840660062074
tp134
a(F0.6222222222222222
F369.34358050094073
tp135
a(F0.6176470588235294
F374.6545128620657
tp136
a(F0.6131386861313869
F379.90671779696765
tp137
a(F0.6086956521739131
F385.1394938944921
tp138
a(F0.60431654676259
F390.42072800815043
tp139
a(F0.6
F395.8318646309684
tp140
a(F0.5957446808510638
F401.1657372353643
tp141
a(F0.5915492957746479
F406.5380247470406
tp142
a(F0.5874125874125874
F411.92856040007564
tp143
a(F0.5833333333333334
F417.294853286228
tp144
a(F0.5793103448275863
F422.6647832477639
tp145
a(F0.5753424657534246
F428.01818918453966
tp146
a(F0.5714285714285714
F433.40750667144863
tp147
a(F0.5675675675675675
F438.8052320598158
tp148
a(F0.5637583892617449
F444.22850493621314
tp149
a(F0.56
F449.6368034663845
tp150
a(F0.5562913907284768
F455.0642433106352
tp151
a(F0.5526315789473685
F460.51885937984395
tp152
a(F0.5490196078431373
F465.98516552620015
tp153
a(F0.5454545454545454
F471.4636923091886
tp154
a(F0.5419354838709678
F476.9825093462205
tp155
a(F0.5384615384615384
F482.52940775992596
tp156
a(F0.535031847133758
F488.0297792694024
tp157
a(F0.5316455696202531
F493.64522808839047
tp158
a(F0.5283018867924528
F499.13408851758845
tp159
a(F0.525
F504.72607865783226
tp160
a(F0.5217391304347826
F510.29604208547784
tp161
a(F0.5185185185185185
F515.8949892738888
tp162
a(F0.5153374233128835
F521.4196198876622
tp163
a(F0.5121951219512195
F526.9756977667331
tp164
a(F0.509090909090909
F532.539249942403
tp165
a(F0.5060240963855421
F538.0932598517481
tp166
a(F0.5029940119760479
F543.7078344288615
tp167
a(F0.5
F549.3366747232868
tp168
a(F0.4970414201183432
F554.9137791635335
tp169
a(F0.49411764705882355
F560.5494817454398
tp170
a(F0.49122807017543857
F566.1230732243149
tp171
a(F0.4883720930232558
F571.8371716895393
tp172
a(F0.48554913294797686
F577.4455143285443
tp173
a(F0.4827586206896552
F583.0797871564407
tp174
a(F0.48
F588.704069170859
tp175
a(F0.4772727272727273
F594.286007636321
tp176
a(F0.4745762711864407
F600.0830577668415
tp177
a(F0.47191011235955055
F605.8208236831708
tp178
a(F0.4692737430167598
F611.5452847587276
tp179
a(F0.4666666666666667
F617.2333939995185
tp180
a(F0.46408839779005523
F622.8953876361293
tp181
a(F0.46153846153846156
F628.7070849432115
tp182
a(F0.45901639344262296
F634.4443014512559
tp183
a(F0.45652173913043476
F640.2130190517817
tp184
a(F0.4540540540540541
F645.9815198117515
tp185
a(F0.45161290322580644
F651.7851422186856
tp186
a(F0.44919786096256686
F657.5932491003259
tp187
a(F0.44680851063829785
F663.4331667309004
tp188
a(F0.4444444444444444
F669.1404185219519
tp189
a(F0.4421052631578947
F674.9102112397799
tp190
a(F0.4397905759162304
F680.7074771314775
tp191
a(F0.4375
F686.5591697434694
tp192
a(F0.43523316062176165
F692.4416985499635
tp193
a(F0.4329896907216495
F698.211905288727
tp194
a(F0.4307692307692308
F704.0872156780263
tp195
a(F0.42857142857142855
F709.8730117432225
tp196
a(F0.4263959390862944
F715.7658296176746
tp197
a(F0.42424242424242425
F721.5903216629505
tp198
a(F0.4221105527638191
F727.4379518738747
tp199
a(F0.42
F733.3332876415885
tp200
a(F0.417910447761194
F739.190117343552
tp201
a(F0.4158415841584158
F745.1264113175296
tp202
a(F0.41379310344827586
F750.9204792200593
tp203
a(F0.4117647058823529
F756.7536729462411
tp204
a(F0.4097560975609756
F762.5763853007791
tp205
a(F0.4077669902912621
F768.4875524826648
tp206
a(F0.4057971014492754
F774.327432420603
tp207
a(F0.40384615384615385
F780.1919859025995
tp208
a(F0.4019138755980861
F786.1064903068778
tp209
a(F0.4
F792.1209942867355
tp210
a(F0.3981042654028436
F798.0458438117192
tp211
a(F0.39622641509433965
F804.1004346398872
tp212
a(F0.39436619718309857
F810.0151817069383
tp213
a(F0.3925233644859813
F816.0305995970914
tp214
a(F0.39069767441860465
F822.0603812960443
tp215
a(F0.3888888888888889
F828.0479863034349
tp216
a(F0.3870967741935484
F833.9217033685134
tp217
a(F0.3853211009174312
F839.9240700620525
tp218
a(F0.3835616438356164
F845.8011504691598
tp219
a(F0.38181818181818183
F851.7247090434377
tp220
a(F0.38009049773755654
F857.6850339590208
tp221
a(F0.3783783783783784
F863.722660227283
tp222
a(F0.37668161434977576
F869.8360040143798
tp223
a(F0.375
F875.7875956886392
tp224
a(F0.37333333333333335
F881.6759705425555
tp225
a(F0.37168141592920356
F887.6810314853223
tp226
a(F0.3700440528634361
F893.6894190784352
tp227
a(F0.3684210526315789
F899.7016495777881
tp228
a(F0.36681222707423583
F905.8353752980123
tp229
a(F0.3652173913043478
F911.8855991703634
tp230
a(F0.36363636363636365
F917.9055905393583
tp231
a(F0.3620689655172414
F923.9523357083415
tp232
a(F0.3605150214592275
F930.1252651146505
tp233
a(F0.358974358974359
F936.0990735872052
tp234
a(F0.3574468085106383
F942.1598307442052
tp235
a(F0.3559322033898305
F948.2267129508054
tp236
a(F0.35443037974683544
F954.2748313292635
tp237
a(F0.35294117647058826
F960.3987611821262
tp238
a(F0.3514644351464435
F966.4322102054749
tp239
a(F0.35
F972.5417930045106
tp240
a(F0.34854771784232363
F978.7095979429071
tp241
a(F0.34710743801652894
F984.9218241468061
tp242
a(F0.345679012345679
F990.984525175085
tp243
a(F0.3442622950819672
F997.1286695156348
tp244
a(F0.34285714285714286
F1003.3512077429772
tp245
a(F0.34146341463414637
F1009.4080074113205
tp246
a(F0.340080971659919
F1015.4799912952772
tp247
a(F0.3387096774193548
F1021.5352329329037
tp248
a(F0.3373493975903614
F1027.6395724866952
tp249
a(F0.336
F1033.7692870203318
tp250
a(F0.3346613545816733
F1039.9461218818042
tp251
a(F0.3333333333333333
F1046.0969752047024
tp252
a(F0.33201581027667987
F1052.2901633584463
tp253
a(F0.33070866141732286
F1058.5081042291895
tp254
a(F0.32941176470588235
F1064.6843669534942
tp255
a(F0.328125
F1070.7892002010758
tp256
a(F0.32684824902723736
F1076.8984759755836
tp257
a(F0.32558139534883723
F1083.082680738363
tp258
a(F0.32432432432432434
F1089.3527120615024
tp259
a(F0.3230769230769231
F1095.4817902362136
tp260
a(F0.3218390804597701
F1101.659281879019
tp261
a(F0.32061068702290074
F1107.935497557619
tp262
a(F0.3193916349809886
F1114.2097495785988
tp263
a(F0.3181818181818182
F1120.4034982892108
tp264
a(F0.3169811320754717
F1126.6566562137
tp265
a(F0.3157894736842105
F1132.7633722467563
tp266
a(F0.3146067415730337
F1138.9640738982462
tp267
a(F0.31343283582089554
F1145.1683250167619
tp268
a(F0.31226765799256506
F1151.4963850837137
tp269
a(F0.3111111111111111
F1157.736969581659
tp270
a(F0.30996309963099633
F1163.8836423891785
tp271
a(F0.3088235294117647
F1170.202986917306
tp272
a(F0.3076923076923077
F1176.5402086414415
tp273
a(F0.30656934306569344
F1182.8149694702192
tp274
a(F0.3054545454545455
F1188.8515935437633
tp275
a(F0.30434782608695654
F1195.2086481544745
tp276
a(F0.30324909747292417
F1201.5126626443482
tp277
a(F0.302158273381295
F1207.8069745982573
tp278
a(F0.3010752688172043
F1214.1432974124307
tp279
a(F0.3
F1220.4695504247861
tp280
a(F0.298932384341637
F1226.8468553980972
tp281
a(F0.2978723404255319
F1233.267994208153
tp282
a(F0.2968197879858657
F1239.508121067118
tp283
a(F0.29577464788732394
F1245.8993700732838
tp284
a(F0.29473684210526313
F1252.1236826892741
tp285
a(F0.2937062937062937
F1258.5579989325763
tp286
a(F0.2926829268292683
F1264.8500165948167
tp287
a(F0.2916666666666667
F1271.3137407698273
tp288
a(F0.2906574394463668
F1277.5988357355573
tp289
a(F0.2896551724137931
F1283.8549750236757
tp290
a(F0.28865979381443296
F1290.12527573792
tp291
a(F0.2876712328767123
F1296.454983633562
tp292
a(F0.28668941979522183
F1302.8933109849497
tp293
a(F0.2857142857142857
F1309.2013424511817
tp294
a(F0.2847457627118644
F1315.462794397079
tp295
a(F0.28378378378378377
F1321.738370432055
tp296
a(F0.2828282828282828
F1328.019311940324
tp297
a(F0.28187919463087246
F1334.2963833195047
tp298
a(F0.2809364548494983
F1340.6017597072625
tp299
a(F0.28
F1346.9463514486918
tp300
a(F0.27906976744186046
F1353.1708109343504
tp301
a(F0.2781456953642384
F1359.4370181214301
tp302
a(F0.27722772277227725
F1365.6697767249836
tp303
a(F0.27631578947368424
F1372.0073940614093
tp304
a(F0.2754098360655738
F1378.3292278552494
tp305
a(F0.27450980392156865
F1384.6483917262206
tp306
a(F0.2736156351791531
F1390.9640349933409
tp307
a(F0.2727272727272727
F1397.3391551196444
tp308
a(F0.27184466019417475
F1403.6614687208414
tp309
a(F0.2709677419354839
F1409.9867575492697
tp310
a(F0.27009646302250806
F1416.3797621008648
tp311
a(F0.2692307692307692
F1422.7188153261393
tp312
a(F0.268370607028754
F1429.1147481942232
tp313
a(F0.267515923566879
F1435.4345678441994
tp314
a(F0.26666666666666666
F1441.9002033855859
tp315
a(F0.26582278481012656
F1448.2621014483504
tp316
a(F0.26498422712933756
F1454.7266989229013
tp317
a(F0.2641509433962264
F1460.9294715074034
tp318
a(F0.26332288401253917
F1467.2438695849596
tp319
a(F0.2625
F1473.6471622852955
tp320
a(F0.2616822429906542
F1479.9406348380417
tp321
a(F0.2608695652173913
F1486.3631268106644
tp322
a(F0.26006191950464397
F1492.7047671584269
tp323
a(F0.25925925925925924
F1499.17160298866
tp324
a(F0.25846153846153846
F1505.4908015828632
tp325
a(F0.25766871165644173
F1511.872835133387
tp326
a(F0.25688073394495414
F1518.2745533081998
tp327
a(F0.25609756097560976
F1524.705309023358
tp328
a(F0.2553191489361702
F1531.1289696868018
tp329
a(F0.2545454545454545
F1537.5275151507783
tp330
a(F0.2537764350453172
F1543.8566951672592
tp331
a(F0.25301204819277107
F1550.2659661572052
tp332
a(F0.25225225225225223
F1556.7163009880767
tp333
a(F0.25149700598802394
F1563.0382141446066
tp334
a(F0.2507462686567164
F1569.4620301254618
tp335
a(F0.25
F1575.8621002492825
tp336
a(F0.24925816023738873
F1582.287298088677
tp337
a(F0.2485207100591716
F1588.7468529670464
tp338
a(F0.24778761061946902
F1595.2944509822278
tp339
a(F0.24705882352941178
F1601.8031203593218
tp340
a(F0.24633431085043989
F1608.2397883946512
tp341
a(F0.24561403508771928
F1614.641414844433
tp342
a(F0.24489795918367346
F1621.1568321140817
tp343
a(F0.2441860465116279
F1627.4971296752192
tp344
a(F0.24347826086956523
F1633.8648507445903
tp345
a(F0.24277456647398843
F1640.4352966455583
tp346
a(F0.2420749279538905
F1646.751905895969
tp347
a(F0.2413793103448276
F1653.1246671934841
tp348
a(F0.24068767908309455
F1659.7110298609527
tp349
a(F0.24
F1666.2132027691648
tp350
a(F0.23931623931623933
F1672.620766863856
tp351
a(F0.23863636363636365
F1679.0898718018855
tp352
a(F0.23796033994334279
F1685.4281850486652
tp353
a(F0.23728813559322035
F1691.8776498134225
tp354
a(F0.23661971830985915
F1698.2970468074607
tp355
a(F0.23595505617977527
F1704.7013383858646
tp356
a(F0.23529411764705882
F1711.121618196197
tp357
a(F0.2346368715083799
F1717.4087316373689
tp358
a(F0.233983286908078
F1723.9291961219342
tp359
a(F0.23333333333333334
F1730.1288805556885
tp360
a(F0.23268698060941828
F1736.5423326786433
tp361
a(F0.23204419889502761
F1743.0927028188541
tp362
a(F0.23140495867768596
F1749.4593518371057
tp363
a(F0.23076923076923078
F1755.921600837869
tp364
a(F0.23013698630136986
F1762.4272288725997
tp365
a(F0.22950819672131148
F1768.948126090781
tp366
a(F0.22888283378746593
F1775.4242309209617
tp367
a(F0.22826086956521738
F1781.8776927645258
tp368
a(F0.22764227642276422
F1788.403152439858
tp369
a(F0.22702702702702704
F1794.866862801116
tp370
a(F0.22641509433962265
F1801.2875907457153
tp371
a(F0.22580645161290322
F1807.8989292769659
tp372
a(F0.225201072386059
F1814.4685692194444
tp373
a(F0.22459893048128343
F1820.9396832344012
tp374
a(F0.224
F1827.5095613591977
tp375
a(F0.22340425531914893
F1834.1067218002606
tp376
a(F0.22281167108753316
F1840.6386271351284
tp377
a(F0.2222222222222222
F1847.1868051009262
tp378
a(F0.22163588390501318
F1853.6913246636097
tp379
a(F0.22105263157894736
F1860.1960506304183
tp380
a(F0.2204724409448819
F1866.888079743137
tp381
a(F0.2198952879581152
F1873.3285332540665
tp382
a(F0.2193211488250653
F1879.8596967401754
tp383
a(F0.21875
F1886.2843682185385
tp384
a(F0.21818181818181817
F1892.8058704994862
tp385
a(F0.21761658031088082
F1899.3565821026623
tp386
a(F0.21705426356589147
F1905.9966148098574
tp387
a(F0.21649484536082475
F1912.4593431689414
tp388
a(F0.2159383033419023
F1919.1016669999776
tp389
a(F0.2153846153846154
F1925.7798428916785
tp390
a(F0.21483375959079284
F1932.2879701611023
tp391
a(F0.21428571428571427
F1938.7303940221354
tp392
a(F0.21374045801526717
F1945.3630729355357
tp393
a(F0.2131979695431472
F1951.8830865337447
tp394
a(F0.21265822784810126
F1958.532427244307
tp395
a(F0.21212121212121213
F1965.2154017945338
tp396
a(F0.21158690176322417
F1971.6458804549939
tp397
a(F0.21105527638190955
F1978.3632296535834
tp398
a(F0.21052631578947367
F1985.0125234781024
tp399
a(F0.21
F1991.5139445233965
tp400
a(F0.20947630922693267
F1997.985161532682
tp401
a(F0.208955223880597
F2004.4917953764764
tp402
a(F0.20843672456575682
F2011.071360665912
tp403
a(F0.2079207920792079
F2017.8617428214186
tp404
a(F0.2074074074074074
F2024.5449002975422
tp405
a(F0.20689655172413793
F2031.155878934578
tp406
a(F0.20638820638820637
F2037.7390644698146
tp407
a(F0.20588235294117646
F2044.285632918933
tp408
a(F0.20537897310513448
F2050.920828873121
tp409
a(F0.2048780487804878
F2057.4843495936198
tp410
a(F0.20437956204379562
F2064.227321106628
tp411
a(F0.20388349514563106
F2070.7241288970395
tp412
a(F0.2033898305084746
F2077.4622051302936
tp413
a(F0.2028985507246377
F2084.067115831857
tp414
a(F0.20240963855421687
F2090.6173258877175
tp415
a(F0.20192307692307693
F2097.2657326206718
tp416
a(F0.2014388489208633
F2103.788483959166
tp417
a(F0.20095693779904306
F2110.271806379218
tp418
a(F0.20047732696897375
F2116.851647633572
tp419
a(F0.2
F2123.47582535414
tp420
a(F0.1995249406175772
F2130.0836287986776
tp421
a(F0.1990521327014218
F2136.488943084192
tp422
a(F0.19858156028368795
F2143.094859971017
tp423
a(F0.19811320754716982
F2149.65935793641
tp424
a(F0.1976470588235294
F2156.264117092112
tp425
a(F0.19718309859154928
F2162.7343422793865
tp426
a(F0.19672131147540983
F2169.5002258251584
tp427
a(F0.19626168224299065
F2175.9022260639313
tp428
a(F0.1958041958041958
F2182.464436466466
tp429
a(F0.19534883720930232
F2189.103127011635
tp430
a(F0.19489559164733178
F2195.561336040387
tp431
a(F0.19444444444444445
F2202.2072008602468
tp432
a(F0.19399538106235567
F2208.802036659135
tp433
a(F0.1935483870967742
F2215.2528963513787
tp434
a(F0.19310344827586207
F2221.7983570901893
tp435
a(F0.1926605504587156
F2228.3250366397115
tp436
a(F0.19221967963386727
F2234.804520979123
tp437
a(F0.1917808219178082
F2241.4758392378653
tp438
a(F0.19134396355353075
F2248.1696646698215
tp439
a(F0.19090909090909092
F2254.7536543926567
tp440
a(F0.19047619047619047
F2261.3247464416736
tp441
a(F0.19004524886877827
F2267.86643666786
tp442
a(F0.18961625282167044
F2274.4174250441774
tp443
a(F0.1891891891891892
F2281.152214137656
tp444
a(F0.18876404494382024
F2287.821890466517
tp445
a(F0.18834080717488788
F2294.397153901236
tp446
a(F0.18791946308724833
F2301.097805657306
tp447
a(F0.1875
F2307.6779616302724
tp448
a(F0.1870824053452116
F2314.2494190029647
tp449
a(F0.18666666666666668
F2320.900502836662
tp450
a(F0.18625277161862527
F2327.659657557104
tp451
a(F0.18584070796460178
F2334.369025974697
tp452
a(F0.18543046357615894
F2341.1396338676104
tp453
a(F0.18502202643171806
F2347.7838881824014
tp454
a(F0.18461538461538463
F2354.4405783393836
tp455
a(F0.18421052631578946
F2361.092236211359
tp456
a(F0.1838074398249453
F2367.70609573145
tp457
a(F0.18340611353711792
F2374.409433365855
tp458
a(F0.1830065359477124
F2381.102777347205
tp459
a(F0.1826086956521739
F2387.7117988224095
tp460
a(F0.1822125813449024
F2394.283674490362
tp461
a(F0.18181818181818182
F2400.9932390825043
tp462
a(F0.18142548596112312
F2407.6097247103007
tp463
a(F0.1810344827586207
F2414.2425087747665
tp464
a(F0.18064516129032257
F2420.897924051064
tp465
a(F0.18025751072961374
F2427.5279711650505
tp466
a(F0.17987152034261242
F2434.075847161681
tp467
a(F0.1794871794871795
F2440.824237207462
tp468
a(F0.1791044776119403
F2447.3582684512676
tp469
a(F0.17872340425531916
F2454.011465070758
tp470
a(F0.17834394904458598
F2460.8806264836135
tp471
a(F0.17796610169491525
F2467.5324664154155
tp472
a(F0.17758985200845667
F2474.069187189798
tp473
a(F0.17721518987341772
F2481.0025791729504
tp474
a(F0.17684210526315788
F2487.7014402549216
tp475
a(F0.17647058823529413
F2494.299624937692
tp476
a(F0.1761006289308176
F2500.986866125114
tp477
a(F0.17573221757322174
F2507.825967206817
tp478
a(F0.17536534446764093
F2514.6144422500265
tp479
a(F0.175
F2521.336122988379
tp480
a(F0.17463617463617465
F2528.0667287114243
tp481
a(F0.17427385892116182
F2534.9165034025596
tp482
a(F0.17391304347826086
F2541.8465034894894
tp483
a(F0.17355371900826447
F2548.77763867588
tp484
a(F0.1731958762886598
F2555.5070469625266
tp485
a(F0.1728395061728395
F2562.437922056765
tp486
a(F0.17248459958932238
F2569.0690072609787
tp487
a(F0.1721311475409836
F2575.7969279044123
tp488
a(F0.17177914110429449
F2582.523933952079
tp489
a(F0.17142857142857143
F2589.1323108186803
tp490
a(F0.1710794297352342
F2595.8850935849196
tp491
a(F0.17073170731707318
F2602.835384846381
tp492
a(F0.17038539553752535
F2609.4889216056954
tp493
a(F0.1700404858299595
F2616.271072615857
tp494
a(F0.1696969696969697
F2622.9546085357006
tp495
a(F0.1693548387096774
F2629.6703805152274
tp496
a(F0.16901408450704225
F2636.290076296434
tp497
a(F0.1686746987951807
F2643.084879486946
tp498
a(F0.1683366733466934
F2649.938832302788
tp499
a(F0.168
F2656.3582980016713
tp500
a(F0.16766467065868262
F2663.2614242495524
tp501
a(F0.16733067729083664
F2669.839979563776
tp502
a(F0.16699801192842942
F2676.6629344448443
tp503
a(F0.16666666666666666
F2683.459826535835
tp504
a(F0.16633663366336635
F2690.064293295305
tp505
a(F0.16600790513833993
F2696.67561860395
tp506
a(F0.16568047337278108
F2703.522605340229
tp507
a(F0.16535433070866143
F2710.278024839646
tp508
a(F0.1650294695481336
F2716.8676144939213
tp509
a(F0.16470588235294117
F2723.5729545078757
tp510
a(F0.1643835616438356
F2730.2957193665825
tp511
a(F0.1640625
F2736.972326641071
tp512
a(F0.16374269005847952
F2743.747918052099
tp513
a(F0.16342412451361868
F2750.585610151647
tp514
a(F0.16310679611650486
F2757.4282017195137
tp515
a(F0.16279069767441862
F2764.221691690475
tp516
a(F0.16247582205029013
F2770.9958646388013
tp517
a(F0.16216216216216217
F2777.70630095818
tp518
a(F0.16184971098265896
F2784.5138955585517
tp519
a(F0.16153846153846155
F2791.1831680339624
tp520
a(F0.16122840690978887
F2797.9618777696055
tp521
a(F0.16091954022988506
F2804.9103605104096
tp522
a(F0.16061185468451242
F2811.4918923091977
tp523
a(F0.16030534351145037
F2818.385449618378
tp524
a(F0.16
F2825.0128167097146
tp525
a(F0.1596958174904943
F2831.887383214497
tp526
a(F0.15939278937381404
F2838.699638015926
tp527
a(F0.1590909090909091
F2845.495567977835
tp528
a(F0.15879017013232513
F2852.440032642492
tp529
a(F0.15849056603773584
F2859.2102624842787
tp530
a(F0.15819209039548024
F2865.9044028968874
tp531
a(F0.15789473684210525
F2872.5853675809085
tp532
a(F0.1575984990619137
F2879.347500677776
tp533
a(F0.15730337078651685
F2886.329857377405
tp534
a(F0.15700934579439252
F2893.1152987875857
tp535
a(F0.15671641791044777
F2900.004792179814
tp536
a(F0.1564245810055866
F2906.726961822483
tp537
a(F0.15613382899628253
F2913.5569112338057
tp538
a(F0.15584415584415584
F2920.386125348921
tp539
a(F0.15555555555555556
F2927.1185213192243
tp540
a(F0.15526802218114602
F2933.842479338743
tp541
a(F0.15498154981549817
F2940.8974189399305
tp542
a(F0.15469613259668508
F2947.871244812597
tp543
a(F0.15441176470588236
F2954.760288836315
tp544
a(F0.15412844036697249
F2961.486197868543
tp545
a(F0.15384615384615385
F2968.422174437653
tp546
a(F0.15356489945155394
F2975.258596720937
tp547
a(F0.15328467153284672
F2982.034518507352
tp548
a(F0.15300546448087432
F2988.9035147118
tp549
a(F0.15272727272727274
F2995.813040816835
tp550
a(F0.15245009074410162
F3002.5161618672932
tp551
a(F0.15217391304347827
F3009.394546881392
tp552
a(F0.1518987341772152
F3016.45651496013
tp553
a(F0.15162454873646208
F3023.4556153958374
tp554
a(F0.15135135135135136
F3030.3422601118855
tp555
a(F0.1510791366906475
F3037.312985883284
tp556
a(F0.15080789946140036
F3043.993935245663
tp557
a(F0.15053763440860216
F3050.9269757789507
tp558
a(F0.15026833631484796
F3057.8809311200457
tp559
a(F0.15
F3064.632908091469
tp560
a(F0.1497326203208556
F3071.583149355307
tp561
a(F0.1494661921708185
F3078.334318064529
tp562
a(F0.1492007104795737
F3085.1000833995404
tp563
a(F0.14893617021276595
F3091.96814952687
tp564
a(F0.1486725663716814
F3098.7405446132566
tp565
a(F0.14840989399293286
F3105.5186188303737
tp566
a(F0.14814814814814814
F3112.449272992523
tp567
a(F0.14788732394366197
F3119.200951940963
tp568
a(F0.14762741652021089
F3125.9335823000415
tp569
a(F0.14736842105263157
F3132.9256804728698
tp570
a(F0.14711033274956217
F3139.9663570342645
tp571
a(F0.14685314685314685
F3146.876257749524
tp572
a(F0.14659685863874344
F3153.7193538661104
tp573
a(F0.14634146341463414
F3160.302507862715
tp574
a(F0.14608695652173914
F3166.7932886913723
tp575
a(F0.14583333333333334
F3173.6960223231818
tp576
a(F0.14558058925476602
F3180.551904498204
tp577
a(F0.1453287197231834
F3187.2667826286765
tp578
a(F0.14507772020725387
F3194.0414001646127
tp579
a(F0.14482758620689656
F3200.744218787042
tp580
a(F0.14457831325301204
F3207.6157146617215
tp581
a(F0.14432989690721648
F3214.6159286338648
tp582
a(F0.14408233276157806
F3221.2624118195936
tp583
a(F0.14383561643835616
F3228.0549958786596
tp584
a(F0.14358974358974358
F3234.835341839064
tp585
a(F0.14334470989761092
F3241.4465961256974
tp586
a(F0.14310051107325383
F3248.220177703159
tp587
a(F0.14285714285714285
F3255.180769041397
tp588
a(F0.14261460101867574
F3262.0931896471548
tp589
a(F0.1423728813559322
F3269.039752999217
tp590
a(F0.14213197969543148
F3275.8621384417775
tp591
a(F0.14189189189189189
F3282.3140850721093
tp592
a(F0.14165261382799327
F3289.2699952586186
tp593
a(F0.1414141414141414
F3296.1282427843907
tp594
a(F0.1411764705882353
F3302.9465944997005
tp595
a(F0.14093959731543623
F3309.8017858250023
tp596
a(F0.1407035175879397
F3316.8049417618663
tp597
a(F0.14046822742474915
F3323.433669918234
tp598
a(F0.14023372287145242
F3330.4251031095464
tp599
a(F0.14
F3337.2902694222216
tp600
a(F0.13976705490848584
F3344.0846798458947
tp601
a(F0.13953488372093023
F3351.1059158814705
tp602
a(F0.13930348258706468
F3357.9926560963245
tp603
a(F0.1390728476821192
F3364.9235038131833
tp604
a(F0.13884297520661157
F3371.8156881707623
tp605
a(F0.13861386138613863
F3378.5804863860767
tp606
a(F0.13838550247116968
F3385.457785552943
tp607
a(F0.13815789473684212
F3392.545187425653
tp608
a(F0.13793103448275862
F3399.469636368278
tp609
a(F0.1377049180327869
F3406.4301140072866
tp610
a(F0.13747954173486088
F3413.394526871445
tp611
a(F0.13725490196078433
F3420.4184708509038
tp612
a(F0.1370309951060359
F3427.2065748388773
tp613
a(F0.13680781758957655
F3434.2234480016973
tp614
a(F0.13658536585365855
F3441.2414755372824
tp615
a(F0.13636363636363635
F3448.1107732126707
tp616
a(F0.13614262560777957
F3454.8803129087787
tp617
a(F0.13592233009708737
F3461.5877907139306
tp618
a(F0.13570274636510501
F3468.7326652900974
tp619
a(F0.13548387096774195
F3475.4034290740356
tp620
a(F0.13526570048309178
F3482.3278471741
tp621
a(F0.13504823151125403
F3489.229180735619
tp622
a(F0.1348314606741573
F3496.197589199204
tp623
a(F0.1346153846153846
F3503.45455708683
tp624
a(F0.1344
F3510.4594377734634
tp625
a(F0.134185303514377
F3517.512605149283
tp626
a(F0.1339712918660287
F3524.428364276722
tp627
a(F0.1337579617834395
F3531.45975556085
tp628
a(F0.13354531001589826
F3538.4066215021016
tp629
a(F0.13333333333333333
F3545.6483339270058
tp630
a(F0.13312202852614896
F3552.8464153594973
tp631
a(F0.13291139240506328
F3560.136480591996
tp632
a(F0.13270142180094788
F3567.147544670536
tp633
a(F0.13249211356466878
F3574.36463781788
tp634
a(F0.13228346456692913
F3581.3951463439694
tp635
a(F0.1320754716981132
F3588.202084535089
tp636
a(F0.13186813186813187
F3595.1643632026876
tp637
a(F0.13166144200626959
F3602.096891204938
tp638
a(F0.13145539906103287
F3609.3259380313057
tp639
a(F0.13125
F3616.1351396038135
tp640
a(F0.1310452418096724
F3622.9053919339817
tp641
a(F0.1308411214953271
F3629.9387110343055
tp642
a(F0.13063763608087092
F3637.023690256934
tp643
a(F0.13043478260869565
F3643.980413210833
tp644
a(F0.13023255813953488
F3651.273535606501
tp645
a(F0.13003095975232198
F3658.089845055954
tp646
a(F0.12982998454404945
F3665.207385798943
tp647
a(F0.12962962962962962
F3672.327361620936
tp648
a(F0.12942989214175654
F3679.2980720836595
tp649
a(F0.12923076923076923
F3686.4025560057025
tp650
a(F0.12903225806451613
F3693.4334255639756
tp651
a(F0.12883435582822086
F3700.209291320778
tp652
a(F0.12863705972434916
F3707.0681392417064
tp653
a(F0.12844036697247707
F3714.093755489704
tp654
a(F0.1282442748091603
F3721.0243721271754
tp655
a(F0.12804878048780488
F3727.8089946922705
tp656
a(F0.1278538812785388
F3734.8943016365183
tp657
a(F0.1276595744680851
F3741.7629582645195
tp658
a(F0.1274658573596358
F3748.850699336831
tp659
a(F0.12727272727272726
F3755.7642152432027
tp660
a(F0.12708018154311648
F3762.6321886520636
tp661
a(F0.1268882175226586
F3769.9772650601312
tp662
a(F0.12669683257918551
F3777.2045722826824
tp663
a(F0.12650602409638553
F3784.179078875306
tp664
a(F0.12631578947368421
F3791.1494158830933
tp665
a(F0.12612612612612611
F3798.152275278867
tp666
a(F0.12593703148425786
F3805.090887981979
tp667
a(F0.12574850299401197
F3812.1642513662996
tp668
a(F0.12556053811659193
F3819.370138269633
tp669
a(F0.1253731343283582
F3826.47283020313
tp670
a(F0.12518628912071536
F3833.417900213966
tp671
a(F0.125
F3840.425547603214
tp672
a(F0.12481426448736999
F3847.415295248296
tp673
a(F0.12462908011869436
F3854.3106267137623
tp674
a(F0.12444444444444444
F3861.2806425141334
tp675
a(F0.1242603550295858
F3868.3530627850882
tp676
a(F0.1240768094534712
F3875.146828590463
tp677
a(F0.12389380530973451
F3882.166192542884
tp678
a(F0.12371134020618557
F3889.1776963339325
tp679
a(F0.12352941176470589
F3896.407660956989
tp680
a(F0.12334801762114538
F3903.116333091809
tp681
a(F0.12316715542521994
F3910.522020337219
tp682
a(F0.12298682284040996
F3917.3926617840048
tp683
a(F0.12280701754385964
F3924.5360964736587
tp684
a(F0.12262773722627737
F3931.529609034312
tp685
a(F0.12244897959183673
F3938.904227822956
tp686
a(F0.1222707423580786
F3946.0950423044455
tp687
a(F0.12209302325581395
F3953.1664397276245
tp688
a(F0.12191582002902758
F3960.1155586988984
tp689
a(F0.12173913043478261
F3967.299291656587
tp690
a(F0.12156295224312591
F3974.4238164358685
tp691
a(F0.12138728323699421
F3981.641953857049
tp692
a(F0.12121212121212122
F3988.9440613213137
tp693
a(F0.12103746397694524
F3996.000324611773
tp694
a(F0.12086330935251799
F4003.20064149207
tp695
a(F0.1206896551724138
F4010.3286100279315
tp696
a(F0.12051649928263988
F4017.2235706504953
tp697
a(F0.12034383954154727
F4024.024376121911
tp698
a(F0.12017167381974249
F4031.3178400336997
tp699
a(F0.12
F4038.1956374790434
tp700
a(F0.11982881597717546
F4045.1379689426194
tp701
a(F0.11965811965811966
F4052.604416525743
tp702
a(F0.11948790896159317
F4059.3857433153644
tp703
a(F0.11931818181818182
F4066.414387169367
tp704
a(F0.11914893617021277
F4073.456839261802
tp705
a(F0.11898016997167139
F4080.443062516526
tp706
a(F0.1188118811881188
F4087.727181381235
tp707
a(F0.11864406779661017
F4094.4694675397145
tp708
a(F0.11847672778561354
F4101.598447123416
tp709
a(F0.11830985915492957
F4108.69764646383
tp710
a(F0.11814345991561181
F4115.620954383457
tp711
a(F0.11797752808988764
F4122.739165532488
tp712
a(F0.11781206171107994
F4129.7989231526735
tp713
a(F0.11764705882352941
F4136.825086880749
tp714
a(F0.11748251748251748
F4143.7647086714405
tp715
a(F0.11731843575418995
F4150.5893160647465
tp716
a(F0.11715481171548117
F4157.70268757101
tp717
a(F0.116991643454039
F4164.535743897354
tp718
a(F0.1168289290681502
F4171.59179456817
tp719
a(F0.11666666666666667
F4178.7809681888275
tp720
a(F0.11650485436893204
F4186.101066012281
tp721
a(F0.11634349030470914
F4193.113215782176
tp722
a(F0.11618257261410789
F4200.1664401319085
tp723
a(F0.11602209944751381
F4207.12522992104
tp724
a(F0.11586206896551725
F4214.337631577827
tp725
a(F0.11570247933884298
F4221.450331862508
tp726
a(F0.1155433287482806
F4228.792304863447
tp727
a(F0.11538461538461539
F4236.107978980449
tp728
a(F0.11522633744855967
F4243.302329772851
tp729
a(F0.11506849315068493
F4250.330105157585
tp730
a(F0.11491108071135431
F4257.36273941877
tp731
a(F0.11475409836065574
F4264.535644056062
tp732
a(F0.1145975443383356
F4271.627737736527
tp733
a(F0.11444141689373297
F4278.532402001339
tp734
a(F0.11428571428571428
F4285.411857780068
tp735
a(F0.11413043478260869
F4292.7835523308395
tp736
a(F0.11397557666214382
F4299.990940776929
tp737
a(F0.11382113821138211
F4306.847393921785
tp738
a(F0.11366711772665765
F4313.944765392115
tp739
a(F0.11351351351351352
F4321.023368573467
tp740
a(F0.11336032388663968
F4328.1286975810035
tp741
a(F0.11320754716981132
F4334.895089611356
tp742
a(F0.11305518169582772
F4342.060073962995
tp743
a(F0.11290322580645161
F4349.022238648016
tp744
a(F0.11275167785234899
F4356.243411750832
tp745
a(F0.1126005361930295
F4363.149953042511
tp746
a(F0.11244979919678715
F4370.442220521541
tp747
a(F0.11229946524064172
F4377.300007598368
tp748
a(F0.11214953271028037
F4384.528624562205
tp749
a(F0.112
F4391.352581418503
tp750
a(F0.1118508655126498
F4397.959189863568
tp751
a(F0.11170212765957446
F4404.886957594737
tp752
a(F0.11155378486055777
F4412.081976993692
tp753
a(F0.11140583554376658
F4419.074485668
tp754
a(F0.11125827814569536
F4426.326664668854
tp755
a(F0.1111111111111111
F4433.251614434601
tp756
a(F0.11096433289299867
F4440.5832430158725
tp757
a(F0.11081794195250659
F4447.624165186032
tp758
a(F0.11067193675889328
F4454.643074060545
tp759
a(F0.11052631578947368
F4461.837491778744
tp760
a(F0.11038107752956636
F4469.258789374154
tp761
a(F0.11023622047244094
F4476.341950255216
tp762
a(F0.11009174311926606
F4483.453623027191
tp763
a(F0.1099476439790576
F4490.53326345005
tp764
a(F0.10980392156862745
F4497.73154813211
tp765
a(F0.10966057441253264
F4504.805290382974
tp766
a(F0.10951760104302477
F4511.887943699538
tp767
a(F0.109375
F4518.996280233174
tp768
a(F0.10923276983094929
F4526.134731532608
tp769
a(F0.10909090909090909
F4533.246509504724
tp770
a(F0.10894941634241245
F4540.378708167998
tp771
a(F0.10880829015544041
F4547.599295022119
tp772
a(F0.10866752910737387
F4554.809873353859
tp773
a(F0.10852713178294573
F4561.981081481924
tp774
a(F0.10838709677419354
F4569.417219742607
tp775
a(F0.10824742268041238
F4576.58220951677
tp776
a(F0.10810810810810811
F4583.684427452704
tp777
a(F0.10796915167095116
F4591.087767713104
tp778
a(F0.10783055198973042
F4598.3513838807
tp779
a(F0.1076923076923077
F4605.515669078401
tp780
a(F0.10755441741357234
F4612.583734058376
tp781
a(F0.10741687979539642
F4619.9729567826425
tp782
a(F0.10727969348659004
F4626.922616410005
tp783
a(F0.10714285714285714
F4634.265032414541
tp784
a(F0.1070063694267516
F4641.360399531463
tp785
a(F0.10687022900763359
F4648.6091648947995
tp786
a(F0.10673443456162643
F4655.979694937776
tp787
a(F0.1065989847715736
F4663.083648855399
tp788
a(F0.10646387832699619
F4670.247928717489
tp789
a(F0.10632911392405063
F4677.622812258948
tp790
a(F0.10619469026548672
F4684.842794820876
tp791
a(F0.10606060606060606
F4691.916550766642
tp792
a(F0.10592686002522068
F4699.3172504888735
tp793
a(F0.10579345088161209
F4706.483228881094
tp794
a(F0.10566037735849057
F4713.648082419606
tp795
a(F0.10552763819095477
F4720.503697012727
tp796
a(F0.1053952321204517
F4727.818320850115
tp797
a(F0.10526315789473684
F4734.826275482604
tp798
a(F0.10513141426783479
F4741.818577957114
tp799
a(F0.105
F4748.937104846127
tp800
a(F0.10486891385767791
F4756.009194867116
tp801
a(F0.10473815461346633
F4763.166010083081
tp802
a(F0.10460772104607721
F4770.496713911532
tp803
a(F0.1044776119402985
F4777.34385337329
tp804
a(F0.10434782608695652
F4784.745557760061
tp805
a(F0.10421836228287841
F4791.9995325495065
tp806
a(F0.10408921933085502
F4799.128013343537
tp807
a(F0.10396039603960396
F4806.204334759591
tp808
a(F0.103831891223733
F4813.175659599611
tp809
a(F0.1037037037037037
F4820.198362597912
tp810
a(F0.10357583230579531
F4827.510206153294
tp811
a(F0.10344827586206896
F4834.535353354227
tp812
a(F0.1033210332103321
F4841.435466556765
tp813
a(F0.10319410319410319
F4848.6336947463315
tp814
a(F0.10306748466257669
F4856.031394596777
tp815
a(F0.10294117647058823
F4863.160319491343
tp816
a(F0.10281517747858017
F4870.376922623357
tp817
a(F0.10268948655256724
F4877.660119239025
tp818
a(F0.10256410256410256
F4884.519006486047
tp819
a(F0.1024390243902439
F4891.547797818486
tp820
a(F0.1023142509135201
F4898.5445611452105
tp821
a(F0.10218978102189781
F4905.41147412233
tp822
a(F0.10206561360874848
F4912.564392030669
tp823
a(F0.10194174757281553
F4919.569530739468
tp824
a(F0.10181818181818182
F4926.716012403224
tp825
a(F0.1016949152542373
F4933.86544509906
tp826
a(F0.10157194679564692
F4940.606758853108
tp827
a(F0.10144927536231885
F4947.765746943798
tp828
a(F0.10132689987937274
F4954.955831291904
tp829
a(F0.10120481927710843
F4962.04464499007
tp830
a(F0.10108303249097472
F4969.427065768822
tp831
a(F0.10096153846153846
F4976.319101722589
tp832
a(F0.10084033613445378
F4983.569687512539
tp833
a(F0.10071942446043165
F4990.699555944599
tp834
a(F0.10059880239520957
F4997.726581182761
tp835
a(F0.10047846889952153
F5004.698178072556
tp836
a(F0.1003584229390681
F5011.78420738772
tp837
a(F0.10023866348448687
F5018.965357786565
tp838
a(F0.10011918951132301
F5026.05314313746
tp839
a(F0.1
F5033.004636268421
tp840
a(F0.09988109393579073
F5040.02621016396
tp841
a(F0.0997624703087886
F5047.449496039375
tp842
a(F0.099644128113879
F5054.642011019618
tp843
a(F0.0995260663507109
F5061.648177483033
tp844
a(F0.09940828402366864
F5068.842535199967
tp845
a(F0.09929078014184398
F5076.116219180014
tp846
a(F0.09917355371900827
F5082.979015771605
tp847
a(F0.09905660377358491
F5090.175521539036
tp848
a(F0.0989399293286219
F5097.39156302429
tp849
a.