(lp0
(F84.0
F0.0
tp1
a(F42.0
F0.0
tp2
a(F28.0
F0.0
tp3
a(F21.0
F0.4149561495959101
tp4
a(F16.8
F0.50332434036784
tp5
a(F14.0
F0.5351929919291019
tp6
a(F12.0
F0.6169482408440734
tp7
a(F10.5
F0.7440266897501379
tp8
a(F9.333333333333334
F0.8636408635606195
tp9
a(F8.4
F0.9781022368098906
tp10
a(F7.636363636363637
F1.1224162424855775
tp11
a(F7.0
F1.2814027567781805
tp12
a(F6.461538461538462
F1.4317087818399201
tp13
a(F6.0
F1.5998426871500975
tp14
a(F5.6
F1.7715218352933997
tp15
a(F5.25
F1.9509988883963334
tp16
a(F4.9411764705882355
F2.1350354727546317
tp17
a(F4.666666666666667
F2.3198214017874457
tp18
a(F4.421052631578948
F2.51691005910306
tp19
a(F4.2
F2.7207438196450497
tp20
a(F4.0
F2.9251881756342524
tp21
a(F3.8181818181818183
F3.1380679758695296
tp22
a(F3.652173913043478
F3.354146913861386
tp23
a(F3.5
F3.574967031987066
tp24
a(F3.36
F3.8014144307872435
tp25
a(F3.230769230769231
F4.02984128827942
tp26
a(F3.111111111111111
F4.266802447106496
tp27
a(F3.0
F4.506038903094792
tp28
a(F2.896551724137931
F4.749669170215829
tp29
a(F2.8
F4.99790581593234
tp30
a(F2.7096774193548385
F5.250620390737378
tp31
a(F2.625
F5.509114125069745
tp32
a(F2.5454545454545454
F5.769703106107499
tp33
a(F2.4705882352941178
F6.034261496901554
tp34
a(F2.4
F6.303648033754259
tp35
a(F2.3333333333333335
F6.577606893777235
tp36
a(F2.27027027027027
F6.855591859504946
tp37
a(F2.210526315789474
F7.13737918140214
tp38
a(F2.1538461538461537
F7.42439759221343
tp39
a(F2.1
F7.713974764668074
tp40
a(F2.048780487804878
F8.005741426315131
tp41
a(F2.0
F8.302903107487534
tp42
a(F1.9534883720930232
F8.603435433113525
tp43
a(F1.9090909090909092
F8.909085954962775
tp44
a(F1.8666666666666667
F9.21592175072439
tp45
a(F1.826086956521739
F9.52743294688728
tp46
a(F1.7872340425531914
F9.84578177034716
tp47
a(F1.75
F10.1650533694656
tp48
a(F1.7142857142857142
F10.48837458028222
tp49
a(F1.68
F10.815566116550889
tp50
a(F1.6470588235294117
F11.1485071378186
tp51
a(F1.6153846153846154
F11.483811800265244
tp52
a(F1.5849056603773586
F11.823748539361057
tp53
a(F1.5555555555555556
F12.167752801778134
tp54
a(F1.5272727272727273
F12.518288200712863
tp55
a(F1.5
F12.869984858669596
tp56
a(F1.4736842105263157
F13.224949762781554
tp57
a(F1.4482758620689655
F13.585333159627785
tp58
a(F1.423728813559322
F13.950169934866532
tp59
a(F1.4
F14.317351668669573
tp60
a(F1.3770491803278688
F14.691008623500581
tp61
a(F1.3548387096774193
F15.067148907054895
tp62
a(F1.3333333333333333
F15.44864370750399
tp63
a(F1.3125
F15.842554408282039
tp64
a(F1.2923076923076924
F15.803268445307562
tp65
a(F1.2727272727272727
F15.810076063364857
tp66
a(F1.2537313432835822
F15.922995964653527
tp67
a(F1.2352941176470589
F16.19216540981051
tp68
a(F1.2173913043478262
F16.70926767597997
tp69
a(F1.2
F17.47393499038917
tp70
a(F1.1830985915492958
F18.569197491885184
tp71
a(F1.1666666666666667
F19.920267536933885
tp72
a(F1.1506849315068493
F21.579972548494887
tp73
a(F1.135135135135135
F23.54529302461017
tp74
a(F1.12
F27.239778981828778
tp75
a(F1.105263157894737
F28.952042915114788
tp76
a(F1.0909090909090908
F31.50513697360617
tp77
a(F1.0769230769230769
F34.26376485681286
tp78
a(F1.0632911392405062
F37.21246246802833
tp79
a(F1.05
F43.19893922473453
tp80
a(F1.037037037037037
F44.58088916542247
tp81
a(F1.024390243902439
F47.0242694361805
tp82
a(F1.0120481927710843
F49.59606839246162
tp83
a(F1.0
F52.27268347921326
tp84
a(F0.9882352941176471
F55.04153639064239
tp85
a(F0.9767441860465116
F57.90999943059158
tp86
a(F0.9655172413793104
F60.857518764879124
tp87
a(F0.9545454545454546
F63.87667631102626
tp88
a(F0.9438202247191011
F66.96820154191226
tp89
a(F0.9333333333333333
F70.13762151205229
tp90
a(F0.9230769230769231
F73.35226946960161
tp91
a(F0.9130434782608695
F76.6132410837132
tp92
a(F0.9032258064516129
F79.93903572543212
tp93
a(F0.8936170212765957
F83.29067802749111
tp94
a(F0.8842105263157894
F86.37177884899747
tp95
a(F0.875
F91.22366115476738
tp96
a(F0.865979381443299
F94.5305932446964
tp97
a(F0.8571428571428571
F97.9075507089088
tp98
a(F0.8484848484848485
F101.33285055427703
tp99
a(F0.84
F104.75411642263526
tp100
a(F0.8316831683168316
F108.21229997212156
tp101
a(F0.8235294117647058
F111.71677748273636
tp102
a(F0.8155339805825242
F115.22992845897775
tp103
a(F0.8076923076923077
F118.78880342012734
tp104
a(F0.8
F122.3735998255165
tp105
a(F0.7924528301886793
F125.94143126235369
tp106
a(F0.7850467289719626
F129.553979849803
tp107
a(F0.7777777777777778
F133.16770509437868
tp108
a(F0.7706422018348624
F136.80109947566135
tp109
a(F0.7636363636363637
F139.17233677218687
tp110
a(F0.7567567567567568
F146.24002907708154
tp111
a(F0.75
F149.8161836112552
tp112
a(F0.7433628318584071
F153.37909034060166
tp113
a(F0.7368421052631579
F156.96670897600455
tp114
a(F0.7304347826086957
F160.5707975077611
tp115
a(F0.7241379310344828
F164.22340473004508
tp116
a(F0.717948717948718
F167.87256467245717
tp117
a(F0.711864406779661
F171.54893080560382
tp118
a(F0.7058823529411765
F175.2232045126893
tp119
a(F0.7
F178.92364287750877
tp120
a(F0.6942148760330579
F182.63882280601058
tp121
a(F0.6885245901639344
F186.3356734208128
tp122
a(F0.6829268292682927
F190.02058849781326
tp123
a(F0.6774193548387096
F193.75369425918666
tp124
a(F0.672
F197.5879211879275
tp125
a(F0.6666666666666666
F202.60233170175985
tp126
a(F0.6614173228346457
F206.3200615889274
tp127
a(F0.65625
F210.02961911462515
tp128
a(F0.6511627906976745
F213.79034510631885
tp129
a(F0.6461538461538462
F217.54719548421008
tp130
a(F0.6412213740458015
F221.31360132260997
tp131
a(F0.6363636363636364
F225.07674564209375
tp132
a(F0.631578947368421
F228.8745165547642
tp133
a(F0.6268656716417911
F232.6979279281513
tp134
a(F0.6222222222222222
F236.50906110207404
tp135
a(F0.6176470588235294
F240.37963734424397
tp136
a(F0.6131386861313869
F244.25327803150108
tp137
a(F0.6086956521739131
F248.1190223789411
tp138
a(F0.60431654676259
F251.98173169496368
tp139
a(F0.6
F255.90183625582353
tp140
a(F0.5957446808510638
F259.83373816427456
tp141
a(F0.5915492957746479
F263.7168862922864
tp142
a(F0.5874125874125874
F267.6438660954125
tp143
a(F0.5833333333333334
F271.5929494531438
tp144
a(F0.5793103448275863
F275.56574740591907
tp145
a(F0.5753424657534246
F279.5755300794229
tp146
a(F0.5714285714285714
F283.54578593799977
tp147
a(F0.5675675675675675
F287.5542428982283
tp148
a(F0.5637583892617449
F291.5697288674852
tp149
a(F0.56
F295.55613797652694
tp150
a(F0.5562913907284768
F299.5622916121609
tp151
a(F0.5526315789473685
F303.64824610512517
tp152
a(F0.5490196078431373
F307.6539296592574
tp153
a(F0.5454545454545454
F311.63599184919906
tp154
a(F0.5419354838709678
F316.4637296891814
tp155
a(F0.5384615384615384
F322.1244799926595
tp156
a(F0.535031847133758
F326.12295036737925
tp157
a(F0.5316455696202531
F330.16168522063896
tp158
a(F0.5283018867924528
F334.1745027421872
tp159
a(F0.525
F338.1850001115952
tp160
a(F0.5217391304347826
F342.26463549297307
tp161
a(F0.5185185185185185
F346.3384843686451
tp162
a(F0.5153374233128835
F350.374262207673
tp163
a(F0.5121951219512195
F354.4354762508533
tp164
a(F0.509090909090909
F358.5576788344881
tp165
a(F0.5060240963855421
F362.6210352582008
tp166
a(F0.5029940119760479
F366.7159165523241
tp167
a(F0.5
F370.8463241776705
tp168
a(F0.4970414201183432
F374.9910133231484
tp169
a(F0.49411764705882355
F379.183930936308
tp170
a(F0.49122807017543857
F383.40926936092484
tp171
a(F0.4883720930232558
F387.6148140707506
tp172
a(F0.48554913294797686
F391.73499828257735
tp173
a(F0.4827586206896552
F395.96465405209676
tp174
a(F0.48
F400.12096783193886
tp175
a(F0.4772727272727273
F404.340058987686
tp176
a(F0.4745762711864407
F408.53155560570735
tp177
a(F0.47191011235955055
F412.6947231234814
tp178
a(F0.4692737430167598
F416.86943493416106
tp179
a(F0.4666666666666667
F421.0604552511235
tp180
a(F0.46408839779005523
F425.23283472890904
tp181
a(F0.46153846153846156
F429.45871846603313
tp182
a(F0.45901639344262296
F433.6461247913655
tp183
a(F0.45652173913043476
F437.8617314755978
tp184
a(F0.4540540540540541
F443.9978998689582
tp185
a(F0.45161290322580644
F451.15628720016673
tp186
a(F0.44919786096256686
F455.3130595231231
tp187
a(F0.44680851063829785
F459.50628380996665
tp188
a(F0.4444444444444444
F463.6239912629858
tp189
a(F0.4421052631578947
F467.79153468283886
tp190
a(F0.4397905759162304
F471.9644250162286
tp191
a(F0.4375
F476.1449805874964
tp192
a(F0.43523316062176165
F480.39595725500556
tp193
a(F0.4329896907216495
F484.6852415362343
tp194
a(F0.4307692307692308
F488.88602247539336
tp195
a(F0.42857142857142855
F493.13595668908596
tp196
a(F0.4263959390862944
F497.4095135263158
tp197
a(F0.42424242424242425
F501.67707486649914
tp198
a(F0.4221105527638191
F505.9484558166585
tp199
a(F0.42
F510.28276002958637
tp200
a(F0.417910447761194
F514.6484414670515
tp201
a(F0.4158415841584158
F518.9045751475943
tp202
a(F0.41379310344827586
F523.2076625903348
tp203
a(F0.4117647058823529
F527.5295187886575
tp204
a(F0.4097560975609756
F531.8359809288801
tp205
a(F0.4077669902912621
F536.1868872492034
tp206
a(F0.4057971014492754
F540.5136995091974
tp207
a(F0.40384615384615385
F544.884109047871
tp208
a(F0.4019138755980861
F549.2277925681968
tp209
a(F0.4
F553.6037022455888
tp210
a(F0.3981042654028436
F557.997902853607
tp211
a(F0.39622641509433965
F562.3119361472727
tp212
a(F0.39436619718309857
F566.6879373767347
tp213
a(F0.3925233644859813
F571.0001143915763
tp214
a(F0.39069767441860465
F575.3663098786108
tp215
a(F0.3888888888888889
F579.7727562987803
tp216
a(F0.3870967741935484
F584.1694529228719
tp217
a(F0.3853211009174312
F588.515508934478
tp218
a(F0.3835616438356164
F592.8281980523606
tp219
a(F0.38181818181818183
F597.2023811811913
tp220
a(F0.38009049773755654
F601.5211027205315
tp221
a(F0.3783783783783784
F605.8801801332617
tp222
a(F0.37668161434977576
F610.2008286720787
tp223
a(F0.375
F614.5373306127207
tp224
a(F0.37333333333333335
F618.9317393711572
tp225
a(F0.37168141592920356
F623.2506330039976
tp226
a(F0.3700440528634361
F627.6373958647849
tp227
a(F0.3684210526315789
F632.0439859133973
tp228
a(F0.36681222707423583
F636.4744825807508
tp229
a(F0.3652173913043478
F640.9130520774885
tp230
a(F0.36363636363636365
F645.359821871435
tp231
a(F0.3620689655172414
F649.7881470789916
tp232
a(F0.3605150214592275
F654.1972187880914
tp233
a(F0.358974358974359
F658.5705720172033
tp234
a(F0.3574468085106383
F662.8905422204035
tp235
a(F0.3559322033898305
F667.3649138785677
tp236
a(F0.35443037974683544
F671.8103623367663
tp237
a(F0.35294117647058826
F676.2187409519522
tp238
a(F0.3514644351464435
F680.6351398857205
tp239
a(F0.35
F685.0325996384225
tp240
a(F0.34854771784232363
F689.5481979736658
tp241
a(F0.34710743801652894
F694.0668706426483
tp242
a(F0.345679012345679
F698.557597533961
tp243
a(F0.3442622950819672
F703.106752318674
tp244
a(F0.34285714285714286
F707.5677040707509
tp245
a(F0.34146341463414637
F712.048398186645
tp246
a(F0.340080971659919
F716.4969940041278
tp247
a(F0.3387096774193548
F720.9452293785591
tp248
a(F0.3373493975903614
F725.4170088491077
tp249
a(F0.336
F729.8630126454826
tp250
a(F0.3346613545816733
F734.3734018492733
tp251
a(F0.3333333333333333
F738.9621228090843
tp252
a(F0.33201581027667987
F743.4918982342584
tp253
a(F0.33070866141732286
F747.9982724275973
tp254
a(F0.32941176470588235
F752.4834451374509
tp255
a(F0.328125
F756.9615968589309
tp256
a(F0.32684824902723736
F761.4177969574683
tp257
a(F0.32558139534883723
F765.9885317688137
tp258
a(F0.32432432432432434
F770.5716499971479
tp259
a(F0.3230769230769231
F775.1521752473965
tp260
a(F0.3218390804597701
F779.7132583709572
tp261
a(F0.32061068702290074
F784.2050419860674
tp262
a(F0.3193916349809886
F788.6397136324068
tp263
a(F0.3181818181818182
F793.3211723837771
tp264
a(F0.3169811320754717
F797.8650656662504
tp265
a(F0.3157894736842105
F802.4602605976286
tp266
a(F0.3146067415730337
F807.0504094694102
tp267
a(F0.31343283582089554
F811.6625841478943
tp268
a(F0.31226765799256506
F816.2610630798752
tp269
a(F0.3111111111111111
F820.7679649452385
tp270
a(F0.30996309963099633
F825.3422387535037
tp271
a(F0.3088235294117647
F829.8983395569464
tp272
a(F0.3076923076923077
F834.5597510069889
tp273
a(F0.30656934306569344
F839.0943073714387
tp274
a(F0.3054545454545455
F843.6444907031391
tp275
a(F0.30434782608695654
F848.1139084171936
tp276
a(F0.30324909747292417
F852.6433538837726
tp277
a(F0.302158273381295
F857.0870139258737
tp278
a(F0.3010752688172043
F861.6557472229954
tp279
a(F0.3
F866.2525541376751
tp280
a(F0.298932384341637
F870.7356412912811
tp281
a(F0.2978723404255319
F875.3801175518705
tp282
a(F0.2968197879858657
F879.9818288739153
tp283
a(F0.29577464788732394
F884.5334740096087
tp284
a(F0.29473684210526313
F889.0487560060758
tp285
a(F0.2937062937062937
F893.6417555717577
tp286
a(F0.2926829268292683
F898.1631647307906
tp287
a(F0.2916666666666667
F902.8333381898441
tp288
a(F0.2906574394463668
F907.4648065332724
tp289
a(F0.2896551724137931
F912.013160007514
tp290
a(F0.28865979381443296
F916.5785179508925
tp291
a(F0.2876712328767123
F921.1859192111701
tp292
a(F0.28668941979522183
F925.9209477577008
tp293
a(F0.2857142857142857
F930.5856452447897
tp294
a(F0.2847457627118644
F935.2848337762082
tp295
a(F0.28378378378378377
F939.9350938766299
tp296
a(F0.2828282828282828
F944.5805250876014
tp297
a(F0.28187919463087246
F949.2086659231121
tp298
a(F0.2809364548494983
F953.907904468862
tp299
a(F0.28
F958.4611012156995
tp300
a(F0.27906976744186046
F963.155053785573
tp301
a(F0.2781456953642384
F967.7915520988006
tp302
a(F0.27722772277227725
F972.5114555093139
tp303
a(F0.27631578947368424
F977.3422375983062
tp304
a(F0.2754098360655738
F1069.815273803668
tp305
a(F0.27450980392156865
F1041.9296798959479
tp306
a(F0.2736156351791531
F1046.3206830278402
tp307
a(F0.2727272727272727
F1050.7534943888284
tp308
a(F0.27184466019417475
F1055.2009948795971
tp309
a(F0.2709677419354839
F1059.46841676173
tp310
a(F0.27009646302250806
F1063.872946642463
tp311
a(F0.2692307692307692
F1068.3518809909524
tp312
a(F0.268370607028754
F1072.7274096021397
tp313
a(F0.267515923566879
F1077.1939820429077
tp314
a(F0.26666666666666666
F1081.4642734254253
tp315
a(F0.26582278481012656
F1085.8473633632889
tp316
a(F0.26498422712933756
F1090.3230326525247
tp317
a(F0.2641509433962264
F1094.6075873634873
tp318
a(F0.26332288401253917
F1098.9933397935943
tp319
a(F0.2625
F1103.3674380180662
tp320
a(F0.2616822429906542
F1107.708594196591
tp321
a(F0.2608695652173913
F1112.2028781991785
tp322
a(F0.26006191950464397
F1116.6356945522543
tp323
a(F0.25925925925925924
F1121.014327926623
tp324
a(F0.25846153846153846
F1125.3488330352243
tp325
a(F0.25766871165644173
F1129.6333643730547
tp326
a(F0.25688073394495414
F1133.9573015923204
tp327
a(F0.25609756097560976
F1138.296219888874
tp328
a(F0.2553191489361702
F1142.8986389049737
tp329
a(F0.2545454545454545
F1147.2237914237696
tp330
a(F0.2537764350453172
F1151.653051361727
tp331
a(F0.25301204819277107
F1156.0610452572846
tp332
a(F0.25225225225225223
F1160.5003533858082
tp333
a(F0.25149700598802394
F1164.8059161193887
tp334
a(F0.2507462686567164
F1169.2977685346837
tp335
a(F0.25
F1173.7769144877927
tp336
a(F0.24925816023738873
F1178.2468065543526
tp337
a(F0.2485207100591716
F1182.7215959958432
tp338
a(F0.24778761061946902
F1187.199851080411
tp339
a(F0.24705882352941178
F1191.6431757732823
tp340
a(F0.24633431085043989
F1196.079707462901
tp341
a(F0.24561403508771928
F1200.5457558847106
tp342
a(F0.24489795918367346
F1205.105842305551
tp343
a(F0.2441860465116279
F1209.5727966331829
tp344
a(F0.24347826086956523
F1214.0929977928229
tp345
a(F0.24277456647398843
F1218.586822200454
tp346
a(F0.2420749279538905
F1223.0423598827742
tp347
a(F0.2413793103448276
F1227.5209418679265
tp348
a(F0.24068767908309455
F1231.9847869849302
tp349
a(F0.24
F1236.4955578728875
tp350
a(F0.23931623931623933
F1241.093074786061
tp351
a(F0.23863636363636365
F1245.5951835516494
tp352
a(F0.23796033994334279
F1250.0755492495637
tp353
a(F0.23728813559322035
F1254.4725540462625
tp354
a(F0.23661971830985915
F1259.0247754324425
tp355
a(F0.23595505617977527
F1263.606406920449
tp356
a(F0.23529411764705882
F1268.0542223054383
tp357
a(F0.2346368715083799
F1272.4479903583324
tp358
a(F0.233983286908078
F1277.0296955216331
tp359
a(F0.23333333333333334
F1281.6549577733385
tp360
a(F0.23268698060941828
F1285.9454944041186
tp361
a(F0.23204419889502761
F1290.4747859199429
tp362
a(F0.23140495867768596
F1294.8218212546044
tp363
a(F0.23076923076923078
F1299.4722375665776
tp364
a(F0.23013698630136986
F1304.0151864501775
tp365
a(F0.22950819672131148
F1308.5478885525772
tp366
a(F0.22888283378746593
F1312.9764699646184
tp367
a(F0.22826086956521738
F1317.4405708649092
tp368
a(F0.22764227642276422
F1321.9651887452794
tp369
a(F0.22702702702702704
F1326.4769497687228
tp370
a(F0.22641509433962265
F1330.986821075368
tp371
a(F0.22580645161290322
F1335.556721579383
tp372
a(F0.225201072386059
F1339.9549549996373
tp373
a(F0.22459893048128343
F1344.458465802989
tp374
a(F0.224
F1348.946263017782
tp375
a(F0.22340425531914893
F1353.3473535680675
tp376
a(F0.22281167108753316
F1357.8630842225275
tp377
a(F0.2222222222222222
F1362.3638018108052
tp378
a(F0.22163588390501318
F1366.8458823004264
tp379
a(F0.22105263157894736
F1371.4132234069334
tp380
a(F0.2204724409448819
F1375.9961604346838
tp381
a(F0.2198952879581152
F1380.5359879919129
tp382
a(F0.2193211488250653
F1385.0460733967818
tp383
a(F0.21875
F1389.5931850744182
tp384
a(F0.21818181818181817
F1394.0970009895025
tp385
a(F0.21761658031088082
F1398.6446298822068
tp386
a(F0.21705426356589147
F1403.1103407207731
tp387
a(F0.21649484536082475
F1407.6399438183785
tp388
a(F0.2159383033419023
F1412.0695007241272
tp389
a(F0.2153846153846154
F1416.7502472195165
tp390
a(F0.21483375959079284
F1421.2091590857096
tp391
a(F0.21428571428571427
F1425.5947656680596
tp392
a(F0.21374045801526717
F1430.165179335332
tp393
a(F0.2131979695431472
F1434.6392089821045
tp394
a(F0.21265822784810126
F1439.1750488697492
tp395
a(F0.21212121212121213
F1443.6130035518393
tp396
a(F0.21158690176322417
F1447.9645780131227
tp397
a(F0.21105527638190955
F1452.494809103985
tp398
a(F0.21052631578947367
F1456.9251962230928
tp399
a(F0.21
F1461.4897265624513
tp400
a(F0.20947630922693267
F1465.9254505583895
tp401
a(F0.208955223880597
F1470.4628987500141
tp402
a(F0.20843672456575682
F1474.9284802023628
tp403
a(F0.2079207920792079
F1479.4010562424132
tp404
a(F0.2074074074074074
F1483.9177305122826
tp405
a(F0.20689655172413793
F1488.4305513878935
tp406
a(F0.20638820638820637
F1493.0913739997993
tp407
a(F0.20588235294117646
F1497.5109042765894
tp408
a(F0.20537897310513448
F1502.0984808985534
tp409
a(F0.2048780487804878
F1506.5971369426832
tp410
a(F0.20437956204379562
F1510.9831082987034
tp411
a(F0.20388349514563106
F1515.775291709987
tp412
a(F0.2033898305084746
F1520.2839131426758
tp413
a(F0.2028985507246377
F1524.868233156356
tp414
a(F0.20240963855421687
F1529.3095436044798
tp415
a(F0.20192307692307693
F1533.872665861109
tp416
a(F0.2014388489208633
F1538.4546493273965
tp417
a(F0.20095693779904306
F1543.1465508903627
tp418
a(F0.20047732696897375
F1547.5805895733508
tp419
a(F0.2
F1552.2018620640488
tp420
a(F0.1995249406175772
F1556.7965324004072
tp421
a(F0.1990521327014218
F1561.299623315739
tp422
a(F0.19858156028368795
F1565.8314439003946
tp423
a(F0.19811320754716982
F1570.4384657629687
tp424
a(F0.1976470588235294
F1626.224322370603
tp425
a(F0.19718309859154928
F1624.3471192892612
tp426
a(F0.19672131147540983
F1628.7452548164788
tp427
a(F0.19626168224299065
F1633.1284605870483
tp428
a(F0.1958041958041958
F1637.6216876418607
tp429
a(F0.19534883720930232
F1642.0325571850854
tp430
a(F0.19489559164733178
F1646.5335442253208
tp431
a(F0.19444444444444445
F1650.9569822707524
tp432
a(F0.19399538106235567
F1655.405961596405
tp433
a(F0.1935483870967742
F1659.9543696085884
tp434
a(F0.19310344827586207
F1664.4259426309036
tp435
a(F0.1926605504587156
F1668.968808935433
tp436
a(F0.19221967963386727
F1673.3908154294631
tp437
a(F0.1917808219178082
F1677.767289165702
tp438
a(F0.19134396355353075
F1682.142788727103
tp439
a(F0.19090909090909092
F1686.5725889646624
tp440
a(F0.19047619047619047
F1691.0348048627613
tp441
a(F0.19004524886877827
F1695.4548350098419
tp442
a(F0.18961625282167044
F1699.8228257634935
tp443
a(F0.1891891891891892
F1704.2587844381098
tp444
a(F0.18876404494382024
F1708.6620977106447
tp445
a(F0.18834080717488788
F1713.1050720077671
tp446
a(F0.18791946308724833
F1717.6837124018489
tp447
a(F0.1875
F1722.0351883804224
tp448
a(F0.1870824053452116
F1726.507649064374
tp449
a(F0.18666666666666668
F1730.9029337969116
tp450
a(F0.18625277161862527
F1735.339573938069
tp451
a(F0.18584070796460178
F1739.573189527596
tp452
a(F0.18543046357615894
F1744.031606562296
tp453
a(F0.18502202643171806
F1748.3533623860149
tp454
a(F0.18461538461538463
F1752.809933446374
tp455
a(F0.18421052631578946
F1757.303398089853
tp456
a(F0.1838074398249453
F1761.8435872285843
tp457
a(F0.18340611353711792
F1766.1918730412626
tp458
a(F0.1830065359477124
F1770.7423302575626
tp459
a(F0.1826086956521739
F1775.1304038231542
tp460
a(F0.1822125813449024
F1779.57611392584
tp461
a(F0.18181818181818182
F1784.0819476727784
tp462
a(F0.18142548596112312
F1788.409828407257
tp463
a(F0.1810344827586207
F1792.8949321232742
tp464
a(F0.18064516129032257
F1797.294838085295
tp465
a(F0.18025751072961374
F1801.6983652893525
tp466
a(F0.17987152034261242
F1805.930491980738
tp467
a(F0.1794871794871795
F1810.4142929327372
tp468
a(F0.1791044776119403
F1814.8106645239409
tp469
a(F0.17872340425531916
F1819.2856022429107
tp470
a(F0.17834394904458598
F1823.6363035245745
tp471
a(F0.17796610169491525
F1828.076058363841
tp472
a(F0.17758985200845667
F1832.6107740753096
tp473
a(F0.17721518987341772
F1836.83813369591
tp474
a(F0.17684210526315788
F1841.2293864399653
tp475
a(F0.17647058823529413
F1845.6726407367662
tp476
a(F0.1761006289308176
F1850.166884706384
tp477
a(F0.17573221757322174
F1854.6381447280967
tp478
a(F0.17536534446764093
F1858.959624315928
tp479
a(F0.175
F1863.465177846253
tp480
a(F0.17463617463617465
F1867.9699788955766
tp481
a(F0.17427385892116182
F1872.3570146070479
tp482
a(F0.17391304347826086
F1876.7818169869563
tp483
a(F0.17355371900826447
F1881.2961422190917
tp484
a(F0.1731958762886598
F1885.734150634458
tp485
a(F0.1728395061728395
F1890.1164805329995
tp486
a(F0.17248459958932238
F1894.5042066823319
tp487
a(F0.1721311475409836
F1899.133078520723
tp488
a(F0.17177914110429449
F1903.6644281299832
tp489
a(F0.17142857142857143
F1908.1058450886292
tp490
a(F0.1710794297352342
F1912.8839253275132
tp491
a(F0.17073170731707318
F1917.3953700253517
tp492
a(F0.17038539553752535
F1921.8133925964137
tp493
a(F0.1700404858299595
F1926.4074169138867
tp494
a(F0.1696969696969697
F1930.763212160253
tp495
a(F0.1693548387096774
F1935.2138793565764
tp496
a(F0.16901408450704225
F1939.6863568644399
tp497
a(F0.1686746987951807
F1944.2408845561042
tp498
a(F0.1683366733466934
F1948.7445106333905
tp499
a(F0.168
F1953.1475153508118
tp500
a(F0.16766467065868262
F1957.644393646873
tp501
a(F0.16733067729083664
F1961.8840961493515
tp502
a(F0.16699801192842942
F1966.507727636538
tp503
a(F0.16666666666666666
F1971.0284062621865
tp504
a(F0.16633663366336635
F1975.5275241445033
tp505
a(F0.16600790513833993
F1979.997282618804
tp506
a(F0.16568047337278108
F1984.5568914752373
tp507
a(F0.16535433070866143
F1989.1488276844652
tp508
a(F0.1650294695481336
F1993.6378818305423
tp509
a(F0.16470588235294117
F1998.0953164981554
tp510
a(F0.1643835616438356
F2002.4958686550358
tp511
a(F0.1640625
F2006.9475849827052
tp512
a(F0.16374269005847952
F2011.4264638593734
tp513
a(F0.16342412451361868
F2015.95194492545
tp514
a(F0.16310679611650486
F2020.4056150253139
tp515
a(F0.16279069767441862
F2024.8237156078767
tp516
a(F0.16247582205029013
F2029.3100700075886
tp517
a(F0.16216216216216217
F2033.8169190384908
tp518
a(F0.16184971098265896
F2038.2526809555898
tp519
a(F0.16153846153846155
F2042.7401288216213
tp520
a(F0.16122840690978887
F2047.1563858966902
tp521
a(F0.16091954022988506
F2051.590754943797
tp522
a(F0.16061185468451242
F2056.003292824544
tp523
a(F0.16030534351145037
F2060.479461762082
tp524
a(F0.16
F2065.01582109947
tp525
a(F0.1596958174904943
F2069.5498264646653
tp526
a(F0.15939278937381404
F2073.9703716930258
tp527
a(F0.1590909090909091
F2078.4993263699057
tp528
a(F0.15879017013232513
F2083.0254252471937
tp529
a(F0.15849056603773584
F2087.5729635526327
tp530
a(F0.15819209039548024
F2091.9508938784743
tp531
a(F0.15789473684210525
F2096.5030103413646
tp532
a(F0.1575984990619137
F2100.82247700791
tp533
a(F0.15730337078651685
F2105.412803612757
tp534
a(F0.15700934579439252
F2109.8706011200675
tp535
a(F0.15671641791044777
F2114.1973949579315
tp536
a(F0.1564245810055866
F2118.746594884748
tp537
a(F0.15613382899628253
F2123.173981833546
tp538
a(F0.15584415584415584
F2127.570107251155
tp539
a(F0.15555555555555556
F2132.128165155361
tp540
a(F0.15526802218114602
F2136.546825527219
tp541
a(F0.15498154981549817
F2141.164874968614
tp542
a(F0.15469613259668508
F2145.647011541926
tp543
a(F0.15441176470588236
F2150.3221392610744
tp544
a(F0.15412844036697249
F2193.137286285678
tp545
a(F0.15384615384615385
F2197.901758148151
tp546
a(F0.15356489945155394
F2202.1346845349995
tp547
a(F0.15328467153284672
F2206.3826991071714
tp548
a(F0.15300546448087432
F2210.555035465653
tp549
a(F0.15272727272727274
F2214.9274160348978
tp550
a(F0.15245009074410162
F2219.264201852392
tp551
a(F0.15217391304347827
F2223.5424080890443
tp552
a(F0.1518987341772152
F2227.902544256498
tp553
a(F0.15162454873646208
F2232.3032599773337
tp554
a(F0.15135135135135136
F2236.63835859937
tp555
a(F0.1510791366906475
F2240.938219237959
tp556
a(F0.15080789946140036
F2245.234993350631
tp557
a(F0.15053763440860216
F2249.622269181601
tp558
a(F0.15026833631484796
F2253.980781594772
tp559
a(F0.15
F2258.3724885287756
tp560
a(F0.1497326203208556
F2262.8163108725926
tp561
a(F0.1494661921708185
F2267.194012911978
tp562
a(F0.1492007104795737
F2271.560484445971
tp563
a(F0.14893617021276595
F2275.999468052128
tp564
a(F0.1486725663716814
F2280.332160617711
tp565
a(F0.14840989399293286
F2284.6809391811335
tp566
a(F0.14814814814814814
F2289.1557899716295
tp567
a(F0.14788732394366197
F2293.373403512644
tp568
a(F0.14762741652021089
F2297.8387464977445
tp569
a(F0.14736842105263157
F2302.213123428738
tp570
a(F0.14711033274956217
F2306.5618185504322
tp571
a(F0.14685314685314685
F2310.9483008861516
tp572
a(F0.14659685863874344
F2315.2892794479612
tp573
a(F0.14634146341463414
F2319.7790903787118
tp574
a(F0.14608695652173914
F2324.0232971077166
tp575
a(F0.14583333333333334
F2328.3541932351995
tp576
a(F0.14558058925476602
F2332.7539569469295
tp577
a(F0.1453287197231834
F2337.0778046500204
tp578
a(F0.14507772020725387
F2341.4731791074664
tp579
a(F0.14482758620689656
F2345.7535736848336
tp580
a(F0.14457831325301204
F2350.0173958058863
tp581
a(F0.14432989690721648
F2354.281420588861
tp582
a(F0.14408233276157806
F2358.6604865364548
tp583
a(F0.14383561643835616
F2363.015130106892
tp584
a(F0.14358974358974358
F2367.419496382762
tp585
a(F0.14334470989761092
F2371.7238659718714
tp586
a(F0.14310051107325383
F2375.935712439096
tp587
a(F0.14285714285714285
F2380.2781662177117
tp588
a(F0.14261460101867574
F2384.647710674262
tp589
a(F0.1423728813559322
F2388.9825989401825
tp590
a(F0.14213197969543148
F2393.315616907332
tp591
a(F0.14189189189189189
F2397.6495236394726
tp592
a(F0.14165261382799327
F2401.864285475153
tp593
a(F0.1414141414141414
F2406.1446063615763
tp594
a(F0.1411764705882353
F2410.4642996199414
tp595
a(F0.14093959731543623
F2414.6872124490455
tp596
a(F0.1407035175879397
F2419.076602193709
tp597
a(F0.14046822742474915
F2423.352684026781
tp598
a(F0.14023372287145242
F2427.8121731124534
tp599
a(F0.14
F2432.0464603635364
tp600
a(F0.13976705490848584
F2436.3568878227943
tp601
a(F0.13953488372093023
F2440.874955362235
tp602
a(F0.13930348258706468
F2445.1126430139975
tp603
a(F0.1390728476821192
F2449.491576668376
tp604
a(F0.13884297520661157
F2453.8396799613124
tp605
a(F0.13861386138613863
F2458.2001514011113
tp606
a(F0.13838550247116968
F2462.5999066918384
tp607
a(F0.13815789473684212
F2466.9063051585126
tp608
a(F0.13793103448275862
F2471.172540633974
tp609
a(F0.1377049180327869
F2475.4935523189024
tp610
a(F0.13747954173486088
F2479.925626490703
tp611
a(F0.13725490196078433
F2484.3284692961465
tp612
a(F0.1370309951060359
F2488.6102252683722
tp613
a(F0.13680781758957655
F2492.8879104786683
tp614
a(F0.13658536585365855
F2497.240179709548
tp615
a(F0.13636363636363635
F2501.5253358207565
tp616
a(F0.13614262560777957
F2505.75324264287
tp617
a(F0.13592233009708737
F2510.1975596509783
tp618
a(F0.13570274636510501
F2514.4106227839757
tp619
a(F0.13548387096774195
F2518.735494754646
tp620
a(F0.13526570048309178
F2523.0485209609833
tp621
a(F0.13504823151125403
F2527.4778421585484
tp622
a(F0.1348314606741573
F2531.732204279876
tp623
a(F0.1346153846153846
F2535.921830119253
tp624
a(F0.1344
F2540.320200403857
tp625
a(F0.134185303514377
F2544.7646699061875
tp626
a(F0.1339712918660287
F2549.10672927117
tp627
a(F0.1337579617834395
F2553.726902994375
tp628
a(F0.13354531001589826
F2558.000802876219
tp629
a(F0.13333333333333333
F2562.3561632200617
tp630
a(F0.13312202852614896
F2566.862943658907
tp631
a(F0.13291139240506328
F2571.2225456766087
tp632
a(F0.13270142180094788
F2575.5612074342175
tp633
a(F0.13249211356466878
F2580.0716843956025
tp634
a(F0.13228346456692913
F2584.4706673924597
tp635
a(F0.1320754716981132
F2589.055181854365
tp636
a(F0.13186813186813187
F2593.174650478955
tp637
a(F0.13166144200626959
F2597.6898813907756
tp638
a(F0.13145539906103287
F2601.9741968861813
tp639
a(F0.13125
F2606.5229672985993
tp640
a(F0.1310452418096724
F2610.8005205856707
tp641
a(F0.1308411214953271
F2615.488123985946
tp642
a(F0.13063763608087092
F2619.7445208999666
tp643
a(F0.13043478260869565
F2624.235729824668
tp644
a(F0.13023255813953488
F2628.676931389276
tp645
a(F0.13003095975232198
F2632.831569951376
tp646
a(F0.12982998454404945
F2637.3374009824106
tp647
a(F0.12962962962962962
F2641.801507749535
tp648
a(F0.12942989214175654
F2646.0853948403587
tp649
a(F0.12923076923076923
F2650.4427023565304
tp650
a(F0.12903225806451613
F2654.8675684237874
tp651
a(F0.12883435582822086
F2659.2435532288723
tp652
a(F0.12863705972434916
F2663.776951834194
tp653
a(F0.12844036697247707
F2668.4306310378042
tp654
a(F0.1282442748091603
F2672.76044320866
tp655
a(F0.12804878048780488
F2677.3342335154157
tp656
a(F0.1278538812785388
F2681.928527190127
tp657
a(F0.1276595744680851
F2686.326003626726
tp658
a(F0.1274658573596358
F2690.9609312712264
tp659
a(F0.12727272727272726
F2695.292081592572
tp660
a(F0.12708018154311648
F2699.5057966917325
tp661
a(F0.1268882175226586
F2704.0247550686513
tp662
a(F0.12669683257918551
F2708.580741063575
tp663
a(F0.12650602409638553
F2712.8031223985436
tp664
a(F0.12631578947368421
F2706.339263632055
tp665
a(F0.12612612612612611
F2780.588280094381
tp666
a(F0.12593703148425786
F2784.8841019346005
tp667
a(F0.12574850299401197
F2789.318392888251
tp668
a(F0.12556053811659193
F2793.361594621605
tp669
a(F0.1253731343283582
F2797.6929379548583
tp670
a(F0.12518628912071536
F2801.7192158661865
tp671
a(F0.125
F2806.178190399493
tp672
a(F0.12481426448736999
F2810.4679338142023
tp673
a(F0.12462908011869436
F2814.5832129567752
tp674
a(F0.12444444444444444
F2819.107538997863
tp675
a(F0.1242603550295858
F2823.2316508628305
tp676
a(F0.1240768094534712
F2827.4122174436784
tp677
a(F0.12389380530973451
F2831.480930195072
tp678
a(F0.12371134020618557
F2835.8566878882175
tp679
a(F0.12352941176470589
F2840.016265744818
tp680
a(F0.12334801762114538
F2844.096159318623
tp681
a(F0.12316715542521994
F2848.352663833429
tp682
a(F0.12298682284040996
F2852.5505823609756
tp683
a(F0.12280701754385964
F2856.588011263735
tp684
a(F0.12262773722627737
F2860.948752277618
tp685
a(F0.12244897959183673
F2865.4640014557017
tp686
a(F0.1222707423580786
F2869.5706743344476
tp687
a(F0.12209302325581395
F2873.860583912644
tp688
a(F0.12191582002902758
F2877.978035215324
tp689
a(F0.12173913043478261
F2882.321745661637
tp690
a(F0.12156295224312591
F2886.6409285857762
tp691
a(F0.12138728323699421
F2890.8461356763173
tp692
a(F0.12121212121212122
F2895.052263299476
tp693
a(F0.12103746397694524
F2899.187022155375
tp694
a(F0.12086330935251799
F2903.6887820928137
tp695
a(F0.1206896551724138
F2908.1739982888917
tp696
a(F0.12051649928263988
F2912.33493141258
tp697
a(F0.12034383954154727
F2916.48425821219
tp698
a(F0.12017167381974249
F2920.96656447423
tp699
a(F0.12
F2925.224300974606
tp700
a(F0.11982881597717546
F2929.53554594482
tp701
a(F0.11965811965811966
F2933.666563959241
tp702
a(F0.11948790896159317
F2938.018801880002
tp703
a(F0.11931818181818182
F2942.260405816941
tp704
a(F0.11914893617021277
F2946.4833900812287
tp705
a(F0.11898016997167139
F2950.848746031461
tp706
a(F0.1188118811881188
F2955.245405309228
tp707
a(F0.11864406779661017
F2959.5713409787813
tp708
a(F0.11847672778561354
F2963.7684947235875
tp709
a(F0.11830985915492957
F2968.2070639781073
tp710
a(F0.11814345991561181
F2972.5976103842645
tp711
a(F0.11797752808988764
F2976.9134075528036
tp712
a(F0.11781206171107994
F2981.0282045273066
tp713
a(F0.11764705882352941
F2985.34148128814
tp714
a(F0.11748251748251748
F2989.489821179362
tp715
a(F0.11731843575418995
F2993.8172214138376
tp716
a(F0.11715481171548117
F2998.1203099862055
tp717
a(F0.116991643454039
F3002.419982715319
tp718
a(F0.1168289290681502
F3006.4775974825066
tp719
a(F0.11666666666666667
F3010.8885693560537
tp720
a(F0.11650485436893204
F3015.2183365612814
tp721
a(F0.11634349030470914
F3019.4090648697
tp722
a(F0.11618257261410789
F3023.6213693627783
tp723
a(F0.11602209944751381
F3027.822341900309
tp724
a(F0.11586206896551725
F3032.3263681154044
tp725
a(F0.11570247933884298
F3036.5290731197415
tp726
a(F0.1155433287482806
F3040.8741924664096
tp727
a(F0.11538461538461539
F3045.3612396746985
tp728
a(F0.11522633744855967
F3049.5128884083374
tp729
a(F0.11506849315068493
F3053.850026287466
tp730
a(F0.11491108071135431
F3058.2987751875507
tp731
a(F0.11475409836065574
F3062.5421941242184
tp732
a(F0.1145975443383356
F3067.0694214701816
tp733
a(F0.11444141689373297
F3071.4917028694153
tp734
a(F0.11428571428571428
F3075.5596396683495
tp735
a(F0.11413043478260869
F3080.09250642326
tp736
a(F0.11397557666214382
F3084.2788807013517
tp737
a(F0.11382113821138211
F3088.64294340989
tp738
a(F0.11366711772665765
F3092.816518655925
tp739
a(F0.11351351351351352
F3097.01667177123
tp740
a(F0.11336032388663968
F3101.422097432616
tp741
a(F0.11320754716981132
F3105.618545790687
tp742
a(F0.11305518169582772
F3110.0494649861835
tp743
a(F0.11290322580645161
F3114.27515938415
tp744
a(F0.11275167785234899
F3118.5829480059074
tp745
a(F0.1126005361930295
F3122.631675666962
tp746
a(F0.11244979919678715
F3127.1978136506714
tp747
a(F0.11229946524064172
F3131.2968518860666
tp748
a(F0.11214953271028037
F3135.6446046064666
tp749
a(F0.112
F3140.037958803333
tp750
a(F0.1118508655126498
F3144.333876844503
tp751
a(F0.11170212765957446
F3148.4621519526486
tp752
a(F0.11155378486055777
F3152.873049495448
tp753
a(F0.11140583554376658
F3157.2591514978676
tp754
a(F0.11125827814569536
F3161.4709321213218
tp755
a(F0.1111111111111111
F3165.7780562218713
tp756
a(F0.11096433289299867
F3169.914925507313
tp757
a(F0.11081794195250659
F3174.1626602385263
tp758
a(F0.11067193675889328
F3178.5748048728924
tp759
a(F0.11052631578947368
F3182.986580356047
tp760
a(F0.11038107752956636
F3187.2456145136753
tp761
a(F0.11023622047244094
F3191.3973237590626
tp762
a(F0.11009174311926606
F3195.7938129309964
tp763
a(F0.1099476439790576
F3199.989908994024
tp764
a(F0.10980392156862745
F3204.470479304453
tp765
a(F0.10966057441253264
F3208.49413719818
tp766
a(F0.10951760104302477
F3212.973918978904
tp767
a(F0.109375
F3217.2818310548114
tp768
a(F0.10923276983094929
F3221.6011149088285
tp769
a(F0.10909090909090909
F3225.8280244292873
tp770
a(F0.10894941634241245
F3230.2413163714414
tp771
a(F0.10880829015544041
F3234.3970567538804
tp772
a(F0.10866752910737387
F3238.8407478660038
tp773
a(F0.10852713178294573
F3243.1358987410204
tp774
a(F0.10838709677419354
F3247.5007266009084
tp775
a(F0.10824742268041238
F3251.8214105477996
tp776
a(F0.10810810810810811
F3256.2179311995255
tp777
a(F0.10796915167095116
F3260.42755430126
tp778
a(F0.10783055198973042
F3264.734682123213
tp779
a(F0.1076923076923077
F3269.2704292325766
tp780
a(F0.10755441741357234
F3273.4807513233154
tp781
a(F0.10741687979539642
F3277.7950758080665
tp782
a(F0.10727969348659004
F3282.0120983691118
tp783
a(F0.10714285714285714
F3286.2921811209862
tp784
a(F0.1070063694267516
F3290.6734256031345
tp785
a(F0.10687022900763359
F3294.7711589621376
tp786
a(F0.10673443456162643
F3299.0436434966873
tp787
a(F0.1065989847715736
F3303.3948002737743
tp788
a(F0.10646387832699619
F3307.8575653591733
tp789
a(F0.10632911392405063
F3311.848510736436
tp790
a(F0.10619469026548672
F3316.008948957773
tp791
a(F0.10606060606060606
F3320.2327546016445
tp792
a(F0.10592686002522068
F3324.347444692083
tp793
a(F0.10579345088161209
F3328.7381781052236
tp794
a(F0.10566037735849057
F3333.2739769382947
tp795
a(F0.10552763819095477
F3337.3601682936414
tp796
a(F0.1053952321204517
F3341.559479695644
tp797
a(F0.10526315789473684
F3345.743983488926
tp798
a(F0.10513141426783479
F3349.9684223643612
tp799
a(F0.105
F3354.170611670964
tp800
a(F0.10486891385767791
F3358.3571293505847
tp801
a(F0.10473815461346633
F3362.400165595042
tp802
a(F0.10460772104607721
F3366.4768720957986
tp803
a(F0.1044776119402985
F3370.8555884418925
tp804
a(F0.10434782608695652
F3375.0680490321047
tp805
a(F0.10421836228287841
F3379.2814136693682
tp806
a(F0.10408921933085502
F3383.6343791440454
tp807
a(F0.10396039603960396
F3387.709571612883
tp808
a(F0.103831891223733
F3391.904883537821
tp809
a(F0.1037037037037037
F3396.1664204356643
tp810
a(F0.10357583230579531
F3400.3350738079444
tp811
a(F0.10344827586206896
F3404.468170151826
tp812
a(F0.1033210332103321
F3408.726064556927
tp813
a(F0.10319410319410319
F3412.9539992374434
tp814
a(F0.10306748466257669
F3417.211512243209
tp815
a(F0.10294117647058823
F3421.1980976264504
tp816
a(F0.10281517747858017
F3425.592373139335
tp817
a(F0.10268948655256724
F3429.8238571231063
tp818
a(F0.10256410256410256
F3433.824552348643
tp819
a(F0.1024390243902439
F3438.2253656994244
tp820
a(F0.1023142509135201
F3442.4991837997422
tp821
a(F0.10218978102189781
F3446.6843366584626
tp822
a(F0.10206561360874848
F3450.734369439688
tp823
a(F0.10194174757281553
F3455.1639214981196
tp824
a(F0.10181818181818182
F3459.2570066428802
tp825
a(F0.1016949152542373
F3463.4912085193764
tp826
a(F0.10157194679564692
F3467.8002514611217
tp827
a(F0.10144927536231885
F3472.046456277484
tp828
a(F0.10132689987937274
F3476.3755303926455
tp829
a(F0.10120481927710843
F3480.49889427372
tp830
a(F0.10108303249097472
F3484.713273785464
tp831
a(F0.10096153846153846
F3488.930699974953
tp832
a(F0.10084033613445378
F3493.2602305389746
tp833
a(F0.10071942446043165
F3497.469043227576
tp834
a(F0.10059880239520957
F3501.8363174931073
tp835
a(F0.10047846889952153
F3506.007418339676
tp836
a(F0.1003584229390681
F3510.2687318924372
tp837
a(F0.10023866348448687
F3514.4681069971602
tp838
a(F0.10011918951132301
F3518.734771748268
tp839
a(F0.1
F3522.8858056188287
tp840
a(F0.09988109393579073
F3526.8840043696246
tp841
a(F0.0997624703087886
F3531.3028854529553
tp842
a(F0.099644128113879
F3535.5238180116057
tp843
a(F0.0995260663507109
F3539.618064192143
tp844
a(F0.09940828402366864
F3544.0344165059364
tp845
a(F0.09929078014184398
F3548.296975086982
tp846
a(F0.09917355371900827
F3552.688545547316
tp847
a(F0.09905660377358491
F3556.870634165818
tp848
a(F0.0989399293286219
F3561.10028178707
tp849
a.