(lp0
(F84.0
F0.5
tp1
a(F42.0
F0.9131833150384192
tp2
a(F28.0
F1.880810121592155
tp3
a(F21.0
F2.3769513034838017
tp4
a(F16.8
F2.527719946540864
tp5
a(F14.0
F6.520785073495345
tp6
a(F12.0
F8.036569183133944
tp7
a(F10.5
F12.52868264401916
tp8
a(F9.333333333333334
F20.419353089499225
tp9
a(F8.4
F9.096171289545962
tp10
a(F7.636363636363637
F15.654684512428299
tp11
a(F7.0
F12.994586109687338
tp12
a(F6.461538461538462
F18.2014196264709
tp13
a(F6.0
F24.86938967601308
tp14
a(F5.6
F20.951528309711414
tp15
a(F5.25
F30.49248627733285
tp16
a(F4.9411764705882355
F37.76869399147937
tp17
a(F4.666666666666667
F43.075718910683676
tp18
a(F4.421052631578948
F58.984677759056446
tp19
a(F4.2
F14.709531451155506
tp20
a(F4.0
F42.5532
tp21
a(F3.8181818181818183
F20.67592083562397
tp22
a(F3.652173913043478
F27.244124077616835
tp23
a(F3.5
F34.50203051256723
tp24
a(F3.36
F50.71672948959576
tp25
a(F3.230769230769231
F41.44775531635599
tp26
a(F3.111111111111111
F49.8506366616238
tp27
a(F3.0
F62.32818343722174
tp28
a(F2.896551724137931
F85.46907817969662
tp29
a(F2.8
F23.74064649103578
tp30
a(F2.7096774193548385
F67.2840627580512
tp31
a(F2.625
F30.52092217484009
tp32
a(F2.5454545454545454
F38.774954627949185
tp33
a(F2.4705882352941178
F41.15705289672543
tp34
a(F2.4
F61.421088210137135
tp35
a(F2.3333333333333335
F58.2501968503937
tp36
a(F2.27027027027027
F59.45173875349195
tp37
a(F2.210526315789474
F96.46328190407846
tp38
a(F2.1538461538461537
F130.8199665831245
tp39
a(F2.1
F33.883050839777326
tp40
a(F2.048780487804878
F92.06805664830841
tp41
a(F2.0
F44.178184534927155
tp42
a(F1.9534883720930232
F47.04756479635431
tp43
a(F1.9090909090909092
F45.331549858889936
tp44
a(F1.8666666666666667
F68.13720697700255
tp45
a(F1.826086956521739
F67.43775100401606
tp46
a(F1.7872340425531914
F66.41573333333334
tp47
a(F1.75
F136.20914542728633
tp48
a(F1.7142857142857142
F172.21125143513206
tp49
a(F1.68
F44.554916320366964
tp50
a(F1.6470588235294117
F122.85452505609574
tp51
a(F1.6153846153846154
F63.21472236372899
tp52
a(F1.5849056603773586
F60.843000436109904
tp53
a(F1.5555555555555556
F48.89567219152854
tp54
a(F1.5272727272727273
F77.0240189992983
tp55
a(F1.5
F74.02153716216216
tp56
a(F1.4736842105263157
F72.18056722689076
tp57
a(F1.4482758620689655
F199.45835652012613
tp58
a(F1.423728813559322
F217.1939586645469
tp59
a(F1.4
F55.445165782629175
tp60
a(F1.3770491803278688
F147.8010344827586
tp61
a(F1.3548387096774193
F87.99268177525967
tp62
a(F1.3333333333333333
F85.63339183852567
tp63
a(F1.3125
F68.80556117290193
tp64
a(F1.2923076923076924
F90.7440158749845
tp65
a(F1.2727272727272727
F111.28798283261801
tp66
a(F1.2537313432835822
F104.22308946877912
tp67
a(F1.2352941176470589
F271.9615184155664
tp68
a(F1.2173913043478262
F289.9362264150943
tp69
a(F1.2
F67.68442028655072
tp70
a(F1.1830985915492958
F173.5367401469606
tp71
a(F1.1666666666666667
F113.81063964534516
tp72
a(F1.1506849315068493
F94.5192061459667
tp73
a(F1.135135135135135
F57.57633701822528
tp74
a(F1.12
F81.75464357429719
tp75
a(F1.105263157894737
F104.66533333333335
tp76
a(F1.0909090909090908
F87.12277759141227
tp77
a(F1.0769230769230769
F343.78215120810603
tp78
a(F1.0632911392405062
F328.6292756539235
tp79
a(F1.05
F79.40489363840713
tp80
a(F1.037037037037037
F196.83121424030514
tp81
a(F1.024390243902439
F148.58503625576793
tp82
a(F1.0120481927710843
F113.17056737588655
tp83
a(F1.0
F61.75452930728242
tp84
a(F0.9882352941176471
F84.27514445206151
tp85
a(F0.9767441860465116
F133.01867816091954
tp86
a(F0.9655172413793104
F94.57776889244303
tp87
a(F0.9545454545454546
F420.9989630467571
tp88
a(F0.9438202247191011
F384.41571279916747
tp89
a(F0.9333333333333333
F91.39572949420331
tp90
a(F0.9230769230769231
F223.53271028037383
tp91
a(F0.9130434782608695
F165.76003734827262
tp92
a(F0.9032258064516129
F167.96400587659159
tp93
a(F0.8936170212765957
F133.34994767137624
tp94
a(F0.8842105263157894
F153.24885426214485
tp95
a(F0.875
F209.97832103321034
tp96
a(F0.865979381443299
F201.77909516380657
tp97
a(F0.8571428571428571
F492.62083397922805
tp98
a(F0.8484848484848485
F441.3227689741451
tp99
a(F0.84
F106.83285761121007
tp100
a(F0.8316831683168316
F251.94828588030214
tp101
a(F0.8235294117647058
F219.0399201596806
tp102
a(F0.8155339805825242
F163.11251980982567
tp103
a(F0.8076923076923077
F76.71695402298849
tp104
a(F0.8
F89.21605691056908
tp105
a(F0.7924528301886793
F191.4885993485342
tp106
a(F0.7850467289719626
F125.98125689084897
tp107
a(F0.7777777777777778
F589.372095039889
tp108
a(F0.7706422018348624
F502.12513484358146
tp109
a(F0.7636363636363637
F119.29528548232632
tp110
a(F0.7567567567567568
F289.0218609865471
tp111
a(F0.75
F255.77481919789614
tp112
a(F0.7433628318584071
F191.1808681672026
tp113
a(F0.7368421052631579
F80.14042661249366
tp114
a(F0.7304347826086957
F88.76579233276424
tp115
a(F0.7241379310344828
F206.9075500770416
tp116
a(F0.717948717948718
F139.46641131408367
tp117
a(F0.711864406779661
F668.3165573770492
tp118
a(F0.7058823529411765
F536.5291005291006
tp119
a(F0.7
F132.26179823098425
tp120
a(F0.6942148760330579
F331.45311667554614
tp121
a(F0.6885245901639344
F278.9595816845675
tp122
a(F0.6829268292682927
F232.13026315789477
tp123
a(F0.6774193548387096
F131.36877224199287
tp124
a(F0.672
F131.99970077797727
tp125
a(F0.6666666666666666
F290.46510067114093
tp126
a(F0.6614173228346457
F230.33298374410066
tp127
a(F0.65625
F741.4074128984432
tp128
a(F0.6511627906976745
F605.3801732435034
tp129
a(F0.6461538461538462
F146.44905537339193
tp130
a(F0.6412213740458015
F360.2724867724868
tp131
a(F0.6363636363636364
F335.5319488817891
tp132
a(F0.631578947368421
F249.18418874172187
tp133
a(F0.6268656716417911
F99.63614457831326
tp134
a(F0.6222222222222222
F95.41903219660887
tp135
a(F0.6176470588235294
F287.8270491803279
tp136
a(F0.6131386861313869
F192.59530583214791
tp137
a(F0.6086956521739131
F836.2810506009793
tp138
a(F0.60431654676259
F653.5737791932058
tp139
a(F0.6
F159.4981490713046
tp140
a(F0.5957446808510638
F399.4099636741048
tp141
a(F0.5915492957746479
F375.79654088050313
tp142
a(F0.5874125874125874
F270.57660626029656
tp143
a(F0.5833333333333334
F119.68167506297227
tp144
a(F0.5793103448275863
F95.18912237330036
tp145
a(F0.5753424657534246
F318.56070287539933
tp146
a(F0.5714285714285714
F217.16919000757002
tp147
a(F0.5675675675675675
F907.9649381675098
tp148
a(F0.5637583892617449
F702.3908602150539
tp149
a(F0.56
F172.652039802145
tp150
a(F0.5562913907284768
F438.7182741116751
tp151
a(F0.5526315789473685
F412.8153235653236
tp152
a(F0.5490196078431373
F303.535594639866
tp153
a(F0.5454545454545454
F135.1072847682119
tp154
a(F0.5419354838709678
F100.76529225192569
tp155
a(F0.5384615384615384
F342.5950920245399
tp156
a(F0.535031847133758
F282.81376360808713
tp157
a(F0.5316455696202531
F989.5539776551352
tp158
a(F0.5283018867924528
F774.2294994675186
tp159
a(F0.525
F186.0431787564407
tp160
a(F0.5217391304347826
F476.2008973080758
tp161
a(F0.5185185185185185
F451.4319136172765
tp162
a(F0.5153374233128835
F337.825230511316
tp163
a(F0.5121951219512195
F150.71520706042088
tp164
a(F0.509090909090909
F103.4353542731921
tp165
a(F0.5060240963855421
F385.9634328358209
tp166
a(F0.5029940119760479
F313.17999999999995
tp167
a(F0.5
F1062.5281463351796
tp168
a(F0.4970414201183432
F838.6324921135646
tp169
a(F0.49411764705882355
F199.36349012454136
tp170
a(F0.49122807017543857
F508.4207945071113
tp171
a(F0.4883720930232558
F507.57078853046596
tp172
a(F0.48554913294797686
F359.7755937755938
tp173
a(F0.4827586206896552
F166.56956819739548
tp174
a(F0.48
F110.88412408759123
tp175
a(F0.4772727272727273
F417.52518518518514
tp176
a(F0.4745762711864407
F335.71358428805235
tp177
a(F0.47191011235955055
F1140.002399409376
tp178
a(F0.4692737430167598
F907.0074946466809
tp179
a(F0.4666666666666667
F212.78168077486382
tp180
a(F0.46408839779005523
F550.8064127290261
tp181
a(F0.46153846153846156
F539.4326137689616
tp182
a(F0.45901639344262296
F403.87397708674297
tp183
a(F0.45652173913043476
F181.26666666666665
tp184
a(F0.4540540540540541
F115.81611570247935
tp185
a(F0.45161290322580644
F455.1840579710145
tp186
a(F0.44919786096256686
F385.95518672199177
tp187
a(F0.44680851063829785
F1217.0188009932601
tp188
a(F0.4444444444444444
F968.2053191489363
tp189
a(F0.4421052631578947
F226.16783805141077
tp190
a(F0.4397905759162304
F591.9799244213509
tp191
a(F0.4375
F569.1748271889401
tp192
a(F0.43523316062176165
F438.43554843875097
tp193
a(F0.4329896907216495
F197.5070175438597
tp194
a(F0.4307692307692308
F124.54596541786742
tp195
a(F0.42857142857142855
F489.56163434903056
tp196
a(F0.4263959390862944
F421.79585062240665
tp197
a(F0.42424242424242425
F1292.2216265541233
tp198
a(F0.4221105527638191
F1021.5943396226415
tp199
a(F0.42
F239.6443912553758
tp200
a(F0.417910447761194
F643.0214352283317
tp201
a(F0.4158415841584158
F617.3523566155593
tp202
a(F0.41379310344827586
F479.4459779179811
tp203
a(F0.4117647058823529
F209.23036093418258
tp204
a(F0.4097560975609756
F134.8486642380085
tp205
a(F0.4077669902912621
F549.4656593406594
tp206
a(F0.4057971014492754
F460.05996621621625
tp207
a(F0.40384615384615385
F1367.5036291652918
tp208
a(F0.4019138755980861
F1086.8840885142258
tp209
a(F0.4
F253.0167147081509
tp210
a(F0.3981042654028436
F685.9899817850638
tp211
a(F0.39622641509433965
F664.4681208053692
tp212
a(F0.39436619718309857
F531.0149019607843
tp213
a(F0.3925233644859813
F219.92185338865838
tp214
a(F0.39069767441860465
F149.6356043236161
tp215
a(F0.3888888888888889
F586.161311914324
tp216
a(F0.3870967741935484
F490.61836734693884
tp217
a(F0.3853211009174312
F1448.231637215244
tp218
a(F0.3835616438356164
F1132.2722567287783
tp219
a(F0.38181818181818183
F266.3616103614902
tp220
a(F0.38009049773755654
F736.8106060606061
tp221
a(F0.3783783783783784
F701.4382546652031
tp222
a(F0.37668161434977576
F571.0718750000001
tp223
a(F0.375
F242.82021276595745
tp224
a(F0.37333333333333335
F162.36757301107752
tp225
a(F0.37168141592920356
F636.6378205128204
tp226
a(F0.3700440528634361
F544.4223140495867
tp227
a(F0.3684210526315789
F1529.0603341584158
tp228
a(F0.36681222707423583
F1182.641116751269
tp229
a(F0.3652173913043478
F279.58977824398767
tp230
a(F0.36363636363636365
F794.9886512439982
tp231
a(F0.3620689655172414
F726.5082754938601
tp232
a(F0.3605150214592275
F611.4077821011673
tp233
a(F0.358974358974359
F267.720556745182
tp234
a(F0.3574468085106383
F183.97548678720443
tp235
a(F0.3559322033898305
F699.3592233009707
tp236
a(F0.35443037974683544
F578.015522875817
tp237
a(F0.35294117647058826
F1604.3214677435437
tp238
a(F0.3514644351464435
F1199.6024154589372
tp239
a(F0.35
F293.04761186420063
tp240
a(F0.34854771784232363
F794.1474430757744
tp241
a(F0.34710743801652894
F626.3013345465574
tp242
a(F0.345679012345679
F581.0134851138355
tp243
a(F0.3442622950819672
F456.6217982924226
tp244
a(F0.34285714285714286
F501.43058803875715
tp245
a(F0.34146341463414637
F983.5294279427943
tp246
a(F0.340080971659919
F919.1013888888888
tp247
a(F0.3387096774193548
F1689.6022942972684
tp248
a(F0.3373493975903614
F2143.177726337449
tp249
a(F0.336
F322.22275889033784
tp250
a(F0.3346613545816733
F899.9502092050209
tp251
a(F0.3333333333333333
F812.5568893528184
tp252
a(F0.33201581027667987
F692.6633962264151
tp253
a(F0.33070866141732286
F313.3619047619047
tp254
a(F0.32941176470588235
F214.6449463161792
tp255
a(F0.328125
F819.8041714947857
tp256
a(F0.32684824902723736
F684.6459349593496
tp257
a(F0.32558139534883723
F1806.8889568243817
tp258
a(F0.32432432432432434
F1384.913810483871
tp259
a(F0.3230769230769231
F333.46542715971793
tp260
a(F0.3218390804597701
F960.8505367464905
tp261
a(F0.32061068702290074
F844.4141025641026
tp262
a(F0.3193916349809886
F740.7073715562175
tp263
a(F0.3181818181818182
F334.861866274798
tp264
a(F0.3169811320754717
F241.31061192873742
tp265
a(F0.3157894736842105
F872.1534883720931
tp266
a(F0.3146067415730337
F721.6037735849056
tp267
a(F0.31343283582089554
F1891.8840705538291
tp268
a(F0.31226765799256506
F1409.3821218074654
tp269
a(F0.3111111111111111
F345.95215578366094
tp270
a(F0.30996309963099633
F1005.1350855745721
tp271
a(F0.3088235294117647
F875.4066566566567
tp272
a(F0.3076923076923077
F786.2653136531366
tp273
a(F0.30656934306569344
F358.7947788252356
tp274
a(F0.3054545454545455
F263.5624263839811
tp275
a(F0.30434782608695654
F907.8348467650397
tp276
a(F0.30324909747292417
F780.134630981346
tp277
a(F0.302158273381295
F1971.6798007649204
tp278
a(F0.3010752688172043
F1473.0737148399612
tp279
a(F0.3
F358.3376205901158
tp280
a(F0.298932384341637
F1058.2426059152679
tp281
a(F0.2978723404255319
F918.0244686109738
tp282
a(F0.2968197879858657
F842.1307971014493
tp283
a(F0.29577464788732394
F392.2218956649522
tp284
a(F0.29473684210526313
F286.9890569040987
tp285
a(F0.2937062937062937
F958.3342824601366
tp286
a(F0.2926829268292683
F831.7270161290322
tp287
a(F0.2916666666666667
F2054.086139728162
tp288
a(F0.2906574394463668
F1532.4790276453766
tp289
a(F0.2896551724137931
F370.99250072956977
tp290
a(F0.28865979381443296
F1111.2638668779714
tp291
a(F0.2876712328767123
F955.4306906614786
tp292
a(F0.28668941979522183
F890.6902877697842
tp293
a(F0.2857142857142857
F416.8006559766764
tp294
a(F0.2847457627118644
F321.76921487603306
tp295
a(F0.28378378378378377
F1000.7533333333334
tp296
a(F0.2828282828282828
F847.6949356913183
tp297
a(F0.28187919463087246
F2137.7253211629477
tp298
a(F0.2809364548494983
F1563.3297773654913
tp299
a(F0.28
F384.0461395283086
tp300
a(F0.27906976744186046
F1167.6489194499018
tp301
a(F0.2781456953642384
F1000.0622307324079
tp302
a(F0.27722772277227725
F920.9150943396227
tp303
a(F0.27631578947368424
F451.95994173343047
tp304
a(F0.2754098360655738
F345.85450394354507
tp305
a(F0.27450980392156865
F1049.062979189485
tp306
a(F0.2736156351791531
F914.1140833988984
tp307
a(F0.2727272727272727
F2218.6095556656755
tp308
a(F0.27184466019417475
F1596.1388127853882
tp309
a(F0.2709677419354839
F396.9545587492983
tp310
a(F0.27009646302250806
F1205.5816445830087
tp311
a(F0.2692307692307692
F1036.389413988658
tp312
a(F0.268370607028754
F967.4948453608248
tp313
a(F0.267515923566879
F481.58387329013686
tp314
a(F0.26666666666666666
F384.44153911564626
tp315
a(F0.26582278481012656
F1108.1760869565217
tp316
a(F0.26498422712933756
F956.3747072599531
tp317
a(F0.2641509433962264
F2302.662474727052
tp318
a(F0.26332288401253917
F1646.8186274509803
tp319
a(F0.2625
F409.3911329456019
tp320
a(F0.2616822429906542
F1276.3204633204632
tp321
a(F0.2608695652173913
F1078.0967068645639
tp322
a(F0.26006191950464397
F1022.4972565157751
tp323
a(F0.25925925925925924
F499.5616295264624
tp324
a(F0.25846153846153846
F413.6185787671233
tp325
a(F0.25766871165644173
F1171.6117021276596
tp326
a(F0.25688073394495414
F974.9508448540706
tp327
a(F0.25609756097560976
F2391.9553054917187
tp328
a(F0.2553191489361702
F1686.9358523725837
tp329
a(F0.2545454545454545
F421.6944812163734
tp330
a(F0.2537764350453172
F1332.0488318651855
tp331
a(F0.25301204819277107
F1121.3414913083257
tp332
a(F0.25225225225225223
F1056.855209742896
tp333
a(F0.25149700598802394
F539.0124826629681
tp334
a(F0.2507462686567164
F451.9349575324095
tp335
a(F0.25
F1238.4560846560846
tp336
a(F0.24925816023738873
F1038.2022471910113
tp337
a(F0.2485207100591716
F2477.463296345154
tp338
a(F0.24778761061946902
F1729.0971978984237
tp339
a(F0.24705882352941178
F434.3165982782203
tp340
a(F0.24633431085043989
F1387.3443306788017
tp341
a(F0.24561403508771928
F1150.7568600989655
tp342
a(F0.24489795918367346
F1108.6972259810557
tp343
a(F0.2441860465116279
F579.1035762483131
tp344
a(F0.24347826086956523
F476.544
tp345
a(F0.24277456647398843
F1307.098223615465
tp346
a(F0.2420749279538905
F1095.943306510607
tp347
a(F0.2413793103448276
F2557.5897426134634
tp348
a(F0.24068767908309455
F1768.2761130136985
tp349
a(F0.24
F446.98630844375805
tp350
a(F0.23931623931623933
F1451.6450338600453
tp351
a(F0.23863636363636365
F1192.5008845643522
tp352
a(F0.23796033994334279
F1149.6499665998665
tp353
a(F0.23728813559322035
F628.0828363154407
tp354
a(F0.23661971830985915
F518.6579530350022
tp355
a(F0.23595505617977527
F1371.5935323383085
tp356
a(F0.23529411764705882
F1183.4019957234498
tp357
a(F0.2346368715083799
F2633.2709280655977
tp358
a(F0.233983286908078
F1820.7955284552845
tp359
a(F0.23333333333333334
F459.63216028708695
tp360
a(F0.23268698060941828
F1274.0554503651608
tp361
a(F0.23204419889502761
F1093.076892350709
tp362
a(F0.23140495867768596
F1264.595487804878
tp363
a(F0.23076923076923078
F1338.4783340817241
tp364
a(F0.23013698630136986
F1753.668751042188
tp365
a(F0.22950819672131148
F2168.433245208196
tp366
a(F0.22888283378746593
F2546.1214430894306
tp367
a(F0.22826086956521738
F3056.673244003916
tp368
a(F0.22764227642276422
F4401.0657855211775
tp369
a(F0.22702702702702704
F545.3007055154386
tp370
a(F0.22641509433962265
F1615.317677514793
tp371
a(F0.22580645161290322
F1316.4980578334053
tp372
a(F0.225201072386059
F1298.0059602649005
tp373
a(F0.22459893048128343
F717.2273328921244
tp374
a(F0.224
F595.3967954759661
tp375
a(F0.22340425531914893
F1655.693386773547
tp376
a(F0.22281167108753316
F1259.2363571934798
tp377
a(F0.2222222222222222
F2906.199588477367
tp378
a(F0.22163588390501318
F1991.1920529801323
tp379
a(F0.22105263157894736
F546.97037604523
tp380
a(F0.2204724409448819
F1668.6737771239425
tp381
a(F0.2198952879581152
F1341.8585987261145
tp382
a(F0.2193211488250653
F1343.358322324967
tp383
a(F0.21875
F761.3170326014637
tp384
a(F0.21818181818181817
F610.2512941176469
tp385
a(F0.21761658031088082
F1718.097440944882
tp386
a(F0.21705426356589147
F1282.971181556196
tp387
a(F0.21649484536082475
F2974.4504044274163
tp388
a(F0.2159383033419023
F2063.489387755102
tp389
a(F0.2153846153846154
F558.1548528534098
tp390
a(F0.21483375959079284
F1735.6330895795247
tp391
a(F0.21428571428571427
F1374.1866889912098
tp392
a(F0.21374045801526717
F1378.6405228758167
tp393
a(F0.2131979695431472
F798.3403554970375
tp394
a(F0.21265822784810126
F642.01567695962
tp395
a(F0.21212121212121213
F1752.1901340996167
tp396
a(F0.21158690176322417
F1325.558469170801
tp397
a(F0.21105527638190955
F3042.9820580843343
tp398
a(F0.21052631578947367
F2112.8166131621183
tp399
a(F0.21
F569.4647008424961
tp400
a(F0.20947630922693267
F1799.4188358640638
tp401
a(F0.208955223880597
F1414.7727460711333
tp402
a(F0.20843672456575682
F1413.773487773488
tp403
a(F0.2079207920792079
F847.6746239372139
tp404
a(F0.2074074074074074
F665.6586059743954
tp405
a(F0.20689655172413793
F1819.9233333333332
tp406
a(F0.20638820638820637
F1382.1128803963197
tp407
a(F0.20588235294117646
F3112.108127621536
tp408
a(F0.20537897310513448
F2156.7762430939224
tp409
a(F0.2048780487804878
F581.1889561681622
tp410
a(F0.20437956204379562
F1864.3177905308464
tp411
a(F0.20388349514563106
F1447.9883435582822
tp412
a(F0.2033898305084746
F1457.720945083014
tp413
a(F0.2028985507246377
F885.6919127086009
tp414
a(F0.20240963855421687
F700.3641826923077
tp415
a(F0.20192307692307693
F1862.1310634328356
tp416
a(F0.2014388489208633
F1395.7795961002782
tp417
a(F0.20095693779904306
F3180.58215835141
tp418
a(F0.20047732696897375
F2227.0101960784314
tp419
a(F0.2
F592.9773805010979
tp420
a(F0.1995249406175772
F1927.9976818830244
tp421
a(F0.1990521327014218
F1489.33786525974
tp422
a(F0.19858156028368795
F1496.1511041009462
tp423
a(F0.19811320754716982
F932.4586273252085
tp424
a(F0.1976470588235294
F736.0259582726832
tp425
a(F0.19718309859154928
F1917.3964879852128
tp426
a(F0.19672131147540983
F1464.7816997943798
tp427
a(F0.19626168224299065
F3259.325802139038
tp428
a(F0.1958041958041958
F2307.9334630350195
tp429
a(F0.19534883720930232
F605.0544944758632
tp430
a(F0.19489559164733178
F1983.7381625441697
tp431
a(F0.19444444444444445
F1531.236345381526
tp432
a(F0.19399538106235567
F1551.5112640801
tp433
a(F0.1935483870967742
F959.4510732323232
tp434
a(F0.19310344827586207
F770.3587860988741
tp435
a(F0.1926605504587156
F1954.7334542157753
tp436
a(F0.19221967963386727
F1490.6524390243903
tp437
a(F0.1917808219178082
F3332.9437916694174
tp438
a(F0.19134396355353075
F2359.891768292683
tp439
a(F0.19090909090909092
F617.3193084440708
tp440
a(F0.19047619047619047
F2037.3041652082604
tp441
a(F0.19004524886877827
F1570.9642857142858
tp442
a(F0.18961625282167044
F1591.2484510532838
tp443
a(F0.1891891891891892
F1014.5560126582278
tp444
a(F0.18876404494382024
F797.5442822384429
tp445
a(F0.18834080717488788
F1980.1172291296625
tp446
a(F0.18791946308724833
F1526.603308575287
tp447
a(F0.1875
F3405.7866549318733
tp448
a(F0.1870824053452116
F2381.2697761194026
tp449
a(F0.18666666666666668
F629.4275116529221
tp450
a(F0.18625277161862527
F2088.274098474341
tp451
a(F0.18584070796460178
F1611.4480442512843
tp452
a(F0.18543046357615894
F1627.0692401960787
tp453
a(F0.18502202643171806
F1067.7364147407868
tp454
a(F0.18461538461538463
F823.4204379562045
tp455
a(F0.18421052631578946
F2035.2768090671316
tp456
a(F0.1838074398249453
F1587.228880157171
tp457
a(F0.18340611353711792
F3478.97913446677
tp458
a(F0.1830065359477124
F2425.8273591806874
tp459
a(F0.1826086956521739
F641.0360330618055
tp460
a(F0.1822125813449024
F2143.8560866574967
tp461
a(F0.18181818181818182
F1651.4380877742944
tp462
a(F0.18142548596112312
F1679.061928004881
tp463
a(F0.1810344827586207
F1124.1378881987578
tp464
a(F0.18064516129032257
F844.5729166666667
tp465
a(F0.18025751072961374
F2125.046551724138
tp466
a(F0.17987152034261242
F1639.7478688524589
tp467
a(F0.1794871794871795
F3546.095836781463
tp468
a(F0.1791044776119403
F2496.2806195965413
tp469
a(F0.17872340425531916
F651.9739520484974
tp470
a(F0.17834394904458598
F2200.2099795640333
tp471
a(F0.17796610169491525
F1688.9951512800621
tp472
a(F0.17758985200845667
F1731.7304878048778
tp473
a(F0.17721518987341772
F1182.9303758471965
tp474
a(F0.17684210526315788
F883.9018645731109
tp475
a(F0.17647058823529413
F2190.8404344193814
tp476
a(F0.1761006289308176
F1685.1800916830387
tp477
a(F0.17573221757322174
F3618.9352497643736
tp478
a(F0.17536534446764093
F2529.9694307800423
tp479
a(F0.175
F662.9416719579256
tp480
a(F0.17463617463617465
F2255.738681757657
tp481
a(F0.17427385892116182
F1701.828990228013
tp482
a(F0.17391304347826086
F1879.2488050982474
tp483
a(F0.17355371900826447
F1376.2727995758219
tp484
a(F0.1731958762886598
F1389.8401639344263
tp485
a(F0.1728395061728395
F2285.881629515757
tp486
a(F0.17248459958932238
F1975.089491916859
tp487
a(F0.1721311475409836
F3740.49799741204
tp488
a(F0.17177914110429449
F2750.5198807157058
tp489
a(F0.17142857142857143
F681.5492845615406
tp490
a(F0.1710794297352342
F2342.106700167504
tp491
a(F0.17073170731707318
F1773.0126098586168
tp492
a(F0.17038539553752535
F1844.9181654676258
tp493
a(F0.1700404858299595
F1291.3201438848919
tp494
a(F0.1696969696969697
F936.2641416625676
tp495
a(F0.1693548387096774
F2315.3840520748577
tp496
a(F0.16901408450704225
F1807.9154929577464
tp497
a(F0.1686746987951807
F3812.6086809400763
tp498
a(F0.1683366733466934
F2661.246589358799
tp499
a(F0.168
F691.576417421857
tp500
a(F0.16766467065868262
F2396.7076666666667
tp501
a(F0.16733067729083664
F1807.8139490687952
tp502
a(F0.16699801192842942
F1905.8088147706967
tp503
a(F0.16666666666666666
F1351.5921288014313
tp504
a(F0.16633663366336635
F970.4143564356435
tp505
a(F0.16600790513833993
F2367.2278582930753
tp506
a(F0.16568047337278108
F1848.9645846748228
tp507
a(F0.16535433070866143
F3894.2625060856867
tp508
a(F0.1650294695481336
F2700.9038847957136
tp509
a(F0.16470588235294117
F701.7651116320179
tp510
a(F0.1643835616438356
F2459.1207986688855
tp511
a(F0.1640625
F1840.5939863842661
tp512
a(F0.16374269005847952
F1947.8084167157149
tp513
a(F0.16342412451361868
F1400.3440797186402
tp514
a(F0.16310679611650486
F999.8775308641975
tp515
a(F0.16279069767441862
F2424.925837320574
tp516
a(F0.16247582205029013
F1871.4113764927718
tp517
a(F0.16216216216216217
F3967.256901748041
tp518
a(F0.16184971098265896
F2763.322281167109
tp519
a(F0.16153846153846155
F712.2851983954353
tp520
a(F0.16122840690978887
F2506.7379927128186
tp521
a(F0.16091954022988506
F1882.530933633296
tp522
a(F0.16061185468451242
F1994.5594752186587
tp523
a(F0.16030534351145037
F1457.7355685131195
tp524
a(F0.16
F1027.3374263261296
tp525
a(F0.1596958174904943
F2450.990632318501
tp526
a(F0.15939278937381404
F1932.7833541147131
tp527
a(F0.1590909090909091
F4043.0264746309686
tp528
a(F0.15879017013232513
F2852.629653821032
tp529
a(F0.15849056603773584
F722.5984835183336
tp530
a(F0.15819209039548024
F2547.945376768674
tp531
a(F0.15789473684210525
F1932.5957089552237
tp532
a(F0.1575984990619137
F2020.3395415472778
tp533
a(F0.15730337078651685
F1534.7784552845528
tp534
a(F0.15700934579439252
F1075.9905472636817
tp535
a(F0.15671641791044777
F2479.355
tp536
a(F0.1564245810055866
F1954.6691588785047
tp537
a(F0.15613382899628253
F4115.186663904345
tp538
a(F0.15584415584415584
F2910.8831168831166
tp539
a(F0.15555555555555556
F733.1068202549802
tp540
a(F0.15526802218114602
F2606.4942679331803
tp541
a(F0.15498154981549817
F1969.8261271249075
tp542
a(F0.15469613259668508
F2061.317176870748
tp543
a(F0.15441176470588236
F1593.063829787234
tp544
a(F0.15412844036697249
F1128.7861476238625
tp545
a(F0.15384615384615385
F2489.4229309035686
tp546
a(F0.15356489945155394
F2015.0699450213806
tp547
a(F0.15328467153284672
F4182.149049184176
tp548
a(F0.15300546448087432
F2961.0255332902393
tp549
a(F0.15272727272727274
F743.5923424671063
tp550
a(F0.15245009074410162
F2667.331435079727
tp551
a(F0.15217391304347827
F2010.4869724770642
tp552
a(F0.1518987341772152
F2106.575988700565
tp553
a(F0.15162454873646208
F1646.3630175836643
tp554
a(F0.15135135135135136
F1181.6085626911315
tp555
a(F0.1510791366906475
F2515.7808270676687
tp556
a(F0.15080789946140036
F2044.1956257594165
tp557
a(F0.15053763440860216
F4249.462782042336
tp558
a(F0.15026833631484796
F3005.741832158873
tp559
a(F0.15
F754.4829760312352
tp560
a(F0.1497326203208556
F2737.823186528497
tp561
a(F0.1494661921708185
F2040.0202825063384
tp562
a(F0.1492007104795737
F2147.1418499717993
tp563
a(F0.14893617021276595
F1703.860033726813
tp564
a(F0.1486725663716814
F1226.1851662404092
tp565
a(F0.14840989399293286
F2531.0371747211893
tp566
a(F0.14814814814814814
F2069.0853138330285
tp567
a(F0.14788732394366197
F4311.820918719779
tp568
a(F0.14762741652021089
F3038.8207726409123
tp569
a(F0.14736842105263157
F764.9053967358142
tp570
a(F0.14711033274956217
F2797.430243745991
tp571
a(F0.14685314685314685
F2073.5835129310344
tp572
a(F0.14659685863874344
F2173.0022383883606
tp573
a(F0.14634146341463414
F1754.322518025513
tp574
a(F0.14608695652173914
F1252.7790697674418
tp575
a(F0.14583333333333334
F2554.558758314856
tp576
a(F0.14558058925476602
F2135.4888554216864
tp577
a(F0.1453287197231834
F4381.52005706134
tp578
a(F0.14507772020725387
F3083.6021370207413
tp579
a(F0.14482758620689656
F775.9100024134185
tp580
a(F0.14457831325301204
F2850.361860908224
tp581
a(F0.14432989690721648
F2121.807334525939
tp582
a(F0.14408233276157806
F2193.5597345132746
tp583
a(F0.14383561643835616
F1800.5542998897463
tp584
a(F0.14358974358974358
F1304.894495412844
tp585
a(F0.14334470989761092
F2615.2264640474427
tp586
a(F0.14310051107325383
F2180.185748360167
tp587
a(F0.14285714285714285
F4443.924052065648
tp588
a(F0.14261460101867574
F3133.0933622828784
tp589
a(F0.1423728813559322
F786.9137607522857
tp590
a(F0.14213197969543148
F2920.353145747708
tp591
a(F0.14189189189189189
F2147.2669868374246
tp592
a(F0.14165261382799327
F2216.1966538672514
tp593
a(F0.1414141414141414
F1846.9016348773844
tp594
a(F0.1411764705882353
F1350.1924044265593
tp595
a(F0.14093959731543623
F2674.1318114874816
tp596
a(F0.1407035175879397
F2212.838671411625
tp597
a(F0.14046822742474915
F4508.8159737785745
tp598
a(F0.14023372287145242
F3152.8145695364237
tp599
a(F0.14
F798.2068926782957
tp600
a(F0.13976705490848584
F2971.3447495473747
tp601
a(F0.13953488372093023
F2203.5001573811774
tp602
a(F0.13930348258706468
F2405.626733102253
tp603
a(F0.1390728476821192
F2112.9841447074587
tp604
a(F0.13884297520661157
F2009.4245728825883
tp605
a(F0.13861386138613863
F2970.9063883617964
tp606
a(F0.13838550247116968
F2734.707090464548
tp607
a(F0.13815789473684212
F4712.834322453016
tp608
a(F0.13793103448275862
F3502.896285714286
tp609
a(F0.1377049180327869
F820.062903627479
tp610
a(F0.13747954173486088
F3079.3730505302556
tp611
a(F0.13725490196078433
F2247.4227557411273
tp612
a(F0.1370309951060359
F2326.7668295331164
tp613
a(F0.13680781758957655
F2005.4285714285716
tp614
a(F0.13658536585365855
F1491.9605329311214
tp615
a(F0.13636363636363635
F2805.9927431059505
tp616
a(F0.13614262560777957
F2378.246308328411
tp617
a(F0.13592233009708737
F4770.771848692955
tp618
a(F0.13570274636510501
F3256.602089552239
tp619
a(F0.13548387096774195
F831.4741714244242
tp620
a(F0.13526570048309178
F3150.0702273435068
tp621
a(F0.13504823151125403
F2277.463743093923
tp622
a(F0.1348314606741573
F2342.548930481284
tp623
a(F0.1346153846153846
F2061.5894483128013
tp624
a(F0.1344
F1527.8800101471331
tp625
a(F0.134185303514377
F2848.5219899062727
tp626
a(F0.1339712918660287
F2408.4323442136497
tp627
a(F0.1337579617834395
F4830.462213299599
tp628
a(F0.13354531001589826
F3284.4431616341035
tp629
a(F0.13333333333333333
F842.6405921708736
tp630
a(F0.13312202852614896
F3198.9081064356437
tp631
a(F0.13291139240506328
F2320.556260720411
tp632
a(F0.13270142180094788
F2404.32874536792
tp633
a(F0.13249211356466878
F2110.50614973262
tp634
a(F0.13228346456692913
F1561.6431104356634
tp635
a(F0.1320754716981132
F2897.487133666905
tp636
a(F0.13186813186813187
F2496.8823356807516
tp637
a(F0.13166144200626959
F4893.700382827455
tp638
a(F0.13145539906103287
F3301.3491831971996
tp639
a(F0.13125
F853.4788092798861
tp640
a(F0.1310452418096724
F3248.1796923076918
tp641
a(F0.1308411214953271
F2360.194756554307
tp642
a(F0.13063763608087092
F2429.612513144059
tp643
a(F0.13043478260869565
F2167.179350718467
tp644
a(F0.13023255813953488
F1597.3918850806451
tp645
a(F0.13003095975232198
F2938.3393234672303
tp646
a(F0.12982998454404945
F2551.548566413107
tp647
a(F0.12962962962962962
F4957.640986551967
tp648
a(F0.12942989214175654
F3363.764806378132
tp649
a(F0.12923076923076923
F863.9585562793224
tp650
a(F0.12903225806451613
F3291.998775260257
tp651
a(F0.12883435582822086
F2389.381867205932
tp652
a(F0.12863705972434916
F2456.678348909657
tp653
a(F0.12844036697247707
F2239.29506892895
tp654
a(F0.1282442748091603
F1646.0060544904136
tp655
a(F0.12804878048780488
F3014.4344779257185
tp656
a(F0.1278538812785388
F2571.312131919906
tp657
a(F0.1276595744680851
F5024.495314446672
tp658
a(F0.1274658573596358
F3435.516545148626
tp659
a(F0.12727272727272726
F875.0508698551251
tp660
a(F0.12708018154311648
F3348.367660480681
tp661
a(F0.1268882175226586
F2423.1618187897025
tp662
a(F0.12669683257918551
F2464.8777549974375
tp663
a(F0.12650602409638553
F2318.417019027484
tp664
a(F0.12631578947368421
F1675.405215646941
tp665
a(F0.12612612612612611
F3053.784920083391
tp666
a(F0.12593703148425786
F2644.916570104287
tp667
a(F0.12574850299401197
F5088.059934185682
tp668
a(F0.12556053811659193
F3428.6818181818185
tp669
a(F0.1253731343283582
F886.5901837975777
tp670
a(F0.12518628912071536
F3418.6495778045837
tp671
a(F0.125
F2467.338053982006
tp672
a(F0.12481426448736999
F2485.113417721519
tp673
a(F0.12462908011869436
F2395.3206006322443
tp674
a(F0.12444444444444444
F1715.0865865865867
tp675
a(F0.1242603550295858
F3102.8504155124656
tp676
a(F0.1240768094534712
F2702.256446991404
tp677
a(F0.12389380530973451
F5152.452066960921
tp678
a(F0.12371134020618557
F3465.079005524862
tp679
a(F0.12352941176470589
F897.1194835766202
tp680
a(F0.12334801762114538
F3468.824790167866
tp681
a(F0.12316715542521994
F2505.9797946339845
tp682
a(F0.12298682284040996
F2503.0519221168247
tp683
a(F0.12280701754385964
F2443.980739198334
tp684
a(F0.12262773722627737
F1725.2363320079521
tp685
a(F0.12244897959183673
F3157.261049723757
tp686
a(F0.1222707423580786
F2705.2681242807826
tp687
a(F0.12209302325581395
F5218.377582228899
tp688
a(F0.12191582002902758
F3511.991208791209
tp689
a(F0.12173913043478261
F907.6657327376905
tp690
a(F0.12156295224312591
F3530.7747613365154
tp691
a(F0.12138728323699421
F2549.810220177457
tp692
a(F0.12121212121212122
F2542.371648460774
tp693
a(F0.12103746397694524
F2516.1813243662705
tp694
a(F0.12086330935251799
F1741.2063766683145
tp695
a(F0.1206896551724138
F3220.9431895961666
tp696
a(F0.12051649928263988
F2772.2906446092406
tp697
a(F0.12034383954154727
F5289.797916778235
tp698
a(F0.12017167381974249
F3567.9288034650785
tp699
a(F0.12
F918.1739600891873
tp700
a(F0.11982881597717546
F3585.6810906935384
tp701
a(F0.11965811965811966
F2590.917401240614
tp702
a(F0.11948790896159317
F2577.715483234714
tp703
a(F0.11931818181818182
F2577.2383033419023
tp704
a(F0.11914893617021277
F1802.3016508254127
tp705
a(F0.11898016997167139
F3253.9153636981646
tp706
a(F0.1188118811881188
F2808.4817455790076
tp707
a(F0.11864406779661017
F5356.634233030465
tp708
a(F0.11847672778561354
F3602.3395721925135
tp709
a(F0.11830985915492957
F928.6955570944347
tp710
a(F0.11814345991561181
F3640.967138225759
tp711
a(F0.11797752808988764
F2630.9339928640934
tp712
a(F0.11781206171107994
F2638.053694581281
tp713
a(F0.11764705882352941
F2639.3163784333674
tp714
a(F0.11748251748251748
F1821.7393353174602
tp715
a(F0.11731843575418995
F3291.122812920592
tp716
a(F0.11715481171548117
F2841.5429709732493
tp717
a(F0.116991643454039
F5423.096074876006
tp718
a(F0.1168289290681502
F3659.058306709265
tp719
a(F0.11666666666666667
F939.2458531842489
tp720
a(F0.11650485436893204
F3704.6998529411767
tp721
a(F0.11634349030470914
F2655.910507712082
tp722
a(F0.11618257261410789
F2703.0134671890305
tp723
a(F0.11602209944751381
F2726.3615345528456
tp724
a(F0.11586206896551725
F1862.1178217821782
tp725
a(F0.11570247933884298
F3324.769899665552
tp726
a(F0.1155433287482806
F2908.4555492638733
tp727
a(F0.11538461538461539
F5483.963533354613
tp728
a(F0.11522633744855967
F3691.425238600212
tp729
a(F0.11506849315068493
F949.5065298847695
tp730
a(F0.11491108071135431
F3746.2790970389915
tp731
a(F0.11475409836065574
F2678.2910044500954
tp732
a(F0.1145975443383356
F2739.675425790754
tp733
a(F0.11444141689373297
F2784.1186058174526
tp734
a(F0.11428571428571428
F1931.2556390977443
tp735
a(F0.11413043478260869
F3378.383612040134
tp736
a(F0.11397557666214382
F2933.488261598658
tp737
a(F0.11382113821138211
F5549.528997448438
tp738
a(F0.11366711772665765
F3727.5707596253906
tp739
a(F0.11351351351351352
F960.2587215100582
tp740
a(F0.11336032388663968
F3793.637172011662
tp741
a(F0.11320754716981132
F2713.611321349732
tp742
a(F0.11305518169582772
F2781.239961296565
tp743
a(F0.11290322580645161
F2862.968407960199
tp744
a(F0.11275167785234899
F1980.067283641821
tp745
a(F0.1126005361930295
F3421.538666666667
tp746
a(F0.11244979919678715
F2949.4415221040845
tp747
a(F0.11229946524064172
F5622.533138297872
tp748
a(F0.11214953271028037
F3774.910164271047
tp749
a(F0.112
F971.1729788455831
tp750
a(F0.1118508655126498
F3841.1282533256217
tp751
a(F0.11170212765957446
F2739.3157647794815
tp752
a(F0.11155378486055777
F2823.142409638554
tp753
a(F0.11140583554376658
F2928.8357142857144
tp754
a(F0.11125827814569536
F2052.120160884867
tp755
a(F0.1111111111111111
F3462.44647606383
tp756
a(F0.11096433289299867
F2965.2748473070515
tp757
a(F0.11081794195250659
F5692.26434916751
tp758
a(F0.11067193675889328
F3816.8121827411164
tp759
a(F0.11052631578947368
F982.5600630897933
tp760
a(F0.11038107752956636
F3889.174956871765
tp761
a(F0.11023622047244094
F2767.275605214153
tp762
a(F0.11009174311926606
F2855.8229366602686
tp763
a(F0.1099476439790576
F3008.3510534051934
tp764
a(F0.10980392156862745
F2069.8560455896927
tp765
a(F0.10966057441253264
F3486.0718523401447
tp766
a(F0.10951760104302477
F3019.4585189309582
tp767
a(F0.109375
F5754.572494952715
tp768
a(F0.10923276983094929
F3881.2678300455227
tp769
a(F0.10909090909090909
F993.0278600908217
tp770
a(F0.10894941634241245
F3934.416666666667
tp771
a(F0.10880829015544041
F2783.627698951265
tp772
a(F0.10866752910737387
F2877.3414576431614
tp773
a(F0.10852713178294573
F3109.0080645161293
tp774
a(F0.10838709677419354
F2098.0363815142578
tp775
a(F0.10824742268041238
F3539.5337926509187
tp776
a(F0.10810810810810811
F3079.0431995540694
tp777
a(F0.10796915167095116
F5822.263406605076
tp778
a(F0.10783055198973042
F3926.3824561403508
tp779
a(F0.1076923076923077
F1002.9575321078795
tp780
a(F0.10755441741357234
F3977.859507640068
tp781
a(F0.10741687979539642
F2804.8964831804283
tp782
a(F0.10727969348659004
F2918.5115023474173
tp783
a(F0.10714285714285714
F3183.0367396593674
tp784
a(F0.1070063694267516
F2123.3114953726254
tp785
a(F0.10687022900763359
F3565.9853610930377
tp786
a(F0.10673443456162643
F3131.3141985579596
tp787
a(F0.1065989847715736
F5886.739753663199
tp788
a(F0.10646387832699619
F3969.330685203575
tp789
a(F0.10632911392405063
F1014.3271572453916
tp790
a(F0.10619469026548672
F4024.5263157894733
tp791
a(F0.10606060606060606
F2841.7845454545454
tp792
a(F0.10592686002522068
F2958.293843283582
tp793
a(F0.10579345088161209
F3247.1680367504837
tp794
a(F0.10566037735849057
F2185.6599804305283
tp795
a(F0.10552763819095477
F3589.2659368963295
tp796
a(F0.1053952321204517
F3172.3040951853905
tp797
a(F0.10526315789473684
F5954.853247028863
tp798
a(F0.10513141426783479
F4050.436017786561
tp799
a(F0.105
F1025.8605178821667
tp800
a(F0.10486891385767791
F4082.5771708683474
tp801
a(F0.10473815461346633
F2861.466576738609
tp802
a(F0.10460772104607721
F2994.5953488372093
tp803
a(F0.1044776119402985
F3331.148414985591
tp804
a(F0.10434782608695652
F2191.484142239308
tp805
a(F0.10421836228287841
F3634.3433696348493
tp806
a(F0.10408921933085502
F3208.3402968664104
tp807
a(F0.10396039603960396
F6026.468766571217
tp808
a(F0.103831891223733
F4128.361275964391
tp809
a(F0.1037037037037037
F1037.0702853785544
tp810
a(F0.10357583230579531
F4136.615180318703
tp811
a(F0.10344827586206896
F2892.010834075393
tp812
a(F0.1033210332103321
F3038.0090277777776
tp813
a(F0.10319410319410319
F3410.213055954089
tp814
a(F0.10306748466257669
F2234.2020105313545
tp815
a(F0.10294117647058823
F3644.7844882390336
tp816
a(F0.10281517747858017
F3270.1599780098954
tp817
a(F0.10268948655256724
F6092.499231910159
tp818
a(F0.10256410256410256
F4184.840697103584
tp819
a(F0.1024390243902439
F1047.0654847984547
tp820
a(F0.1023142509135201
F4202.867523756288
tp821
a(F0.10218978102189781
F2925.0796056503823
tp822
a(F0.10206561360874848
F3078.819796954315
tp823
a(F0.10194174757281553
F3481.419592030361
tp824
a(F0.10181818181818182
F2280.6099713740455
tp825
a(F0.1016949152542373
F3642.6146874999995
tp826
a(F0.10157194679564692
F3284.5828321487156
tp827
a(F0.10144927536231885
F6159.1465033855275
tp828
a(F0.10132689987937274
F4264.312836844684
tp829
a(F0.10120481927710843
F1057.380444964871
tp830
a(F0.10108303249097472
F4260.994294461453
tp831
a(F0.10096153846153846
F2974.8054662379423
tp832
a(F0.10084033613445378
F3104.878093492209
tp833
a(F0.10071942446043165
F3565.5650425733206
tp834
a(F0.10059880239520957
F2304.5958353052533
tp835
a(F0.10047846889952153
F3672.7428836633662
tp836
a(F0.1003584229390681
F3319.7726034858388
tp837
a(F0.10023866348448687
F6225.968743394631
tp838
a(F0.10011918951132301
F4298.170058139534
tp839
a(F0.1
F1067.2361546983977
tp840
a(F0.09988109393579073
F4330.712878157091
tp841
a(F0.0997624703087886
F3005.137391304347
tp842
a(F0.099644128113879
F3139.492262175694
tp843
a(F0.0995260663507109
F3648.2365184484393
tp844
a(F0.09940828402366864
F2342.729038370441
tp845
a(F0.09929078014184398
F3663.759842519685
tp846
a(F0.09917355371900827
F3411.387424492037
tp847
a(F0.09905660377358491
F6289.57716668426
tp848
a(F0.0989399293286219
F4335.492544492546
tp849
a.