(lp0
F4.637831720913838e-06
aF0.00023660842697150494
aF0.0007238710395901776
aF0.4368397887323944
aF0.5238474282911117
aF0.5681360224793877
aF0.6691768084988859
aF0.8581455703668751
aF6.232824730543829
aF16.05073537069395
aF22.713128190146964
aF29.17012339079692
aF36.77002933976529
aF43.992412678053675
aF51.54462005253147
aF58.572815622079254
aF66.24609971634302
aF73.576695520785
aF80.54262293587183
aF88.0169329889851
aF95.63239069852438
aF103.03193036700941
aF109.9763387297634
aF116.95037618790151
aF124.4555797061575
aF131.93430543065315
aF139.72227833688385
aF146.80593942957955
aF153.57957125653826
aF160.41618215271387
aF167.38798553405297
aF175.10801716121787
aF182.77325608172214
aF189.99366622138285
aF197.5373753387284
aF204.59158436384763
aF211.5870780298838
aF218.14933836556918
aF225.0802542067807
aF231.80805409397215
aF239.0339620725312
aF246.4779002973717
aF254.10555873713767
aF261.2742448036951
aF268.51948621785397
aF275.67740370846
aF282.7137530494566
aF289.9337214675169
aF296.6153188460721
aF302.8761845766959
aF309.44456976969946
aF316.22509823863896
aF322.9565864664435
aF329.657962867076
aF337.1470196531792
aF344.38606892469335
aF351.6403390332097
aF358.5558136091937
aF366.0319700194318
aF373.04261600251715
aF380.70978325250803
aF387.5043678628935
aF394.14990605418313
aF400.99109663208355
aF408.14836792505236
aF414.6699984259405
aF421.0370197203962
aF427.5826058378619
aF433.847835748345
aF440.8987131416933
aF447.0419409188954
aF453.7989759922968
aF460.29356341210456
aF467.0962827826345
aF474.6939642000574
aF482.16811434497964
aF489.11445983995253
aF496.0510461142344
aF502.8010733767376
aF509.92930120972966
aF517.1036155407096
aF523.3885640959122
aF530.5267791805998
aF537.424143903817
aF543.919407742342
aF550.5477061755388
aF557.4237927169312
aF564.2567404799406
aF570.8065548709873
aF577.8518719252897
aF583.9887942855025
aF589.8460191584369
aF596.014148714385
aF602.4373048594061
aF609.1486721891737
aF616.0857224930039
aF622.7186616748987
aF629.1417893849106
aF635.826668767202
aF641.5335072082423
aF647.8182205706554
aF654.0786742287341
aF661.7246425162408
aF668.9091675779875
aF675.5757168541826
aF682.7277580565931
aF689.9547421381317
aF696.7870718733784
aF703.4824356514566
aF710.651303227481
aF717.5525010890419
aF724.2881747142632
aF730.6750011586411
aF738.6184606969695
aF745.6389360025952
aF752.1189474269613
aF758.488547141652
aF764.9746688173838
aF771.611883574342
aF778.3785270671116
aF784.6986586451111
aF791.0138872150478
aF796.6823027718549
aF802.2830332974897
aF807.3846706398125
aF813.2408658971863
aF818.8843080175036
aF824.5318272012462
aF830.6802675368257
aF836.4997496569372
aF842.69200852918
aF848.8620721622725
aF854.3242942567099
aF860.2409464295649
aF866.729987947339
aF873.8729405219971
aF880.3796946126106
aF886.8038133118238
aF893.6625148334939
aF900.7084360690383
aF907.9638446418306
aF914.85194507797
aF921.9644314030892
aF928.9091912139672
aF935.4863067038743
aF942.8535381163424
aF950.1537291844379
aF956.8626069544742
aF963.4539777468706
aF970.3735906090053
aF977.1653825113812
aF983.9515376841558
aF991.305804088823
aF998.2311147577459
aF1004.5373632486557
aF1010.7639463288886
aF1017.1543230485306
aF1024.1085618121297
aF1030.7123201305444
aF1037.0400532250287
aF1043.1695872274142
aF1049.2879720720637
aF1054.8930127967358
aF1061.03690823944
aF1066.4606683232578
aF1072.4531822354936
aF1078.121564991656
aF1084.7089754288363
aF1090.8121679138733
aF1097.517465689911
aF1103.616334384273
aF1110.0080267465478
aF1115.6228614348904
aF1120.9500723320598
aF1127.1119204376855
aF1133.6519892423257
aF1139.6356622215626
aF1145.2936040580892
aF1151.0425630563798
aF1156.581416594016
aF1162.8955620478575
aF1168.39757561143
aF1174.9580883307674
aF1180.6491672230877
aF1186.572370495391
aF1192.4684167578494
aF1198.206078982262
aF1204.000644431463
aF1209.816010571707
aF1216.0504928735036
aF1222.333997978243
aF1229.6946989225378
aF1236.4937960773402
aF1241.9165422666458
aF1248.1743297506328
aF1254.2102193165485
aF1261.4007187239172
aF1268.5339263684175
aF1274.6129629114382
aF1281.2305634129375
aF1287.5128684313036
aF1294.207664412973
aF1300.903931771384
aF1308.4971339263357
aF1315.2503988498286
aF1322.0679132580183
aF1328.1398808971674
aF1334.4377138882448
aF1341.1538286763546
aF1347.8482408704285
aF1354.0803350307483
aF1359.9549417526157
aF1366.1069828697562
aF1371.7799462141236
aF1377.8965248601874
aF1384.0242224159356
aF1390.4818823442124
aF1397.3453476292943
aF1403.6489326186545
aF1409.333880465526
aF1415.7707400090892
aF1421.6429485693086
aF1426.9089227259662
aF1432.5139274086578
aF1437.8481412432525
aF1443.3911482920767
aF1449.2320635185647
aF1454.8202209155659
aF1460.431691505838
aF1465.899166326644
aF1471.4902291761343
aF1477.5563099411952
aF1484.1964540783197
aF1489.3774958499105
aF1495.5128115958157
aF1500.7048584385113
aF1506.2690060648774
aF1512.3075806616152
aF1517.9295889597863
aF1523.5786864414642
aF1529.8975924843967
aF1535.4314518372873
aF1540.7729919967355
aF1546.2608062616503
aF1551.8023417574775
aF1557.2804762699607
aF1563.4020164357132
aF1569.4011509817196
aF1574.8413051745088
aF1580.224614628355
aF1585.5107406205075
aF1590.9367439703153
aF1596.1449724996985
aF1601.5852207382675
aF1607.3837321461695
aF1612.6489785888484
aF1618.1937654172154
aF1623.553342236071
aF1629.5356188903934
aF1635.6986439231619
aF1641.3332174187206
aF1647.2695699752392
aF1652.7778117812893
aF1660.116759388039
aF1666.7136007864083
aF1673.2812682601075
aF1680.2025716166966
aF1687.4086170597566
aF1694.0064966380708
aF1699.798690458525
aF1705.5067464181388
aF1711.3614318706698
aF1716.537937941651
aF1722.0558239597922
aF1728.8242236773763
aF1734.6474060540859
aF1741.687057165115
aF1747.5928052082945
aF1753.2849929990823
aF1759.6308770888586
aF1766.9059579005936
aF1773.262284744568
aF1780.1319486951197
aF1786.0593117390138
aF1791.8482022794929
aF1798.1742343461692
aF1804.3443810848398
aF1811.0427707827248
aF1817.2572692618048
aF1822.6994807121662
aF1828.6272879847188
aF1834.263587888904
aF1839.5510866340303
aF1845.5790042186266
aF1851.6845835767067
aF1857.3749095899557
aF1864.052726008345
aF1871.3167995549786
aF1878.017388442318
aF1884.5491247751675
aF1891.1662617420416
aF1898.4945339737408
aF1905.047485722762
aF1911.389987111849
aF1917.2341114953504
aF1923.4431735993917
aF1930.50546496213
aF1937.6177796118216
aF1944.0130413819322
aF1950.1884984469891
aF1956.2404122545113
aF1961.9981546564784
aF1967.6634829376853
aF1972.9689954469163
aF1978.6849901250825
aF1984.4288350784127
aF1989.4361103384329
aF1994.3754706307843
aF1999.650223944955
aF2005.5289257731004
aF2011.6440691324142
aF2016.8778375370919
aF2022.6811787724523
aF2028.0321883635959
aF2033.0045387111727
aF2038.0876396680421
aF2043.382558861986
aF2048.5211161807256
aF2053.778587059325
aF2059.8155676517777
aF2065.415013494338
aF2070.6326278888596
aF2076.462368682139
aF2082.2205161015145
aF2088.00534174163
aF2093.651901375147
aF2098.854076258299
aF2104.7749682361564
aF2109.9330430831433
aF2115.3839759281923
aF2120.8579952709906
aF2126.404782435352
aF2132.1194114265577
aF2137.493685381798
aF2142.6840228840592
aF2148.848614665628
aF2154.683771303525
aF2159.9163042974365
aF2165.8396584176317
aF2171.7494854440943
aF2178.4109469019163
aF2184.375089245148
aF2190.314449575312
aF2196.341868810504
aF2202.385983942445
aF2208.1261704770914
aF2214.976814160933
aF2221.299170143718
aF2228.115058648987
aF2235.1411258542194
aF2240.261756851982
aF2245.856579911174
aF2250.9365108797433
aF2256.4018313320043
aF2261.7257248022847
aF2266.755285510284
aF2271.6429260196746
aF2276.5039311310343
aF2281.7713386367004
aF2287.468188393701
aF2292.3129050502052
aF2297.572334507695
aF2303.1710028557654
aF2309.1853251244775
aF2314.847023263145
aF2321.023481905257
aF2326.743905944312
aF2332.4024051031947
aF2337.867944296099
aF2343.4298463592613
aF2348.957049867404
aF2354.6949183185297
aF2360.2546706225953
aF2366.148114493412
aF2371.5391723229855
aF2376.985169629032
aF2382.1893590979894
aF2387.1344417457726
aF2393.5365765465062
aF2399.2331998219847
aF2405.2797489361305
aF2410.893828408238
aF2416.7567174142823
aF2422.200923444932
aF2427.747900172436
aF2433.633872029522
aF2438.9382777293545
aF2444.5562705735083
aF2450.2455172541677
aF2456.899236952632
aF2463.3071004106905
aF2470.0236987038033
aF2475.7034712306927
aF2480.96973432952
aF2487.519403524711
aF2492.7174475304064
aF2498.0782530500246
aF2503.5583930441876
aF2509.353364849833
aF2515.568722070794
aF2521.4373777452283
aF2526.819466073415
aF2533.1441894961295
aF2540.822497056451
aF2546.890457562387
aF2553.20779798654
aF2560.4740286829397
aF2569.08029257982
aF2577.2380822146406
aF2584.1394672921456
aF2591.4175559284636
aF2598.135585756798
aF2604.695680591867
aF2611.3883547800933
aF2618.930463484058
aF2626.4995688616095
aF2633.8013760234403
aF2640.1070564347897
aF2647.8329470336816
aF2654.9615088672376
aF2660.97547192553
aF2667.5019287476125
aF2673.200595138773
aF2681.8860375224785
aF2688.936019506587
aF2694.9712831731263
aF2701.66367234938
aF2708.2176854984473
aF2713.6407735943494
aF2720.2184568610733
aF2726.090579206407
aF2731.3189153365593
aF2736.7497752194504
aF2742.2584880476793
aF2747.7297405004633
aF2754.013147894112
aF2759.741069939014
aF2765.4433274936737
aF2771.521097711325
aF2777.6686100400416
aF2783.5059780342
aF2789.127890916843
aF2794.6012234683476
aF2800.1775540662047
aF2805.640816742669
aF2811.9339675978276
aF2818.3399809054167
aF2823.9481469124476
aF2829.90024471862
aF2834.9790164086403
aF2840.232374914261
aF2844.9144390479014
aF2850.5028780912835
aF2855.645437606029
aF2860.8368962640216
aF2865.9044877677966
aF2870.8601399898016
aF2875.627922499305
aF2880.626841388006
aF2885.092938853456
aF2889.9815942673863
aF2895.29105134837
aF2899.8789964496605
aF2904.411911383018
aF2909.160453883878
aF2914.7875924861387
aF2920.1322272288976
aF2924.3422938237504
aF2929.169090521476
aF2934.541328673274
aF2939.1252815811185
aF2943.7410614136734
aF2948.640066565921
aF2952.915935110081
aF2958.375601457404
aF2963.052988450344
aF2968.9178245353846
aF2974.579245230547
aF2979.420629108068
aF2984.1979410974013
aF2989.5991415672424
aF2993.900336491222
aF3000.262076253511
aF3005.682989571263
aF3011.1320027069874
aF3016.489737837437
aF3022.227622076152
aF3027.8056052585225
aF3033.356788601305
aF3039.3224076391784
aF3045.6207431918874
aF3051.6782406763637
aF3057.4711436835955
aF3063.7215356517063
aF3069.915465274752
aF3075.421164364513
aF3080.694897892971
aF3086.277709799123
aF3092.1940324105835
aF3097.8389751149675
aF3102.3928511829713
aF3107.5273394767587
aF3112.24966395669
aF3116.5558150959837
aF3121.5545735155074
aF3126.6555863513754
aF3132.1200504343474
aF3137.18274561062
aF3141.786953096033
aF3147.0614188775794
aF3152.4668579480667
aF3158.328458864427
aF3163.7312313425923
aF3168.5046348223473
aF3173.6239629200463
aF3179.2311571297473
aF3185.7269861870773
aF3191.9607407750786
aF3197.1540279747505
aF3201.505491297336
aF3206.7604937241595
aF3211.521903967371
aF3215.501983281126
aF3220.242737435346
aF3225.094933951332
aF3229.9009482934425
aF3234.335213421699
aF3239.713785144192
aF3244.9333528004895
aF3250.082029439573
aF3255.6443847045184
aF3260.833988376081
aF3267.1021184869273
aF3272.425878535002
aF3277.9987949238484
aF3283.958597545148
aF3289.3554550258173
aF3294.3682244203615
aF3299.793364792702
aF3305.4075085292593
aF3311.2754658385093
aF3317.9150518293254
aF3323.2979438403277
aF3328.769344865627
aF3333.768777634616
aF3339.3343005469546
aF3344.74687358048
aF3349.697327685292
aF3354.994090875385
aF3360.0528592089895
aF3364.9943911890678
aF3369.6866581379613
aF3375.3295600982715
aF3380.549985167606
aF3385.2796440489437
aF3390.9011429577854
aF3396.7014092995228
aF3402.4319833852546
aF3407.9899454858983
aF3414.0795194348916
aF3420.908983035135
aF3426.783942492191
aF3432.583843159066
aF3438.275435669262
aF3444.030802106317
aF3448.5858233854824
aF3454.314760571736
aF3459.9270362200637
aF3465.9832795758725
aF3471.70907944982
aF3477.278323570846
aF3484.521661352514
aF3491.3823463987474
aF3497.779507854859
aF3503.8595764400575
aF3509.86625853871
aF3515.965373101128
aF3522.0683555918035
aF3528.707266205056
aF3534.3703585265926
aF3540.4299366009195
aF3547.0512736137634
aF3552.668867819607
aF3558.326134710031
aF3564.2335347656035
aF3570.0337849735415
aF3576.2247314419187
aF3581.3312512163707
aF3587.0076971556205
aF3592.5891008351173
aF3598.172452781227
aF3604.2710542414356
aF3611.2580534549234
aF3616.620716821295
aF3622.8982027325137
aF3628.350065805327
aF3633.9306064004304
aF3640.617906034795
aF3646.316412404768
aF3652.683025741326
aF3658.3901423857023
aF3664.6064665041395
aF3671.0280138655885
aF3676.267007748489
aF3681.42840658424
aF3687.2558646066013
aF3692.9954814251814
aF3700.2521644419726
aF3706.352418069252
aF3711.924693909707
aF3717.6670203695808
aF3723.3991873082946
aF3729.2789518565896
aF3734.9521792721243
aF3740.716656935524
aF3746.596315140731
aF3752.06002502201
aF3757.8834654061816
aF3762.8396650478235
aF3769.030574039406
aF3774.6190048017206
aF3779.334026876738
aF3784.3040045225807
aF3789.543105925096
aF3794.556858837705
aF3799.830894278803
aF3805.56492158244
aF3810.423728185214
aF3816.1399925853843
aF3821.772002669237
aF3827.382962159758
aF3833.672073408101
aF3838.8973097204075
aF3844.4507348988936
aF3850.8267295072847
aF3857.7100470797577
aF3863.954085841126
aF3869.481930670126
aF3874.4945181230946
aF3879.862745824915
aF3885.836372903346
aF3892.278670596304
aF3898.658823802021
aF3903.366553271167
aF3907.9675761591857
aF3911.899148332808
aF3917.1652117505323
aF3922.603017776707
aF3928.629295166432
aF3935.432453473715
aF3941.5166504471936
aF3946.906695150094
aF3952.4517132079673
aF3958.470961643607
aF3963.708119052252
aF3969.607552293306
aF3975.1597514411224
aF3980.273413099287
aF3985.6781113294287
aF3991.612085824181
aF3998.1318850385096
aF4003.7267435933086
aF4008.5357689063553
aF4013.91957847517
aF4019.6539338548814
aF4024.1179237413803
aF4029.6073315413846
aF4034.546299127953
aF4041.055103951356
aF4046.562723599088
aF4052.102958623758
aF4057.8779358605984
aF4063.1345891839283
aF4068.659277968301
aF4073.336654217214
aF4078.567298780262
aF4083.7207546645163
aF4089.365462517497
aF4094.128391342633
aF4099.791010538219
aF4105.231925365664
aF4110.894267840593
aF4115.761659591822
aF4120.927944420756
aF4125.722030677974
aF4131.16003151504
aF4135.780620047268
aF4141.082172547058
aF4147.1838698017555
aF4152.600605206818
aF4157.439277371992
aF4162.032912542171
aF4166.823566211908
aF4171.633215010612
aF4176.234037721859
aF4180.862761816497
aF4185.784992076217
aF4191.007830889848
aF4196.163628190631
aF4201.696443632926
aF4206.594065691671
aF4210.86674296623
aF4216.431131314816
aF4221.533153523894
aF4226.593805030863
aF4231.521371244277
aF4236.315868499346
aF4241.325059079746
aF4246.63902712521
aF4252.002163860289
aF4257.7677528777185
aF4263.570670510158
aF4268.724884617523
aF4273.12428988462
aF4278.348749270137
aF4283.685838739573
aF4289.108394654409
aF4294.729061825192
aF4299.79172883555
aF4304.009156032509
aF4309.615601312155
aF4315.844745451681
aF4321.083384310236
aF4326.520600691323
aF4331.408727363719
aF4336.275473604212
aF4340.26848411279
aF4345.383687844664
aF4350.639859491723
aF4355.219549380886
aF4360.579689658049
aF4366.144109660138
aF4372.72281742354
aF4378.246732601683
aF4383.125367241588
aF4389.177158456774
aF4395.020841443747
aF4400.384487760569
aF4405.5754094410095
aF4410.495652979887
aF4415.145225120022
aF4420.366949388209
aF4424.884846378423
aF4430.237714566419
aF4434.420945814451
aF4439.728504564623
aF4444.654472072139
aF4450.3288812679575
aF4454.764957462978
aF4460.139131160153
aF4465.04329048462
aF4470.269538056576
aF4475.53596748932
aF4483.04974741623
aF4489.224209677569
aF4495.217893819745
aF4501.211863385699
aF4507.208862812706
aF4512.558699500449
aF4518.029965150336
aF4523.489818427858
aF4528.584180623396
aF4533.403396240406
aF4538.218009083326
aF4543.191691691692
aF4548.189182801479
aF4554.166881401492
aF4562.836347121686
aF4569.466898098796
aF4574.588549873024
aF4579.787773884997
aF4585.458225196499
aF4590.817273468782
aF4595.935132580146
aF4601.530367637517
aF4607.575908003782
aF4612.696559490597
aF4618.830892440029
aF4624.515956510053
aF4630.204293898437
aF4635.512212530473
aF4641.353467374881
aF4646.128466814979
aF4651.537017982944
aF4656.363958219414
aF4661.7210264823925
aF4667.455938377686
aF4673.254692931634
aF4677.264529791751
aF4683.224691083363
aF4687.387385884425
aF4692.843303087318
aF4699.155434843064
aF4704.2710594866185
aF4708.2046303419
aF4713.652412290865
aF4720.301062212665
aF4725.703135572012
aF4730.288697538188
aF4735.106938264739
aF4739.909756210605
aF4744.005899199229
aF4748.07426664813
aF4752.728247571736
aF4757.391537677263
aF4762.418978156307
aF4767.574731446896
aF4773.765411673109
aF4778.502498169245
aF4782.383797008507
aF4787.1422494091485
aF4791.932000815638
aF4796.639265026183
aF4801.958902585967
aF4807.113137333049
aF4812.519873381349
aF4816.795799846121
aF4821.525025025026
aF4826.162264115967
aF4830.859019629651
aF4836.85070718867
aF4842.4120190569765
aF4846.831678993123
aF4851.955355156818
aF4858.155628985614
aF4869.131644067954
aF4876.38694938973
aF4882.447359398023
aF4888.349466601169
aF4893.450378141914
aF4898.905989954965
aF4905.830222601153
aF4912.727189738742
aF4918.356736365995
aF4922.596227988879
aF4928.592743280816
aF4934.428581359781
aF4938.228208692429
aF4943.168663812277
a.