(lp0
F1.2970639660065475e-06
aF9.427275135621496e-05
aF0.00012303528036664515
aF0.28467019765010215
aF0.4654251468716902
aF0.43561024227525585
aF0.5771844213469035
aF0.8184601229465991
aF2.0010139605933857
aF2.477893044858836
aF3.3475959609330723
aF4.441585711499437
aF5.63079224576893
aF7.077987765477211
aF8.62183881761067
aF10.360011963091994
aF12.22245105718458
aF14.323271313327336
aF16.3920092319721
aF18.82925759833454
aF21.043639045806522
aF23.711441031538627
aF26.206101922723583
aF28.90505387304136
aF31.767268715698695
aF34.56831997573242
aF37.57435510837008
aF40.57717951368935
aF43.62250818774525
aF46.90567814692842
aF50.086180830077055
aF53.443737472895634
aF56.816426529705275
aF60.087025297291014
aF63.87520570418981
aF67.03698806617847
aF71.04397029993127
aF74.38482516013609
aF78.8276982621043
aF82.33282187851599
aF86.20321539661794
aF89.82136151143546
aF94.09089864428012
aF97.38139979404079
aF102.09618513352285
aF105.23713369685339
aF110.13200300976659
aF113.46072005756972
aF118.18413101235205
aF121.92623393677437
aF126.55661799674183
aF130.2380487875898
aF135.10070053202088
aF138.68660957948745
aF144.234933655918
aF147.26759099714766
aF152.90264742307562
aF156.0687227505131
aF161.26663604081085
aF165.26439537135215
aF170.5427206068268
aF174.17168514428576
aF179.860247068645
aF182.97246584594527
aF189.02452638104216
aF192.23134130178443
aF198.36568642773236
aF201.76966641787598
aF211.0689444790986
aF213.83639673269806
aF219.52119440542475
aF223.17975915756267
aF229.283668596128
aF232.26523311494702
aF239.0925886308838
aF241.83634515114827
aF248.71786503073668
aF251.90241131677573
aF257.8661193554583
aF261.7832106081283
aF267.8480080973499
aF271.6091282940817
aF277.91876682625116
aF281.0264564554289
aF288.30760334484825
aF291.36797531769304
aF298.4308520141008
aF301.897167469668
aF308.13575716134824
aF312.47763090877635
aF318.5306305624889
aF322.51896685070744
aF329.1496788697825
aF332.2757824544231
aF340.0543076382086
aF342.76056043445294
aF350.2357905982906
aF353.56696170374767
aF361.53968818759046
aF365.32778314381466
aF372.026529943816
aF375.62625383565694
aF383.20024683041606
aF385.7559443900049
aF394.068504804471
aF396.3291117696037
aF404.57188814525546
aF407.43618986416976
aF414.72688619481465
aF418.5501501318231
aF425.8198539315376
aF429.38411557286713
aF436.8265887391764
aF439.56825939403444
aF448.2351522887192
aF450.80193758838135
aF459.1999068700298
aF462.3751613786628
aF469.6230284785115
aF473.47804033004866
aF480.5983438467944
aF484.48480108598613
aF492.441131893666
aF495.0214433272978
aF503.781216561962
aF506.41015596262787
aF514.6390404857791
aF518.0471759872197
aF528.467518670008
aF533.3917460007088
aF540.6712968199744
aF544.4373488520096
aF552.269759721585
aF555.0067427067554
aF563.8572956133914
aF565.7628125989431
aF574.7133387642562
aF577.8210401682841
aF585.2121492414265
aF589.4796681847756
aF596.7916399755823
aF600.8798368252693
aF608.984667318002
aF611.4380167623839
aF621.1419359199338
aF622.8453726932196
aF633.0443255837257
aF635.2130011391614
aF643.3023664135559
aF646.949380316988
aF654.6979995330821
aF658.6085882655624
aF667.0962730352863
aF668.7479854614086
aF679.5539063164372
aF680.2686351731829
aF691.0277897344779
aF692.8194680741528
aF700.8523162363763
aF705.6065410606728
aF713.014603767905
aF716.8993508642478
aF725.7142653338072
aF726.9572515875982
aF738.1805848409585
aF739.255579197205
aF749.7688814872464
aF752.240861694016
aF759.5620289425717
aF764.7359760053866
aF771.9543535150026
aF775.8252844286789
aF785.1861127590496
aF786.6220818615122
aF797.5873392527174
aF798.9332196535058
aF809.4260983069853
aF812.3113699429333
aF820.2386009692972
aF824.7604782717343
aF832.5816708589025
aF837.126754882779
aF845.9182100388033
aF848.2439901187228
aF858.4815651091089
aF860.0229300521572
aF871.5866677508945
aF873.1408275388445
aF882.3807444656901
aF886.1993122727584
aF895.048187923501
aF898.3513092368689
aF907.8674927179362
aF909.949531892511
aF920.3987620722346
aF921.5778407374386
aF933.1809796222751
aF935.1653156797842
aF944.5253290925872
aF947.6153814103507
aF956.9350469761972
aF960.7554943303318
aF969.6231990510058
aF971.6328936241348
aF982.8071230862706
aF984.6174182730958
aF995.2568303619436
aF997.5409911103912
aF1006.3673667423913
aF1010.9981895116708
aF1018.9226479936632
aF1023.1169600902966
aF1032.5115997268888
aF1034.1501656012085
aF1045.9630695024118
aF1046.451516105547
aF1058.7548718795088
aF1060.733258865553
aF1069.6405707021827
aF1073.7907952100447
aF1082.5291931022039
aF1085.9442713741778
aF1097.656263441129
aF1096.7801900027075
aF1110.4278027096316
aF1109.8253875301414
aF1122.995111714387
aF1124.8741593194045
aF1132.9735763692083
aF1138.0823284012565
aF1146.5398420198214
aF1150.6691894507262
aF1161.1740768415686
aF1161.3228500665953
aF1175.5058215781835
aF1174.3481814401332
aF1187.0539194727196
aF1189.2943497498
aF1198.0099063039204
aF1203.0386875347933
aF1211.6885775349085
aF1214.963064861467
aF1226.218496387229
aF1225.8351989820155
aF1239.5298499445348
aF1238.5117570038715
aF1253.5998862954816
aF1255.013170508065
aF1293.1751627941396
aF1285.9821751384022
aF1295.6983347154337
aF1297.916105371977
aF1309.6010396824206
aF1308.6611287582184
aF1323.165277968514
aF1321.414367142815
aF1335.4752378595392
aF1336.0410877527172
aF1345.7157332724917
aF1350.4097457076364
aF1359.3238959828413
aF1361.7914672566505
aF1374.255995202339
aF1372.499311827216
aF1387.7750449595367
aF1386.2532733365151
aF1400.1049680047993
aF1401.4000240607115
aF1410.8353575554947
aF1414.3441575810223
aF1425.3004295177627
aF1427.6624455735616
aF1439.8099996751405
aF1438.223912508005
aF1453.9390878527624
aF1452.2683109081288
aF1467.3050943382082
aF1466.9123938078849
aF1478.3672338890308
aF1480.8659361425382
aF1492.371544798944
aF1493.9929880145396
aF1507.1912852620717
aF1505.963535689836
aF1521.6914278079937
aF1519.9221668634978
aF1534.891667791391
aF1534.912396509561
aF1545.84078075775
aF1549.1717569142088
aF1560.1815513238275
aF1561.6982179948636
aF1575.2293460574235
aF1571.6863108603168
aF1590.3891950332206
aF1586.2709206488275
aF1603.2385051511615
aF1601.7438785131637
aF1613.6726287724643
aF1615.3953370228116
aF1627.072812191739
aF1628.2699776456718
aF1643.5682111067824
aF1638.8985915909186
aF1658.1052140969293
aF1652.501364960036
aF1671.3539090177737
aF1668.0627715195765
aF1681.7943008322766
aF1683.1823178391962
aF1694.645494574855
aF1695.9596493252384
aF1709.6163765312701
aF1706.327641593966
aF1724.9373789098388
aF1718.973105152528
aF1738.0683669288348
aF1734.45332938732
aF1747.8242002098875
aF1747.7483323107133
aF1761.3690460096436
aF1762.4903763039506
aF1776.2898787610686
aF1772.3858341088248
aF1790.2746716192132
aF1786.1528364176183
aF1804.6645490119693
aF1799.873464756633
aF1813.7946239980756
aF1816.0238187551377
aF1826.271878270973
aF1828.6478950548155
aF1842.4689700478846
aF1839.0714473917499
aF1857.4591670161144
aF1851.2922651974504
aF1870.9125477611565
aF1868.0402883424729
aF1881.0437067270975
aF1881.6526402214972
aF1894.6220321080482
aF1895.6672517306265
aF1910.602233318769
aF1906.4643976994225
aF1925.6013926596527
aF1919.3322048957211
aF1939.2399949075877
aF1934.7454209347661
aF1949.6958796942808
aF1949.9551826401623
aF1963.8639244070366
aF1963.9846911209238
aF1978.7445496636149
aF1974.7036418663183
aF1994.693181818182
aF1986.9423446713693
aF2007.7943377668603
aF2004.0611427462466
aF2018.7152024050301
aF2018.7334122117543
aF2032.3042633428092
aF2032.486703884819
aF2049.3330286912883
aF2041.9364747891398
aF2063.14291988252
aF2057.270162382263
aF2078.9970290234833
aF2071.427205575084
aF2095.8611861991158
aF2093.4535607630874
aF2107.3983259034667
aF2108.240398130492
aF2123.2210008887473
aF2117.6850096792787
aF2138.0770332230722
aF2131.4002720703193
aF2152.9053998402637
aF2146.827579384099
aF2162.1837941053545
aF2163.0283565084796
aF2175.185060588849
aF2176.2491746459086
aF2192.3344371522476
aF2186.243459302326
aF2206.4660156152563
aF2199.363344637444
aF2221.6579034742385
aF2215.738063468192
aF2229.3748698138334
aF2230.93355770128
aF2244.964657510936
aF2245.3949843683617
aF2259.699795105009
aF2253.122084505932
aF2276.725284993226
aF2267.0725933388676
aF2290.1268789344676
aF2282.677340410102
aF2299.3217400116605
aF2298.9013081638063
aF2311.618435775166
aF2311.5059040708243
aF2328.9230310143334
aF2322.6045201358897
aF2343.0860775884653
aF2335.6135102928174
aF2357.8189957133195
aF2350.7812536871706
aF2367.218782066363
aF2365.0590320236115
aF2382.1281940938193
aF2379.220703091411
aF2397.3916563402518
aF2389.101341188113
aF2412.0592996790633
aF2403.0195811719404
aF2426.7122881937944
aF2418.850017200707
aF2437.7644897979612
aF2433.814742900093
aF2451.5061900173923
aF2448.268570551394
aF2467.0082603135274
aF2458.8309598636506
aF2480.3051240783025
aF2472.3741872265623
aF2495.2071483311156
aF2488.5162288107476
aF2505.7915908596083
aF2502.194347986248
aF2519.6731061648115
aF2516.3401278269416
aF2536.1798827676425
aF2526.3355010233004
aF2550.519458067864
aF2540.1504854488458
aF2563.920628004245
aF2557.862033582548
aF2573.465762060581
aF2572.931620141651
aF2589.7412075688644
aF2585.4135593845244
aF2605.9366028260283
aF2594.812467657916
aF2622.707474946403
aF2610.9631910606154
aF2633.7072423968057
aF2629.073196763643
aF2642.340393664955
aF2643.998446415457
aF2656.626916690839
aF2656.5986218977964
aF2675.6159313590924
aF2665.478361819642
aF2689.1959825558342
aF2681.151121663826
aF2703.2988527390858
aF2698.26039136634
aF2712.013346886519
aF2713.240980707593
aF2727.168874238413
aF2726.246566303699
aF2744.8544117720467
aF2736.9405400413707
aF2760.658749174136
aF2750.672169666101
aF2774.191903849799
aF2767.325811440064
aF2783.5661227602936
aF2784.330113644735
aF2796.4727205465138
aF2798.868347985906
aF2814.5119648502114
aF2807.5652911736597
aF2828.661544924003
aF2822.5803978965305
aF2843.2924400999705
aF2838.682425489444
aF2852.8137534026064
aF2855.3584686005647
aF2867.617018431406
aF2868.4127881126733
aF2884.207694111718
aF2876.7773432783592
aF2900.4083267920105
aF2892.905108823884
aF2913.835386694122
aF2906.783438590108
aF2931.029277648199
aF2929.07259945686
aF2942.5506530065304
aF2943.297071391887
aF2959.475130932509
aF2952.1406030648286
aF2975.3684605339226
aF2966.800106667586
aF2988.502185894558
aF2984.085056493773
aF2998.724298492985
aF2998.947124324776
aF3013.3652465874616
aF3013.475355807821
aF3030.9239442803546
aF3022.056403824974
aF3046.6000560768625
aF3037.767599754723
aF3060.4137001159447
aF3054.8336014601846
aF3069.9380077313863
aF3069.695825745903
aF3086.2922359371764
aF3082.528583299938
aF3104.4571624485725
aF3091.748049720121
aF3119.2796932765996
aF3107.3870210072027
aF3133.0867090375746
aF3125.594562275866
aF3141.750669299704
aF3141.219017857801
aF3157.5672974093986
aF3154.6552977235074
aF3177.33177345184
aF3162.2375930215367
aF3191.8718393826935
aF3178.9073475621017
aF3204.9004939767747
aF3197.2446279305823
aF3212.3226616753063
aF3214.5068828684593
aF3228.5761163777056
aF3225.8523779094053
aF3247.8463039774924
aF3235.305097004241
aF3263.7761074096406
aF3250.053466784853
aF3277.294753525166
aF3268.8953952108027
aF3284.85105231855
aF3284.271224554496
aF3302.132273758029
aF3296.86033485211
aF3321.4256982808483
aF3304.508240519151
aF3335.582017784199
aF3320.8703321726143
aF3349.973179928622
aF3337.736318713889
aF3359.303055359182
aF3354.3201753308035
aF3373.242489495536
aF3368.719769197107
aF3392.5767477222585
aF3376.373481112536
aF3409.870723811184
aF3392.368461259805
aF3424.0672219813946
aF3411.030525212307
aF3432.3446069721117
aF3429.506140040581
aF3447.785222423219
aF3443.933629830682
aF3467.5497892873173
aF3450.979000421545
aF3485.2742320347315
aF3467.791998038264
aF3499.5433521401947
aF3486.4052502373725
aF3508.256525237582
aF3502.9824597190413
aF3523.585322432744
aF3519.0160244200365
aF3542.695136678011
aF3526.982268314689
aF3560.0839320860014
aF3541.5567043726264
aF3577.158239492625
aF3561.1103579729215
aF3582.9907173407123
aF3579.4087696534502
aF3597.5129617457933
aF3593.2670539204837
aF3617.5443305089184
aF3600.3003698498414
aF3635.8589442340276
aF3616.209514970901
aF3648.29917005931
aF3636.598611039359
aF3657.670067287552
aF3652.1697961762457
aF3671.601246456374
aF3668.3399187183763
aF3693.903204645339
aF3671.991742474669
aF3710.3425273402154
aF3690.24886337594
aF3722.821560341366
aF3707.1103556678336
aF3731.8263365029516
aF3723.8645172388374
aF3745.8848666446656
aF3738.6346722238613
aF3766.0444172189395
aF3746.6452558306914
aF3783.372707828532
aF3761.047198152211
aF3804.0274478070887
aF3809.902893786057
aF4899.863241472165
aF4505.7674662862755
aF4521.180208934997
aF4503.995781264981
aF4543.480065495697
aF4511.436551659511
aF4558.263155664563
aF4529.743600393405
aF4574.096281255613
aF4548.647448022098
aF4581.108474041896
aF4564.616837960393
aF4597.407599991992
aF4579.079978420414
aF4617.79713812701
aF4588.418760332818
aF4632.118486581435
aF4603.58083211999
aF4643.575798127986
aF4626.036756641108
aF4654.171762069873
aF4638.202688363524
aF4668.163072570449
aF4653.0858924802005
aF4689.894151566104
aF4661.081564225158
aF4705.0859494707
aF4676.531833817101
aF4720.725376447177
aF4696.165413450639
aF4725.811781634386
aF4715.551344827332
aF4740.975349978714
aF4728.240268101785
aF4764.593221715297
aF4735.337327395637
aF4778.706915699395
aF4751.56844232499
aF4791.700761719238
aF4773.536619382554
aF4802.311743101798
aF4787.946753320091
aF4817.013272230391
aF4802.071646880773
aF4836.398395093523
aF4810.623015745956
aF4852.343038018931
aF4827.485676210933
aF4865.370167450132
aF4844.751629253274
aF4875.113658222585
aF4861.811349527532
aF4890.916382705781
aF4878.975240022694
aF4909.962330684961
aF4889.001775098363
aF4927.702070592347
aF4900.028279380414
aF4943.79778155718
aF4920.327780893212
aF4953.483899077515
aF4937.157800103168
aF4964.0590442001685
aF4952.537997258538
aF4985.747171118274
aF4958.980843761472
aF5002.046098130958
aF4976.1649118873265
aF5016.2455310974665
aF4995.16796879803
aF5026.85985076197
aF5014.865848476885
aF5041.641068002024
aF5027.299542216576
aF5063.420045005626
aF5037.076419687382
aF5077.560937609236
aF5053.325241067622
aF5093.086337879381
aF5072.225863829264
aF5103.129418542035
aF5092.471126893777
aF5119.275396421872
aF5107.995189554883
aF5139.980188761797
aF5117.176302849344
aF5156.3485545162775
aF5132.173420893139
aF5175.510665271109
aF5152.225416611315
aF5184.142100689663
aF5171.5251204988
aF5200.822554422705
aF5187.640338917263
aF5219.23707101376
aF5199.221835496044
aF5237.835133433912
aF5215.501181508833
aF5254.843060141774
aF5234.762315343633
aF5265.415752035066
aF5257.138136577913
aF5280.84624555129
aF5269.187596605863
aF5303.582169152587
aF5282.3247134859275
aF5318.2375896090925
aF5300.144491860359
aF5339.425981050068
aF5320.116267376734
aF5349.578514073324
aF5335.414891630445
aF5368.493714165483
aF5355.2777122844245
aF5387.945279130948
aF5364.971753346716
aF5403.714123376624
aF5383.682595807696
aF5419.055227048557
aF5402.256559903001
aF5434.145155474084
aF5419.061990696852
aF5446.724906499797
aF5436.321420412535
aF5468.771118855594
aF5446.64209951857
aF5483.429566546077
aF5461.0474905758
aF5499.963302855402
aF5483.00276164292
aF5511.427883423367
aF5499.669617106162
aF5527.623932576392
aF5516.305726614604
aF5550.159475204081
aF5526.257204433497
aF5567.377580524345
aF5545.296198524249
aF5584.051118254753
aF5563.42455692965
aF5592.925022222779
aF5584.198506487284
aF5608.826434939397
aF5599.3753246849
aF5633.157307611555
aF5609.886653985744
aF5652.204235794561
aF5627.852898556082
aF5665.232781179149
aF5652.150710536801
aF5675.096774395527
aF5667.660690742227
aF5693.337708166829
aF5685.931112241063
aF5715.832761404421
aF5696.502848557248
aF5736.749416236493
aF5715.206254463076
aF5750.794390538282
aF5737.618349419829
aF5759.980396479633
aF5757.165013637491
aF5777.354622421443
aF5771.029059484741
aF5798.1868194390945
aF5781.061266632681
aF5819.934830885291
aF5796.12916361899
aF5832.777025457326
aF5823.592784886365
aF5841.470422185804
aF5841.322603494798
aF5857.847712498558
aF5855.149957752845
aF5881.763587133245
aF5863.777481117118
aF5898.683358063178
aF5883.295753896491
aF5913.706021878208
aF5903.611506359497
aF5923.479204086285
aF5922.44647403868
aF5941.511984640411
aF5941.509237750527
aF5959.9493049284165
aF5951.712194713539
aF5983.244094163512
aF5965.881940085803
aF6001.178224504181
aF5991.965034363416
aF6009.750763663883
aF6010.230534328659
aF6027.473258982401
aF6029.255045123783
aF6049.915334619706
aF6039.077310645209
aF6067.66847395332
aF6056.849920513439
aF6085.263055734818
aF6079.063909672888
aF6093.559398379327
aF6101.627039295309
aF6113.891503908945
aF6119.075636983696
aF6138.321061197917
aF6129.461646434178
aF6161.388848185083
aF6149.558773026058
aF6180.264695948905
aF6176.095993957779
aF6189.120449152415
aF6196.5187980712635
aF6202.844208362923
aF6211.621275050721
aF6233.084193627562
aF6220.169332385596
aF6253.591927583654
aF6240.881968088247
aF6267.082938750381
aF6267.691907203715
aF6272.970493457212
aF6288.168294913252
aF6293.636489152864
aF6304.181511105446
aF6314.059937288046
aF6310.650394082131
aF6339.472633504409
aF6328.3144280466395
aF6350.318209026997
aF6354.263842681191
aF6360.843972085363
aF6374.918403339114
aF6379.063241230837
aF6387.823368399901
aF6404.323437637173
aF6397.473228717837
aF6423.295398139221
aF6413.671002653432
aF6438.6869970638045
aF6437.603388292982
aF6441.348557486947
a.