(lp0
F0.5880360667203508
aF1.429387020339204
aF2.4873227100725663
aF3.6006368442001455
aF4.6853368029259235
aF6.081228624474773
aF7.74716453923075
aF9.616290096783684
aF11.664355821790261
aF13.85938903260263
aF16.192073314558154
aF18.64291368238283
aF21.21144101503909
aF23.85131099924293
aF26.593950811536377
aF29.432180061409326
aF32.30232836426787
aF35.20089593357749
aF38.17626494793556
aF41.20622013093415
aF44.25894387838847
aF47.33145450769823
aF50.420306691273
aF53.525314132956495
aF56.67727043826789
aF59.83692832998617
aF63.0094721101943
aF66.19042400867195
aF69.35153575411445
aF72.53020852816447
aF75.70176714629011
aF78.90261599255521
aF82.1131492522598
aF85.35820994213292
aF88.60254086745998
aF91.85875970664202
aF95.09963011697025
aF98.31517436784627
aF101.51169202765149
aF104.73994578846015
aF107.95190454790098
aF111.18702814237933
aF114.39595437051474
aF117.64508583330972
aF120.87430304571988
aF124.12075957670676
aF127.35749731949818
aF130.5753374155072
aF133.83527120790308
aF137.0707072062573
aF140.26774063475244
aF143.49363513744592
aF146.70803808884023
aF149.89677483186188
aF153.10597020190826
aF156.35527945784452
aF159.62251605336212
aF162.85126000138084
aF166.08611319527236
aF169.3955055153619
aF172.63628569653068
aF175.89753030335586
aF179.16805062047686
aF182.43811343925088
aF185.75082101333652
aF188.9990343659784
aF192.24152442520685
aF195.49524316954154
aF198.75539753623946
aF202.07993993744955
aF205.37247954227522
aF208.68502581293075
aF211.98983398347514
aF215.24356615459044
aF218.59310914677178
aF221.9045887969182
aF225.22545163824702
aF228.60154706045455
aF231.93962388916665
aF235.28748210967206
aF238.59670838003075
aF241.95047308943762
aF245.31525952625685
aF248.6568029290837
aF252.0209724047912
aF255.4360137214153
aF258.8216219060965
aF262.23500830982795
aF265.6068666250246
aF269.04805314752804
aF272.47838379739676
aF275.85334736424744
aF279.2733517201313
aF282.6812259658981
aF286.11331933622347
aF289.59061900545964
aF293.0566785408236
aF296.5421564098879
aF300.0113326216098
aF303.45926471899327
aF306.895179323508
aF310.3944715390913
aF313.85953515829476
aF317.3093618889047
aF320.8080603513551
aF324.3076469521045
aF327.7869854236191
aF331.28186111519
aF334.78149995848435
aF338.2695449586903
aF341.7433940096666
aF345.2197702543947
aF348.7163752963935
aF352.2028432057785
aF355.73274005371735
aF359.21854017685513
aF362.7747636250112
aF366.25183129761837
aF369.7568977648927
aF373.31143935985716
aF376.7905046171783
aF380.30334582753994
aF383.7995978629596
aF387.3088681122952
aF390.7461055536285
aF394.23413343916303
aF397.7099125857722
aF401.19445305403895
aF404.63767239237666
aF408.1463874422865
aF411.6482467313701
aF415.15441412878107
aF418.67702112504884
aF422.135313844864
aF425.6420420062382
aF429.1369605751199
aF432.71160825271994
aF436.33955939986697
aF439.8844010317105
aF443.3921227002171
aF446.8855545880014
aF450.3683736640405
aF453.9025384482833
aF457.3937475480204
aF460.8978776402565
aF464.3713045177391
aF467.900621361703
aF471.45900290561485
aF475.0040323232075
aF478.59870730542076
aF482.0849620531678
aF485.6030904041297
aF489.17940366873665
aF492.70906485613176
aF496.2718431402115
aF499.8176918164963
aF503.3379034113247
aF506.9029328518333
aF510.4310165751637
aF514.0194661457332
aF517.5413083569985
aF521.1002835160608
aF524.615080531367
aF528.1624512211636
aF531.7156117426022
aF535.2634961083567
aF538.808129420735
aF542.3562069175116
aF545.9201863160496
aF549.529676456875
aF553.0733055271518
aF556.5948088619427
aF560.0696914553919
aF563.587397958006
aF567.0575663450242
aF570.6111930967888
aF574.2296643925573
aF577.7578837744862
aF581.3752254345578
aF584.903619588852
aF588.449919326482
aF592.0154332315377
aF595.5325400580914
aF599.0545498263014
aF602.5469885719693
aF606.0636017118032
aF609.6065878261404
aF613.1618799056062
aF616.6655934438642
aF620.1709090125677
aF623.7807436001407
aF627.3062243588363
aF630.8413247762302
aF634.4056552888392
aF637.8939237950581
aF641.3608686552831
aF644.8891154457857
aF648.4582061139188
aF651.9647138528492
aF655.4835837376352
aF659.045499173232
aF662.6082634860471
aF666.1599510777439
aF669.7310816841588
aF673.2826636278438
aF676.8287122709635
aF680.4557433194087
aF684.0487554054262
aF687.6023503540227
aF691.2375820247336
aF694.8885881190618
aF698.5059286880017
aF702.0968036694819
aF705.6348415934453
aF709.256265812655
aF712.8838850488569
aF716.4569365767479
aF720.0727830885211
aF723.6586403105488
aF727.2263485411725
aF730.9102743246528
aF734.4530341316729
aF738.132940875923
aF741.7668273614632
aF745.4386865262329
aF748.98752973005
aF752.5990557653257
aF756.1890393998644
aF759.8391078785492
aF763.4683162617898
aF767.0927272965116
aF770.8177842004743
aF774.4105096256989
aF778.2095040781779
aF781.9099684196918
aF785.6918381496307
aF789.3681702619474
aF793.0431626608472
aF796.7301335013932
aF800.4020944741192
aF804.1353602043799
aF807.8574758354387
aF811.4977904042834
aF815.1169023947303
aF818.9120001969932
aF822.6341064966185
aF826.2260209248423
aF829.9956967634151
aF833.7512581646034
aF837.5117402485872
aF841.2267888914199
aF844.9146866256038
aF848.5545654616249
aF852.2623439974514
aF855.9832495954186
aF859.6698404257776
aF863.3225616175234
aF867.017310052674
aF870.7237874010839
aF874.3865268147783
aF878.148116768437
aF881.9052483664507
aF885.6576361067459
aF889.3703338453395
aF893.1504480759094
aF896.8266611925897
aF900.5858811904656
aF904.3446361922352
aF908.0766058064142
aF911.7578339093475
aF915.4464061723245
aF919.3315680843809
aF922.9966305001112
aF926.6941252702112
aF930.3755361966402
aF934.1582236009261
aF937.8432001182059
aF941.6261462912341
aF945.249655228142
aF949.0154337139112
aF952.8309147830423
aF956.5462770853278
aF960.321864194291
aF964.0803796460117
aF967.8321664087325
aF971.5395769572041
aF975.2893667322608
aF979.1002540463871
aF982.8283427151107
aF986.6101306450222
aF990.3677685091843
aF994.0824236496719
aF997.7705221238937
aF1001.593226606008
aF1005.3021030444858
aF1009.1910165923058
aF1012.9135643342647
aF1016.7647060181463
aF1020.4648306982456
aF1024.161497506029
aF1027.9642290167856
aF1031.636978189958
aF1035.4039699707048
aF1039.158482823047
aF1042.918676242451
aF1046.6864431756096
aF1050.4180667208914
aF1054.1576843903547
aF1057.8590478682268
aF1061.6779815638345
aF1065.4297246716628
aF1069.129241026596
aF1072.9124942284607
aF1076.7673324165612
aF1080.461019163763
aF1084.2128022316274
aF1087.955622872718
aF1091.665358566243
aF1095.5426382239978
aF1099.2852385456017
aF1102.9766422060143
aF1106.767647536398
aF1110.4573684631746
aF1114.296428244373
aF1118.1359157292388
aF1121.8980518905857
aF1125.7271710774396
aF1129.6006929748282
aF1133.4308142487764
aF1137.3096127296544
aF1141.158887408738
aF1145.0083154731442
aF1148.8691066357824
aF1152.7086483379146
aF1156.5635738977064
aF1160.3562552810968
aF1164.1488919294538
aF1167.9748891460902
aF1171.7747546410985
aF1175.6112797745475
aF1179.5034114958096
aF1183.355700457588
aF1187.205495760475
aF1191.093208528413
aF1194.9206386646451
aF1198.7659607132741
aF1202.7514329293633
aF1206.6103041216486
aF1210.5638116859382
aF1214.3598479368352
aF1218.2497475878479
aF1221.956503905814
aF1225.9257579920165
aF1229.8048893855025
aF1233.6254635775604
aF1237.540650021739
aF1241.3679453427353
aF1245.2334188561695
aF1249.0753576936456
aF1253.0352160258449
aF1256.8539947808006
aF1260.699531031277
aF1264.703955073992
aF1268.5241591044812
aF1272.2875462991822
aF1276.0899168019184
aF1279.9061634985878
aF1283.6577031349082
aF1287.499519784642
aF1291.37801879576
aF1295.1903086666769
aF1298.96280949442
aF1302.6313070486574
aF1306.6413628178295
aF1310.5238512998224
aF1314.2773197256715
aF1318.0562850685037
aF1321.984144623078
aF1325.7587499124604
aF1329.506924019325
aF1333.3186248215516
aF1337.042252090364
aF1340.9093214345357
aF1344.6883117083005
aF1348.4418497893644
aF1352.2593116902606
aF1356.099301838062
aF1360.1093818299914
aF1363.8625838644684
aF1367.692336403143
aF1371.5410836880394
aF1375.3582210387792
aF1379.1243084377331
aF1383.0611264085107
aF1387.0073714791442
aF1390.9320934116251
aF1394.7128804914123
aF1398.4505053513449
aF1402.2986309381806
aF1406.0161372495452
aF1409.8881813417393
aF1413.6925705600556
aF1417.5335635393128
aF1421.279468498468
aF1425.0593553928002
aF1428.9366244660791
aF1432.721607419903
aF1436.6326862236122
aF1440.4724162610387
aF1444.3666978606952
aF1448.1969471923064
aF1451.9825296777299
aF1455.902999058826
aF1459.7092022854292
aF1463.5815258463458
aF1467.4819235383795
aF1471.367265722523
aF1475.2797570124242
aF1479.0574404977212
aF1482.916138786297
aF1486.6989081021927
aF1490.66074847774
aF1494.54044165747
aF1498.3990479818679
aF1502.4066586114811
aF1506.3025969368398
aF1510.0581668566363
aF1514.018199490987
aF1517.9604825291183
aF1521.828260851161
aF1525.7268173261482
aF1529.551531729002
aF1533.417984900026
aF1537.3050879873167
aF1541.2110757175092
aF1544.978699390224
aF1548.7959312626124
aF1552.7144868642322
aF1556.701123346458
aF1560.5428940413353
aF1564.3454750044639
aF1568.2414911719684
aF1572.1944001268344
aF1576.1135944186192
aF1580.0349530762494
aF1584.0032155157483
aF1587.9710991200668
aF1591.915362307463
aF1595.8744578849223
aF1599.7196963924669
aF1603.7539700253753
aF1607.7227677279525
aF1611.5057154643873
aF1615.4034773105107
aF1619.3054863092402
aF1623.210382997326
aF1627.1484593449475
aF1631.1729686233673
aF1635.2483934950114
aF1639.1140686078702
aF1643.0556828886852
aF1646.9728239076342
aF1650.8928691549584
aF1654.8379872466355
aF1658.6019965458163
aF1662.3918178683525
aF1666.4717920911644
aF1670.4682736867871
aF1674.4451268414327
aF1678.3113042648351
aF1682.3067133237435
aF1686.3082654741931
aF1690.3471983412173
aF1694.3648878298375
aF1698.2677482218874
aF1702.304128035762
aF1706.2216710588702
aF1710.2282143464631
aF1714.201520492592
aF1718.2251511072216
aF1722.1939842320655
aF1726.1155579090284
aF1730.0712734818344
aF1734.037789943668
aF1738.0298693502148
aF1742.0958701145364
aF1746.12105426001
aF1750.027009989817
aF1754.1032436480514
aF1758.076890839737
aF1761.8894305626643
aF1765.8375425436443
aF1769.709100690853
aF1773.6387564356864
aF1777.4942255102756
aF1781.3649887741115
aF1785.3323839146071
aF1789.2199082376735
aF1793.0107426076743
aF1796.8692862173407
aF1800.7230186230804
aF1804.5316679495077
aF1808.412644632743
aF1812.1642338968832
aF1816.196745292277
aF1820.0335998269732
aF1823.9212767578742
aF1827.7243741066775
aF1831.5302183402082
aF1835.4211148757863
aF1839.1747444394757
aF1842.7803168618925
aF1846.5170064309548
aF1850.3937298911621
aF1854.2453483512077
aF1858.1059593065768
aF1862.0025339196548
aF1865.9013965091503
aF1869.712878599529
aF1873.6773437746547
aF1877.3705247147586
aF1881.2610902390193
aF1885.138746383265
aF1889.08264514972
aF1893.102897653844
aF1896.9865518709153
aF1900.6708212966448
aF1904.5480787659399
aF1908.3498630689487
aF1912.2230524518693
aF1916.0274469657318
aF1919.8746974013268
aF1923.6397797071998
aF1927.532037279071
aF1931.419176349787
aF1935.2376704325914
aF1939.0909730817307
aF1943.0000488775484
aF1947.0037216555709
aF1950.838089850019
aF1954.8156594482962
aF1958.7481895994335
aF1962.7743842550328
aF1966.5827350118154
aF1970.4810625216976
aF1974.3731607629427
aF1978.2219133880512
aF1982.03658737465
aF1985.9421667568538
aF1989.8413874084406
aF1993.7183067693204
aF1997.5704693905511
aF2001.3524692123012
aF2005.2137295320142
aF2009.0626915705127
aF2012.8918581595442
aF2016.7698050800943
aF2020.5405986557303
aF2024.374187723131
aF2028.3466545662516
aF2032.2685341201156
aF2036.0164273046641
aF2040.053927175491
aF2043.8017389222698
aF2047.8385203225503
aF2051.6946685458597
aF2055.457486957017
aF2059.444124140182
aF2063.2210664265012
aF2066.9969152456533
aF2071.013341133365
aF2074.9356579570253
aF2078.772697532751
aF2082.5152446768716
aF2086.453162861585
aF2090.3456587853047
aF2094.1222460754993
aF2097.9350536937495
aF2101.934314643135
aF2105.780005049366
aF2109.7218738309625
aF2113.4033549504475
aF2117.545742044887
aF2121.525450898256
aF2125.550773637072
aF2129.3271975793105
aF2133.428310261163
aF2137.437301934909
aF2141.416802077071
aF2145.341122779416
aF2149.2147260608763
aF2153.245130135046
aF2157.1382467178587
aF2161.019698340062
aF2165.0177103138253
aF2168.7311245523983
aF2172.6995776456224
aF2176.5151001648765
aF2180.4811723194607
aF2184.199690794497
aF2188.140369161612
aF2192.0430624605997
aF2195.8893073657046
aF2199.728686669643
aF2203.6391540459927
aF2207.501533330306
aF2211.583000736652
aF2215.347735643553
aF2219.388714197852
aF2223.2021277496488
aF2227.06639101408
aF2230.991291710383
aF2234.9399378340763
aF2238.7948824428186
aF2242.7624319938914
aF2246.895891688931
aF2251.0662350118428
aF2254.8755012985653
aF2258.972234132058
aF2262.893513362065
aF2266.9179824372345
aF2270.9405870136825
aF2275.0081542593275
aF2278.875615106626
aF2282.9105392270058
aF2286.810851970304
aF2290.743143282911
aF2294.791391291764
aF2298.7711962905437
aF2302.863950207137
aF2306.7293901030002
aF2310.650742756593
aF2314.798972091602
aF2318.7625798217905
aF2322.583718209249
aF2326.541200939396
aF2330.5251509851946
aF2334.3915205769954
aF2338.3395703217006
aF2342.3070659975997
aF2346.1797888857495
aF2350.1076222863317
aF2353.996617723468
aF2357.8457690264872
aF2361.850068160108
aF2365.7223238704287
aF2369.5839773362295
aF2373.502668758362
aF2377.407289249137
aF2381.3503213664426
aF2385.3378859464387
aF2389.2615584155674
aF2393.2471097765333
aF2397.1380129837344
aF2400.9199528917316
aF2404.862537015527
aF2408.8573782277413
aF2412.681661465654
aF2416.7700697002238
aF2420.5389653176344
aF2424.4863472966313
aF2428.284063206495
aF2432.205191006565
aF2436.156899858983
aF2439.9990859161817
aF2443.805594320009
aF2447.6045624976427
aF2451.5371405544834
aF2455.404393579361
aF2459.2565826089035
aF2462.8851455737467
aF2466.76715409881
aF2470.701513803275
aF2474.5163787038364
aF2478.43428104072
aF2482.222937386458
aF2486.0586394640563
aF2489.8572720680722
aF2493.8245559814054
aF2497.6316772371383
aF2501.352869406443
aF2505.308603480714
aF2509.3437743201143
aF2513.3357452147907
aF2517.0475199088564
aF2521.0058827740645
aF2524.8606587096006
aF2528.7750211885773
aF2532.856703080821
aF2536.590745925573
aF2540.443674722446
aF2544.469456111395
aF2548.1545116034877
aF2551.9598715656084
aF2555.799656811876
aF2559.6710913046354
aF2563.4872702470507
aF2567.3278838574192
aF2571.263044733378
aF2575.0139489785865
aF2578.569391990615
aF2582.3752191154085
aF2586.120828608534
aF2589.7023485841064
aF2593.465496854077
aF2597.406133297408
aF2601.2593856090407
aF2605.0232900714173
aF2608.9594680730675
aF2612.565328963879
aF2616.3298370514526
aF2619.9853638671048
aF2623.762273141929
aF2627.5117635466313
aF2631.64254795516
aF2635.30352046916
aF2639.1416546188816
aF2642.7232863888794
aF2646.7720569442904
aF2650.5403506543494
aF2654.483066361204
aF2658.19344778715
aF2661.9121013881368
aF2665.621696003449
aF2669.5276088402484
aF2673.486540893866
aF2677.158042103399
aF2680.8563718776873
aF2684.481325876258
aF2688.291005205471
aF2691.906763435645
aF2695.638643202966
aF2699.377548270975
aF2703.0468378792425
aF2706.530463316154
aF2710.172340803903
aF2713.9066090571414
aF2717.775046247576
aF2721.265732246949
aF2725.215471510161
aF2728.8416717219466
aF2732.7566523634882
aF2736.605429566069
aF2740.288646266359
aF2743.990893282045
aF2747.775201541507
aF2751.2117240460843
aF2755.220242384212
aF2758.9663858624313
aF2762.8436453311183
aF2766.6431888759394
aF2770.42415880836
aF2773.985553306846
aF2777.8722245615763
aF2781.5042662076635
aF2785.321544284563
aF2789.139130240661
aF2792.8987977162847
aF2797.0429351771236
aF2800.774723777532
aF2804.5580539999614
aF2808.2544671653536
aF2812.1351540044857
aF2815.7148259076403
aF2819.581894371905
aF2823.2387233482477
aF2827.1773557776314
aF2831.040480898527
aF2834.7749966325046
aF2838.877766112937
aF2842.6477823317746
aF2846.388844933664
aF2849.9687413174606
aF2853.8353670222223
aF2857.639539752174
aF2861.4844930157387
aF2865.261687935883
aF2869.224030241743
aF2873.0544548892726
aF2876.9512776965066
aF2880.889453922525
aF2884.7718325791852
aF2888.4752205266163
aF2892.3072376723712
aF2896.1546033216646
aF2900.048990155876
aF2903.630733314918
aF2907.618109748497
aF2911.2291546591664
aF2915.4261992378606
aF2919.075192083084
aF2922.9120958217445
aF2926.869778851821
aF2930.6608572055043
aF2934.6085760337287
aF2938.320180263626
aF2942.2237458536165
aF2946.161528064545
aF2949.5811932442366
aF2953.575678625741
aF2957.236845607279
aF2961.02348747304
aF2964.8641002190648
aF2968.945725838645
aF2972.7041000452264
aF2976.6468180870756
aF2980.3621636338885
aF2984.285150905742
aF2988.012114331601
aF2991.936273868941
aF2995.6147364559974
aF2999.56943327217
aF3003.297476165796
aF3007.380082724638
aF3011.223514788104
aF3014.908000150709
aF3018.8412678762697
aF3023.0033725574617
aF3026.6737028938373
aF3030.602743923538
aF3034.6662945905205
aF3038.469427944959
aF3042.1343419495847
aF3046.0816843081166
aF3050.2015453492313
aF3053.9889506096442
aF3057.8081790159044
aF3061.4690620856636
aF3065.307360678229
aF3069.0648789412794
aF3073.033001376451
aF3076.5243543252254
aF3080.6838106905057
aF3084.468944297482
aF3088.480534924556
aF3092.16092927526
aF3096.3144442873304
aF3100.0736212206907
aF3104.017807750818
aF3107.7268843328898
aF3111.50797712742
aF3115.2653501307373
aF3119.14273590893
aF3122.970535444675
aF3126.961415068901
aF3130.4988255804483
aF3134.251145493853
aF3138.3535018953044
aF3141.942542238922
a.