(lp0
F1.932760050932093e-06
aF1.852772519677988e-05
aF5.63461599320141e-05
aF0.19696642498123923
aF0.3716952814537598
aF0.28345887861641766
aF0.44385053929121726
aF0.635232133812572
aF0.7999670746470221
aF1.5357866269830098
aF2.5808651224746915
aF3.6904763016250173
aF4.775633110147384
aF6.175497511892176
aF7.840891356942549
aF9.71198717231607
aF11.759996132560248
aF13.953620125596963
aF16.293598041458907
aF18.737436068952835
aF21.31514192114902
aF23.952004887504568
aF26.69705677769136
aF29.532611064377107
aF32.40617089838833
aF35.299880417576325
aF38.27461867327801
aF41.30464144538149
aF44.353326980190445
aF47.42009018247094
aF50.50880065085593
aF53.62057470991223
aF56.76116805675392
aF59.92059308439021
aF63.084587965205216
aF66.27895642465994
aF69.42245099726217
aF72.58687784717259
aF75.77311819278867
aF78.96284906384409
aF82.16616907007231
aF85.4173694182117
aF88.6449379964974
aF91.91245810421323
aF95.1461443733789
aF98.35575820756017
aF101.55334061848302
aF104.74506035102259
aF107.97158901410555
aF111.19613494067272
aF114.38209864890374
aF117.64787110247994
aF120.87863945221696
aF124.12481083193859
aF127.34263417206371
aF130.57383698830915
aF133.83740356180334
aF137.06276443305094
aF140.25179253131867
aF143.48829592457915
aF146.67082670973645
aF149.88585686613783
aF153.08543578689444
aF156.33164009725016
aF159.59897954696083
aF162.81700986376555
aF166.08344863989703
aF169.35358999811658
aF172.59143589070905
aF175.86700445738614
aF179.11022763765718
aF182.39232726385703
aF185.71743158219786
aF188.93025563861013
aF192.1737773381945
aF195.43321614089652
aF198.71128428764013
aF202.03077322318694
aF205.31616060142525
aF208.6296994266887
aF211.94260942168012
aF215.1966122522116
aF218.55355487757782
aF221.8391465562525
aF225.16476437954495
aF228.54167996013888
aF231.88445348126666
aF235.2200479834955
aF238.50140413848086
aF241.86916810234936
aF245.25943852219908
aF248.58240703252005
aF251.95240220226023
aF255.36724274492988
aF258.73868646192915
aF262.14168028080417
aF265.50199382224224
aF268.9668351632214
aF272.3781240362684
aF275.76645366819537
aF279.1965141113713
aF282.59567504979714
aF285.9980192364031
aF289.49619264129666
aF292.9554907669093
aF296.4288498422562
aF299.9033086984756
aF303.34908466819223
aF306.83192567175763
aF310.2872340672253
aF313.7701693872075
aF317.2487089778135
aF320.7002461020314
aF324.23209795595193
aF327.7143864047249
aF331.18458002458846
aF334.7057290559064
aF338.17953876049614
aF341.6453138787515
aF345.1424270355916
aF348.61540157044294
aF352.10568641356423
aF355.60647796543583
aF359.13451484168354
aF362.65754789799496
aF366.16950786579423
aF369.63447483445594
aF373.19545728783146
aF376.67033517435567
aF380.1891312418786
aF383.6727900423206
aF387.1901314425573
aF390.60992072516973
aF394.1143515571031
aF397.58289050950333
aF401.0510511695262
aF404.5105002734728
aF407.9944983916412
aF411.53314682241563
aF415.03166210480873
aF418.5463488492283
aF422.02068960981995
aF425.46511971565644
aF429.0261266286591
aF432.5787105234654
aF436.2467639881592
aF439.7802985640454
aF443.28233434092647
aF446.79431644623537
aF450.2506951687128
aF453.79074447769875
aF457.3038140740454
aF460.7857069905202
aF464.25909243195525
aF467.7935752664044
aF471.36489560484205
aF474.8992865488931
aF478.45761705314914
aF481.9404211772535
aF485.44433401140685
aF489.0160325208033
aF492.54962103479363
aF496.1083224225879
aF499.6684369764805
aF503.1559924725575
aF506.72258302897114
aF510.2333556964924
aF513.8568364096739
aF517.3587547427665
aF520.9388848306825
aF524.4221173326071
aF527.9963653809695
aF531.5505538156516
aF535.1056062117386
aF538.6196954102597
aF542.1620551264401
aF545.7489440897659
aF549.2809414914816
aF552.871703248443
aF556.3420019068875
aF559.8506548883497
aF563.36384995055
aF566.8537261848655
aF570.4134896135223
aF574.0039587954057
aF577.5708485402872
aF581.1386600339581
aF584.6779826099071
aF588.2601370201181
aF591.7852096815886
aF595.3588147527904
aF598.8758151776461
aF602.3199197615755
aF605.8822861348486
aF609.3754574743316
aF612.9710256245555
aF616.5017249865343
aF619.9769458181453
aF623.6241078441615
aF627.0992860514972
aF630.645084324445
aF634.1792475025617
aF637.6762415131954
aF641.1459464353845
aF644.6793631102643
aF648.2451306654119
aF651.7632169968804
aF655.2728259498349
aF658.8005674932324
aF662.3768279818307
aF665.9402538647746
aF669.5070194555782
aF673.0547710385936
aF676.5984455136515
aF680.2137450246994
aF683.8048123313814
aF687.354094144743
aF690.9833341201837
aF694.619790957269
aF698.1845250717829
aF701.8165060437702
aF705.3205356113274
aF708.9982331417109
aF712.5674040473773
aF716.2000281702567
aF719.8119244896347
aF723.4313779058023
aF726.9555988425501
aF730.6802185827872
aF734.1714001131477
aF737.8354919071861
aF741.5353368677683
aF745.1604630806986
aF748.7140420486794
aF752.2914058128384
aF755.9470224712578
aF759.6072788750794
aF763.1578874658692
aF766.8292955777908
aF770.522099979877
aF774.1772418900972
aF777.8897549034025
aF781.6111191947648
aF785.3592727596362
aF789.0710513158282
aF792.7357237993302
aF796.3557755264725
aF800.0946984268271
aF803.8443883849208
aF807.5046383007706
aF811.1729804615093
aF814.8931799764553
aF818.551376195072
aF822.3270116485966
aF825.9831163574363
aF829.7085647236204
aF833.4445865576475
aF837.1744488155153
aF840.9587046401942
aF844.5551978910609
aF848.2129251537465
aF851.9022051903586
aF855.6729715442686
aF859.2566850983532
aF863.0026172175219
aF866.6392982882494
aF870.3756243992068
aF874.0654952731979
aF877.7838083112098
aF881.5549898955187
aF885.3260410369696
aF889.0763452278766
aF892.8319904519976
aF896.5844361250256
aF900.2570142971695
aF903.9692157890214
aF907.6994806481449
aF911.3895048727874
aF915.1550739803895
aF918.9298791012313
aF922.6719311145511
aF926.3817296722451
aF929.9996145301989
aF933.8223135826149
aF937.5289196772383
aF941.2954389946375
aF944.9092724473661
aF948.6629289324777
aF952.5226719456927
aF956.2957972624157
aF959.9334651809938
aF963.7466991380104
aF967.5720589316604
aF971.1654948273433
aF974.9342976454014
aF978.8243136766221
aF982.4874547990416
aF986.2660894949013
aF990.0477655734926
aF993.7629712326541
aF997.4257861085161
aF1001.1988930948842
aF1005.0032677082777
aF1008.8519953315983
aF1012.5155102928532
aF1016.3999978330808
aF1020.1409601990089
aF1023.8080033249796
aF1027.5731858427628
aF1031.1949549166054
aF1035.1068841631277
aF1038.7017900014396
aF1042.576615062878
aF1046.3074715557082
aF1050.0396067343988
aF1053.7906220757839
aF1057.4161796540568
aF1061.2053508819456
aF1065.0681008868778
aF1068.6796261308991
aF1072.5377866748809
aF1076.378246059683
aF1079.9642424556698
aF1083.7135930745983
aF1087.4928410227199
aF1091.2316957350613
aF1095.0085480504224
aF1098.736765419543
aF1102.4964795818069
aF1106.213107502496
aF1109.9536359386586
aF1113.7528614905448
aF1117.5843313396429
aF1121.4282904065735
aF1125.2121483001852
aF1129.1239462106926
aF1132.9629960734412
aF1136.7774794082452
aF1140.6470075137224
aF1144.5078284997792
aF1148.3612310371518
aF1152.225969799229
aF1156.015926029414
aF1159.8897774767804
aF1163.7148866326975
aF1167.400279491111
aF1171.2451207816964
aF1175.074460970945
aF1179.0500257361907
aF1182.8636119115788
aF1186.766631035828
aF1190.507894374286
aF1194.3608103631368
aF1198.2776827067157
aF1202.129030023345
aF1206.088261358509
aF1209.9295279884147
aF1213.7680285382357
aF1217.7164741378774
aF1221.3930463217366
aF1225.3354718187434
aF1229.1742875563953
aF1233.0744382609503
aF1237.0417564421662
aF1240.8752600707764
aF1244.7184096202025
aF1248.6080111055298
aF1252.5023493927415
aF1256.3380043485024
aF1260.2114776746669
aF1264.1186576388518
aF1267.9913167650907
aF1271.6935304603044
aF1275.511357743374
aF1279.3321796803828
aF1283.0638489890757
aF1286.9269425195187
aF1290.7365761890094
aF1294.5979512507752
aF1298.3277626465617
aF1302.0174460005667
aF1305.9861120463659
aF1309.8945083472718
aF1313.5533016867184
aF1317.3420081629367
aF1321.2943894346013
aF1325.1022512394009
aF1328.8093551518039
aF1332.707966218324
aF1336.4617616758374
aF1340.1386422847165
aF1344.1403397019383
aF1347.849800220756
aF1351.6381345063235
aF1355.5974408214636
aF1359.505852662898
aF1363.2898438044228
aF1367.1474714676597
aF1370.8917688590163
aF1374.8869528770038
aF1378.4637299803935
aF1382.5017260689826
aF1386.4506230557326
aF1390.294538848666
aF1394.0665262892292
aF1397.904953659341
aF1401.5642327489454
aF1405.440117547252
aF1409.349360671218
aF1413.0361924702383
aF1416.998964749628
aF1420.5692444400408
aF1424.4197282892221
aF1428.3729849243277
aF1431.9803675387477
aF1435.997379911312
aF1439.7528253474359
aF1443.6686764893702
aF1447.5150699002177
aF1451.2048748771217
aF1455.1214498575764
aF1459.056409178726
aF1462.8447864694035
aF1466.7220893456745
aF1470.6199579553872
aF1474.592217378381
aF1478.3781004513335
aF1482.1109975006561
aF1485.9335269175751
aF1489.919161516741
aF1493.8059315172618
aF1497.708468987298
aF1501.729226801291
aF1505.4489458749879
aF1509.3789160645924
aF1513.1632513095449
aF1517.2496890342686
aF1521.07121078538
aF1525.0060952010886
aF1528.8231836639281
aF1532.6776651435762
aF1536.613296138163
aF1540.4185560746034
aF1544.2357782356883
aF1548.0689436171647
aF1551.976317610613
aF1555.9603534714367
aF1559.9818888117406
aF1563.528080898626
aF1567.4408409754328
aF1571.503153925823
aF1575.4614950242747
aF1579.3777300519944
aF1583.2552761706888
aF1587.2481091729592
aF1591.2279036787722
aF1595.0490502140308
aF1599.0198520270806
aF1603.0017947032838
aF1606.9947066355164
aF1610.843154686801
aF1614.7836435597887
aF1618.4876640019693
aF1622.5343248471393
aF1626.4703565603684
aF1630.3720785851028
aF1634.5209603457936
aF1638.3759577676524
aF1642.2048811941888
aF1646.094679693209
aF1650.0023227711308
aF1653.9593195266273
aF1657.7159639367942
aF1661.6422829712672
aF1665.6494806378028
aF1669.5807148452982
aF1673.5556565345357
aF1677.4006922935798
aF1681.5913800364146
aF1685.423641199799
aF1689.5472563371122
aF1693.5889468090295
aF1697.51827842375
aF1701.3917013874373
aF1705.4038186889106
aF1709.3301659223268
aF1713.3971062599132
aF1717.3525660925704
aF1721.3512553404125
aF1725.4045340787434
aF1729.2081658325494
aF1733.1649613339218
aF1737.250270155622
aF1741.238086888533
aF1745.1755141804579
aF1749.141093673073
aF1753.2146364950936
aF1757.1999541737498
aF1760.9525589993452
aF1764.9255926254496
aF1768.8565225805453
aF1772.7017025045209
aF1776.6509005068788
aF1780.3899297088492
aF1784.441497366441
aF1788.2418615038994
aF1792.188251792535
aF1796.0542367055739
aF1799.842581073685
aF1803.589444133075
aF1807.4907443747488
aF1811.391555310233
aF1815.224588844119
aF1819.1680978156528
aF1823.0367676145252
aF1826.8179151710135
aF1830.6604519756515
aF1834.5685416855354
aF1838.213812196185
aF1841.8908689408513
aF1845.6503835384624
aF1849.4649876565002
aF1853.3985295369919
aF1857.2185486499313
aF1861.2384841135226
aF1865.0023413556405
aF1868.748467903389
aF1872.8455490106978
aF1876.4934790871725
aF1880.4126984372738
aF1884.3019857167744
aF1888.2245378075802
aF1892.1978164218147
aF1896.0508816912616
aF1899.8055131265103
aF1903.6103281805458
aF1907.453090671782
aF1911.374155113138
aF1914.9929059373826
aF1918.8131648781757
aF1922.7011629554338
aF1926.4309293035642
aF1930.3396098240728
aF1934.2416974969594
aF1937.9090034977216
aF1942.1438136540562
aF1946.0378805650068
aF1949.7840925629457
aF1953.8563685825677
aF1957.718979537488
aF1961.841304716405
aF1965.6186657304784
aF1969.4966970114783
aF1973.5305665311405
aF1977.2950252084186
aF1981.0190569933186
aF1985.1982348910938
aF1988.8749789042597
aF1992.8322218807266
aF1996.5965523594823
aF2000.4139340296244
aF2004.2178057120914
aF2008.1447397147012
aF2011.827926069286
aF2015.8581324629638
aF2019.5915503425276
aF2023.3887470030434
aF2027.553505250812
aF2031.384411746718
aF2035.1678101201437
aF2039.1964602975659
aF2043.0434036850456
aF2046.928707572418
aF2050.7133207764223
aF2054.7121913096394
aF2058.5644911423924
aF2062.3678844102296
aF2066.1368741943347
aF2070.1773199619424
aF2073.9173860735827
aF2077.8615868697834
aF2081.536579229126
aF2085.5285636091826
aF2089.3655712779414
aF2093.3010010466437
aF2096.9272526126647
aF2100.8658635620095
aF2104.8739405631545
aF2108.741048445347
aF2112.462916870213
aF2116.565405786218
aF2120.4972827286047
aF2124.589342297071
aF2128.143248608194
aF2132.4650574968923
aF2136.4064794348205
aF2140.22200046914
aF2144.227437060663
aF2148.2913353183267
aF2152.1602940083485
aF2156.206234865329
aF2159.8607017712284
aF2164.0558900353326
aF2167.646214035544
aF2171.694615277423
aF2175.526746647137
aF2179.379909277846
aF2183.272362994796
aF2187.136983050874
aF2190.9814937392484
aF2194.930514234841
aF2198.6989544076523
aF2202.5738457500593
aF2206.4492094543443
aF2210.404608797981
aF2214.2658692003506
aF2218.256646235767
aF2222.0866531759557
aF2226.0538440397163
aF2229.907210181813
aF2233.984223410902
aF2237.639446940538
aF2241.7381244730655
aF2245.8888011922277
aF2249.9441485284806
aF2253.9685986972186
aF2257.897016938235
aF2261.9816058353476
aF2265.847782244017
aF2269.9892702201387
aF2273.9363761224254
aF2277.788817228774
aF2281.8816084078503
aF2285.6923836184005
aF2289.712003418798
aF2293.886485021851
aF2297.7406115244366
aF2301.798113122827
aF2305.7371694775507
aF2309.570175873212
aF2313.6915659721785
aF2317.773767091791
aF2321.6503026117975
aF2325.552075341697
aF2329.55185019172
aF2333.4062856594314
aF2337.29268057606
aF2341.313107872821
aF2345.1114116171584
aF2349.0596119469315
aF2353.052997758794
aF2356.620616588526
aF2360.911831171938
aF2364.8128335518954
aF2368.619054088997
aF2372.452942756782
aF2376.268796339091
aF2380.2285885494366
aF2384.326717888177
aF2387.9213553606146
aF2392.122664633108
aF2395.955183902992
aF2399.5186017434658
aF2403.7531937064955
aF2407.7767100708625
aF2411.675810721889
aF2415.5691357298306
aF2419.492382395317
aF2423.410729630679
aF2427.1593579000178
aF2431.20652208415
aF2435.0132098463405
aF2438.914056058559
aF2442.627540170087
aF2446.4019517066786
aF2450.4443843610434
aF2454.248981742198
aF2457.9227221523274
aF2461.667478757138
aF2465.606040594242
aF2469.4641187960297
aF2473.255632604461
aF2477.1401001807744
aF2481.129536444451
aF2484.8284001083885
aF2488.700301621058
aF2492.6943738440614
aF2496.3457124806737
aF2500.1354915853644
aF2504.050601178356
aF2508.1317832938234
aF2512.219937351984
aF2515.9337511748645
aF2519.8879587515535
aF2523.6755432767163
aF2527.5707424936536
aF2531.627229258557
aF2535.505687563391
aF2539.4183705226847
aF2543.4563359246713
aF2546.9234336762224
aF2550.7745423069005
aF2554.561920523392
aF2558.5586944858
aF2562.1711606459194
aF2565.990714567205
aF2570.049146382724
aF2573.6326077127005
aF2577.4651557112984
aF2580.991779701895
aF2584.8117570227173
aF2588.3978861025685
aF2592.271832899749
aF2595.958880642951
aF2600.088692600298
aF2603.5060951957703
aF2607.644815580164
aF2611.189136728135
aF2615.0041736769936
aF2618.6648661999798
aF2622.4769540994316
aF2626.330057953397
aF2630.374708122102
aF2633.9124925576402
aF2637.74307418098
aF2641.4658012750533
aF2645.5259293298204
aF2649.35506178135
aF2653.2993817697566
aF2657.0470993228164
aF2660.8002136106943
aF2664.493288803653
aF2668.289266363049
aF2672.24064424315
aF2675.948068428612
aF2679.7399833843574
aF2683.267941357511
aF2687.2713743407257
aF2690.593297056564
aF2694.624194784682
aF2698.1715430144827
aF2701.6163641529797
aF2705.47386630761
aF2708.9869584002117
aF2712.5768045260065
aF2716.604020134353
aF2719.8654192191675
aF2724.0406588573787
aF2727.3739299529557
aF2731.5804667248894
aF2735.3335261328516
aF2739.1206208945887
aF2742.643394376928
aF2746.4812782842655
aF2749.96814693339
aF2753.700452860399
aF2757.6570541830197
aF2761.4254744320406
aF2765.3055235524666
aF2768.956027463335
aF2772.5518658577
aF2776.347826154282
aF2780.121822248788
aF2783.910246990051
aF2787.776164222138
aF2791.5171262680465
aF2795.719791169857
aF2799.2610892474304
aF2803.0528460100113
aF2807.0213266894852
aF2810.615116144019
aF2814.3975489827944
aF2818.1850556869604
aF2821.8985539056853
aF2825.74508494549
aF2829.617107488881
aF2833.283748471829
aF2837.5608365210346
aF2841.0646553859874
aF2844.9258561079123
aF2848.4732886602324
aF2852.3912238353955
aF2856.1618750624193
aF2859.906435625552
aF2863.8353732838477
aF2867.768686781106
aF2871.4805287255585
aF2875.424275033018
aF2879.24198020967
aF2883.276289817694
aF2886.9401891241973
aF2890.956265210014
aF2894.820066060915
aF2898.6576553877644
aF2902.4308828640815
aF2906.2995859740486
aF2909.9181141880968
aF2914.125587031623
aF2917.8460127414564
aF2921.787689732376
aF2925.2169934812546
aF2929.338969966249
aF2933.197286422126
aF2936.5935819316433
aF2940.838932376519
aF2944.478449580128
aF2947.9928652634526
aF2952.0029064705436
aF2955.602917697572
aF2959.801595813002
aF2962.970368627645
aF2967.38295817547
aF2971.3060949244555
aF2974.8547198090923
aF2978.739958601745
aF2983.0318999213905
aF2986.225048936549
aF2990.1937458411358
aF2994.025185623071
aF2997.795089258778
aF3001.4527415846665
aF3005.7305861728296
aF3009.383941535822
aF3013.2755473774932
aF3017.177698442782
aF3021.28614191039
aF3025.1532730797257
aF3028.7748249649385
aF3032.8898869224768
aF3036.8758314881597
aF3040.3884364984597
aF3043.993409408081
aF3048.885580686398
aF3051.8961553543436
aF3056.0759458380962
aF3059.665384005599
aF3063.6989412739977
aF3067.2941175560804
aF3071.255461765707
aF3075.0875083221404
aF3079.265210732057
aF3082.624068474293
aF3086.9052373463724
aF3090.5970296218234
aF3094.5765208570597
aF3098.8430773025334
aF3102.4597420678483
aF3106.1160661753047
aF3109.620301981254
a.