(lp0
F1.3913495162741515e-05
aF0.00032475365115890663
aF0.0007470651013874066
aF0.4362195770592227
aF0.5214481430740178
aF0.5638286068294669
aF0.6573535511821912
aF0.8013949704277238
aF1.0086894650242362
aF2.052954950854811
aF3.4188832275429277
aF4.880423288591123
aF6.573569943226828
aF8.544085338642683
aF10.837154333926803
aF13.377579275273572
aF16.1420986659504
aF19.081256981227252
aF22.23148416289593
aF25.510391214700302
aF28.949857959718837
aF32.48940326025448
aF36.231484362132385
aF40.03853554836759
aF43.9724217653373
aF47.99691409048328
aF52.18695056460809
aF56.483089852991256
aF60.75452636619823
aF65.16387747203126
aF69.72594234828861
aF74.30199540586169
aF79.0970061759737
aF83.75767310053261
aF88.51917410941066
aF93.31219514448304
aF98.27172205382224
aF103.21229458195462
aF108.26831489133548
aF113.24521986759865
aF118.48870602376218
aF123.6742279197536
aF128.81197909439896
aF134.09016188714156
aF139.24925084626625
aF144.43022309371418
aF149.77511448263107
aF155.123588021426
aF160.50880521187108
aF165.890282958616
aF171.45063539516673
aF176.9386223941941
aF182.33084940941237
aF187.80176715080486
aF193.1758793737211
aF198.7088356202433
aF204.30478095026479
aF210.0883557012791
aF215.66138516673303
aF221.2220673495471
aF226.84927808700002
aF232.62713473364448
aF238.2848389696279
aF243.87010864028306
aF249.41803468529397
aF255.2708148024609
aF260.878745634917
aF266.74186959864386
aF272.4419244559326
aF278.2451645175633
aF283.75852549077734
aF289.60923731247857
aF295.4158921373302
aF301.20957922925106
aF307.27827041752374
aF313.35340961734454
aF319.12550620418676
aF325.26467781093055
aF331.19233549248
aF337.1605996015013
aF343.161798377752
aF349.0341703279388
aF355.1377068776989
aF361.32810516268336
aF367.36949650557074
aF373.5096250984753
aF379.33550333144905
aF385.5022569911111
aF391.41308176450417
aF397.6132717279477
aF403.56676923647285
aF409.61971341446457
aF415.65027487044466
aF421.8424714039413
aF428.0295941636694
aF434.21400300322574
aF440.64226647383845
aF446.80280906688915
aF452.9966351189759
aF459.7182790516618
aF466.2624872531751
aF472.7745543370445
aF479.2656759863542
aF485.7169152752927
aF492.6649021480155
aF499.1080911939773
aF505.7895534423312
aF511.91427128039226
aF518.420905264329
aF524.8695007185572
aF531.3598147736122
aF537.9305037918823
aF544.3006072405321
aF550.639433642104
aF556.8445469293164
aF563.4284595130815
aF570.1236544185142
aF576.6379411055688
aF583.2630302974115
aF589.8132822205329
aF596.8872524477081
aF603.8507324988409
aF610.3667454798332
aF617.2499397333431
aF623.7786208942493
aF630.6893093599895
aF637.0183222528211
aF644.1224311892573
aF650.7466273538984
aF657.2943432095332
aF664.1273388966156
aF671.1122377071222
aF678.0165506114918
aF684.9104173814668
aF691.6332931522093
aF698.0407478160877
aF704.9069784692987
aF711.994630984505
aF718.9927305770103
aF726.0473930134243
aF733.5495075673269
aF740.2117740335129
aF747.0690142804156
aF753.8128564407392
aF760.4468269569571
aF767.5196036610811
aF774.6646667717616
aF781.7967919892446
aF788.5022534845549
aF795.2374182779246
aF801.856707684604
aF809.003338464677
aF815.9297226369429
aF823.0841864174176
aF830.3990977959515
aF837.3894169688314
aF844.5060705838705
aF851.5988538150526
aF858.5558981444561
aF865.697134245305
aF872.6079356836855
aF879.8208976677331
aF886.8268042958099
aF893.4902241761505
aF900.6612107498563
aF907.3353011008987
aF914.1078512281742
aF921.1510846077514
aF928.5893640503418
aF935.7633507076479
aF943.4555259814332
aF950.7185934775349
aF958.1631765404162
aF965.45754576988
aF972.2755483422213
aF979.1049260763908
aF986.02258393619
aF992.7660059915229
aF999.7680429580992
aF1006.6399890550216
aF1013.8046787314368
aF1020.9595735208185
aF1028.364242649105
aF1035.5154838530168
aF1042.233774484345
aF1049.8872067142727
aF1056.940832243645
aF1064.5148239854589
aF1072.0712119385269
aF1079.3638555781233
aF1086.752029013737
aF1094.0499823793448
aF1101.3104729134398
aF1108.6203030527838
aF1116.0363058801706
aF1123.4009227915606
aF1130.3642480847352
aF1137.887850423941
aF1145.1042026081957
aF1152.2131038064852
aF1159.4685511548093
aF1166.4883270106573
aF1173.1966236898245
aF1180.471249814485
aF1187.5526923612076
aF1194.7884811606032
aF1202.0392946262095
aF1208.71209226403
aF1215.4703872014836
aF1222.9743889429988
aF1230.0997384214381
aF1237.8236235298484
aF1245.1928880809503
aF1252.177648662685
aF1259.6277604132854
aF1267.1223592692202
aF1274.9315791426293
aF1282.4175308412948
aF1289.8793680676633
aF1297.6975600029677
aF1305.1534312770711
aF1312.934211746809
aF1320.6010525827692
aF1327.7691091074378
aF1335.6306559931727
aF1342.7104013430665
aF1350.1774301271764
aF1357.2795755771353
aF1364.7021924821233
aF1372.194504465238
aF1379.4798504901732
aF1387.3000166961942
aF1395.0671749777382
aF1402.4108808962922
aF1409.7180338511478
aF1416.6894249227944
aF1423.7987276150202
aF1431.454368391764
aF1438.1505500009273
aF1445.5118265805877
aF1452.6630001298436
aF1460.5055326253305
aF1467.7565477073751
aF1474.8622359073286
aF1482.3771135741779
aF1490.1082434550365
aF1496.837591020825
aF1504.8739658306743
aF1512.993479390049
aF1520.263268467332
aF1527.9594931777497
aF1535.502444477429
aF1542.943480841828
aF1550.059050772627
aF1557.5921283285568
aF1564.4627168782515
aF1571.6377909672633
aF1579.6809704433956
aF1587.2691480086812
aF1594.9505236112013
aF1601.808754115083
aF1609.7960010757774
aF1616.5989436978919
aF1624.2230129441434
aF1631.6721026420973
aF1639.2696374412196
aF1647.1576541068894
aF1654.4173004507595
aF1662.3223570110272
aF1669.6258868701484
aF1677.4749751931229
aF1684.2734659048751
aF1691.8708697708494
aF1699.4505040014094
aF1707.3559370768173
aF1715.0623133567044
aF1722.907977593738
aF1730.423761430453
aF1738.893593345759
aF1746.782005508518
aF1755.1028116248447
aF1763.4980479255153
aF1771.148176658258
aF1778.8324029081198
aF1786.285145925493
aF1794.1627398073197
aF1802.254847054678
aF1810.3291378079423
aF1818.274349128616
aF1825.4608212242324
aF1833.6469270997534
aF1841.3390381423128
aF1849.1412954789898
aF1856.8124032229648
aF1864.4319886516405
aF1872.400000927291
aF1878.9888362432662
aF1886.7991896753138
aF1895.0262059949748
aF1903.1122468847354
aF1910.4228796899054
aF1917.8403247192782
aF1925.9335122656728
aF1934.2402062142442
aF1941.8389579083998
aF1949.570299967546
aF1957.0203906626618
aF1964.8192807396622
aF1972.4757747445337
aF1980.2084693272016
aF1988.9422905732458
aF1996.1860324937868
aF2003.5152959504449
aF2010.9749763534192
aF2018.5795525142098
aF2026.141776025968
aF2033.8502985683554
aF2041.3180304913103
aF2048.9218689144827
aF2056.868029153762
aF2064.368255616649
aF2072.961321253373
aF2080.926049742201
aF2087.7941601980915
aF2095.694121192452
aF2103.3757140207717
aF2111.2996253466004
aF2119.2074959890942
aF2126.9379508911184
aF2135.137763476358
aF2143.0234553245164
aF2150.243531364766
aF2157.9078239744827
aF2166.0089664892535
aF2174.063205972364
aF2182.275699634651
aF2190.689131422531
aF2198.9394441043905
aF2206.412270371023
aF2214.276483188368
aF2222.1945178549904
aF2229.6903320321553
aF2237.62580666098
aF2245.670636944447
aF2253.688201804408
aF2261.6917249309176
aF2268.9550048680976
aF2276.2010662463495
aF2284.2460500695415
aF2291.684078287394
aF2299.3564103990507
aF2306.774100826155
aF2314.6250289773097
aF2322.4079318274544
aF2330.3506225605174
aF2338.339047477772
aF2346.883304742918
aF2355.54264255911
aF2363.426422179981
aF2371.9787291255207
aF2380.328476323817
aF2388.0996801112656
aF2395.280414426108
aF2403.4754416060086
aF2412.4414317105056
aF2419.677571610056
aF2427.4089316013465
aF2435.3007760347127
aF2443.2044299807153
aF2450.3864860854806
aF2457.9983311081446
aF2466.2530896819
aF2473.8424817572395
aF2481.639860917942
aF2489.6873939528805
aF2497.8478057283796
aF2505.503296244785
aF2513.51788992527
aF2521.1244900608217
aF2529.224932312143
aF2537.0947795447173
aF2544.766148696886
aF2553.172691787045
aF2560.860820058231
aF2568.6704994343577
aF2576.135356785224
aF2583.958955362276
aF2591.3997589691294
aF2599.502976190476
aF2607.1425280002964
aF2615.7147115268726
aF2623.2929864253397
aF2631.246812791484
aF2639.2028194739332
aF2647.576805050805
aF2654.890539813819
aF2663.4960127591708
aF2671.1186482326325
aF2680.05079874278
aF2688.774124758938
aF2696.2862672204396
aF2704.911875423029
aF2712.6947486023164
aF2720.4182309482094
aF2728.657480716458
aF2736.191460170018
aF2744.3550330966195
aF2752.7996829781514
aF2759.5916312871946
aF2768.5229832840414
aF2776.2856109838967
aF2784.3978568382804
aF2792.417358896388
aF2800.4254556748433
aF2807.637846005525
aF2816.561164517534
aF2823.2707964437686
aF2831.9009938164595
aF2839.918141531387
aF2847.681670266913
aF2856.206925644354
aF2863.5859290985277
aF2871.620605414426
aF2880.241862362442
aF2888.703780967215
aF2896.6711558431925
aF2904.384639992582
aF2912.616777459461
aF2920.2028667056065
aF2929.39701206115
aF2937.631724368127
aF2946.0550491468844
aF2952.682931012107
aF2960.373402174618
aF2969.1099527164847
aF2976.322029106415
aF2984.3413909464257
aF2992.695010381521
aF2999.8773868228836
aF3008.397596447971
aF3016.10505997071
aF3023.966968845879
aF3032.760606594303
aF3040.7453978347116
aF3048.3644355264746
aF3056.3613814582063
aF3063.453412176879
aF3071.618056006155
aF3080.216139677596
aF3088.2799323353574
aF3096.2352862121384
aF3105.075807857024
aF3114.49359978496
aF3122.1112177169657
aF3130.3263539378436
aF3138.5549211704406
aF3147.5023822545213
aF3156.155132625257
aF3164.2408645111054
aF3172.4613277338967
aF3181.400129767808
aF3189.651978458943
aF3198.2907574942997
aF3206.540966357341
aF3215.12530476782
aF3223.2505261011042
aF3232.7417047551057
aF3241.098058756455
aF3248.554024863953
aF3256.2678313185997
aF3263.8157201920762
aF3271.9810188189485
aF3278.7841106074516
aF3287.0008481724894
aF3295.571105425149
aF3303.2552223860257
aF3310.9526262111167
aF3318.6154338153506
aF3327.6993001807487
aF3335.8551072627147
aF3343.8819109685555
aF3351.8232613975565
aF3360.8571600749106
aF3368.777687137891
aF3377.069315421557
aF3385.204484570962
aF3393.4076183678762
aF3401.3932355640427
aF3411.054006823281
aF3419.1999110064617
aF3427.9995503888904
aF3435.9139761024126
aF3444.1979847418825
aF3452.450242875948
aF3461.1349009900982
aF3469.322375800725
aF3478.349877621405
aF3486.3561773377096
aF3495.5401127272394
aF3502.927788696877
aF3511.5755526718267
aF3521.0346667284693
aF3529.7098051213584
aF3538.2556692811186
aF3546.3895002781383
aF3554.5194956892556
aF3563.416149874394
aF3572.5562173235935
aF3581.5707736522504
aF3590.7660330999956
aF3599.5157097429146
aF3607.955754878784
aF3615.5337387483432
aF3624.8055625075317
aF3633.3902597282217
aF3642.8507295278005
aF3651.034409389689
aF3659.154366709
aF3668.3508792257994
aF3676.2679678881645
aF3684.323427707939
aF3692.897793742758
aF3701.2533096619877
aF3709.188143087562
aF3717.1281367904853
aF3725.4639040035595
aF3733.2395707796427
aF3742.2053792451256
aF3749.0313812185423
aF3757.0750159874697
aF3766.2037562341247
aF3774.308032072673
aF3781.316805990621
aF3788.9266274876945
aF3796.847797873425
aF3805.248201638919
aF3812.536780927309
aF3820.0019467156126
aF3827.812991323049
aF3836.4288230332127
aF3843.729309194059
aF3852.2051123986093
aF3860.614490227348
aF3868.711339632614
aF3877.0020024288715
aF3884.2816886391875
aF3892.1014202543847
aF3901.1813533709114
aF3908.6710317717843
aF3917.0830915142355
aF3925.8319721143234
aF3933.301422319475
aF3941.472216556966
aF3950.5257302839555
aF3958.17334699061
aF3966.901732657205
aF3975.042987327221
aF3983.59907492376
aF3991.239636825421
aF3999.5870286757963
aF4008.37834680709
aF4017.601432279596
aF4025.9307275828824
aF4034.978664330543
aF4043.308155433402
aF4051.813315164493
aF4059.2928449570713
aF4068.701837669442
aF4076.658392204854
aF4085.4248977964826
aF4094.6200762035437
aF4103.40500468117
aF4110.791187348789
aF4118.928864746615
aF4127.502359452644
aF4135.927415542889
aF4143.245891306161
aF4151.066185330046
aF4159.842116970988
aF4168.095090460831
aF4175.989346222288
aF4184.944247221631
aF4191.930300671042
aF4200.324054164272
aF4208.868903738855
aF4217.386327614493
aF4224.575126051977
aF4233.02494022132
aF4241.4400218759565
aF4250.025860870372
aF4258.441160658837
aF4266.03367136011
aF4274.668523392897
aF4282.476114561127
aF4290.587262380322
aF4298.888469273329
aF4308.331893595328
aF4316.496237326463
aF4325.171331652703
aF4332.847939529883
aF4341.40622509314
aF4349.995231121451
aF4357.918806706023
aF4366.652705044906
aF4374.924377108747
aF4383.017461744506
aF4390.644285754006
aF4399.318271556877
aF4406.793031058549
aF4416.615183537264
aF4424.824741599074
aF4432.848375016222
aF4439.80454810874
aF4448.2609553998445
aF4455.355314987997
aF4463.955585214844
aF4471.763755260182
aF4480.04977799201
aF4488.194610500951
aF4494.869041550425
aF4504.253910883748
aF4513.268285902271
aF4521.9337158429435
aF4530.715695723898
aF4540.864725344998
aF4548.358999073216
aF4556.415595488541
aF4565.740302892681
aF4573.9894154393705
aF4583.542321594068
aF4593.481293510201
aF4601.872164040778
aF4610.211147255354
aF4618.811001436582
aF4626.578563682372
aF4636.3951804995595
aF4644.200145526676
aF4653.411849483295
aF4661.291677866034
aF4670.113009064453
aF4678.889200911972
aF4688.7516475571665
aF4696.550878558719
aF4704.692526551871
aF4713.690281768468
aF4723.363971269694
aF4732.357963761064
aF4741.905995977346
aF4750.630955801258
aF4759.078668606699
aF4768.015995106944
aF4778.615587087685
aF4788.560854211273
aF4796.914661389295
aF4806.365511872324
aF4814.386094249571
aF4824.980441853785
aF4833.198569892672
aF4842.844398109536
aF4852.951744751842
aF4861.8823624820425
aF4871.4029879795
aF4880.297703343961
aF4889.671414538311
aF4899.1467317778315
aF4907.552943030057
aF4916.676668211307
aF4924.398775706911
aF4933.486153076167
aF4942.330810795782
aF4950.669389968117
aF4958.902297625446
aF4968.540927460467
aF4976.42677467491
aF4985.396601905751
aF4994.351400448589
aF5001.948752409906
aF5009.566816795946
aF5018.886824981925
aF5026.660297702353
aF5036.989998795036
aF5045.876998581876
aF5054.0652671578855
aF5062.080415237741
aF5070.96754925766
aF5079.913250410136
aF5088.604631655049
aF5097.603405762172
aF5106.2287364205995
aF5114.30838245653
aF5122.697659544886
aF5132.034069213516
aF5141.453852000149
aF5149.286114200963
aF5158.04312526067
aF5166.951961847557
aF5176.298209353626
aF5184.7243352702935
aF5193.590369429821
aF5203.372525394826
aF5211.878429609581
aF5219.767012382753
aF5229.369717135019
aF5237.776071402091
aF5247.039334538208
aF5255.2001714550515
aF5263.192645246194
aF5271.328327433137
aF5279.497539251488
aF5287.794056038038
aF5295.309097480955
aF5302.903764352637
aF5310.998702514342
aF5319.667650684487
aF5327.228949051375
aF5334.943934717935
aF5342.26997367738
aF5349.978999657099
aF5357.398717402184
aF5365.401689402083
aF5373.324784978127
aF5381.662985345779
aF5389.17022548447
aF5398.448133972179
aF5407.323346772325
aF5415.506626628853
aF5424.280801668211
aF5432.323529411765
aF5440.68846845344
aF5448.083497826832
aF5457.907188264512
aF5467.165840253578
aF5475.079835204047
aF5484.795875151751
aF5493.948975903615
aF5501.911445492799
aF5509.949288792104
aF5518.88334739047
aF5528.328394798551
aF5536.053385235646
aF5544.805689707913
aF5551.682543213309
aF5560.342340380177
aF5568.330779640908
aF5576.886221245991
aF5584.740275872297
aF5594.345394127025
aF5601.389071175004
aF5609.2534919502095
aF5617.5668974594255
aF5627.252041298646
aF5635.638114351397
aF5643.788658312788
aF5652.844033848664
aF5661.476127591352
aF5669.027726029936
aF5678.4528975098
aF5686.359383255011
aF5697.192908642707
aF5705.319893594341
aF5713.920967024411
aF5722.29787194602
aF5730.138278252488
aF5737.544964962367
aF5746.9188036960495
aF5755.923584914403
aF5764.427238097004
aF5771.6457219127415
aF5779.481403388448
aF5789.350821662603
aF5797.6045499624615
aF5804.832230378526
aF5814.353483435605
aF5823.67572227011
aF5833.055148251476
aF5841.650378622869
aF5850.17261755791
aF5858.430435709454
aF5866.973863994513
aF5874.545090551838
aF5883.9715082815055
aF5891.961570902889
aF5899.361022541895
aF5907.9786553718395
aF5916.324012532791
aF5926.8072826379175
aF5934.1175121187125
aF5942.446080975862
aF5951.25575381193
aF5959.906270278288
aF5967.878693919169
aF5976.457131733363
aF5985.445387382043
aF5994.365693362996
aF6002.33393267591
aF6010.526649487404
aF6020.017041767858
aF6027.605844727694
aF6036.073031937571
aF6045.405433089843
aF6054.771069094953
aF6062.347333444556
aF6071.9958378909505
aF6080.845234674108
aF6088.398138965866
aF6098.244711912795
aF6106.081978533294
aF6115.42837148948
aF6124.758367551234
aF6134.033532939682
aF6142.254363685241
aF6151.352098316897
aF6159.7088233931145
aF6167.879577366884
aF6175.10977384373
aF6183.287622101537
aF6192.380032810589
aF6202.370537038411
aF6210.48664695304
aF6219.2942885474395
aF6227.484619305807
aF6236.286724564606
aF6246.807409981928
aF6254.331740661785
aF6263.282071720533
aF6271.308862378688
aF6280.502507485376
aF6289.294090386683
aF6298.3302191079965
aF6306.440003521845
aF6317.308197085975
aF6324.318249650096
aF6333.654868486904
aF6341.827676651591
aF6351.36287631618
aF6358.7090882971725
aF6368.329416234952
aF6377.382573440831
aF6387.180549247866
aF6394.132182842738
aF6403.24876520901
aF6412.235281034243
aF6420.564768303984
aF6430.489151087672
aF6439.253477789414
aF6447.062697522683
aF6456.30074895258
aF6463.432985200492
aF6473.256753751054
a.