(lp0
F3.091074711687537
aF7.280784282036778
aF9.499350959376146
aF11.8122385580822
aF14.674259608319224
aF17.54683624955288
aF20.42172949002217
aF23.342822499198256
aF26.185146920602588
aF29.108302943430946
aF32.00716163624188
aF34.90524835481428
aF37.76779605651867
aF40.69410676084717
aF43.5717771625149
aF46.420362573585216
aF49.26158654540314
aF52.102646268739136
aF55.00625419407808
aF57.86806010628828
aF60.70566625443665
aF63.51217688990142
aF66.2839552383288
aF69.0799716653626
aF71.82046873242177
aF74.57794029519307
aF77.34763821137284
aF80.08759719488002
aF82.80682489959351
aF85.54152674431451
aF88.25297233595076
aF91.00568710581962
aF93.77459405135187
aF96.5835969910579
aF99.36608429442953
aF102.13660502173234
aF104.91244619582619
aF107.67262010308963
aF110.38230168682804
aF113.08172554046467
aF115.77622483832563
aF118.41992017049891
aF121.03852983267241
aF123.65143157090316
aF126.24834407920235
aF128.8510220950881
aF131.41861392525806
aF133.99348288985618
aF136.61499235220913
aF139.2249195453758
aF141.7765886759252
aF144.36015562114298
aF146.93963036054643
aF149.51495143352946
aF152.0776516342345
aF154.632846184641
aF157.13172263203668
aF159.61602709340335
aF162.08595623909335
aF164.580833034712
aF167.05011962557464
aF169.50499332101117
aF171.96853603494725
aF174.3631960794546
aF176.78430017603608
aF179.18706837135835
aF181.56912530287482
aF183.96214389235863
aF186.34990517111032
aF188.74805731058535
aF191.1563088974889
aF193.56705919744996
aF195.97489071988588
aF198.3576143837273
aF200.7747983810592
aF203.21616099793962
aF205.63064980482895
aF208.07807463467194
aF210.45166176714523
aF212.86393212813925
aF215.23883543840998
aF217.59101588842617
aF219.97867907106797
aF222.31886763319758
aF224.65350320232864
aF226.97823705427962
aF229.2904929090546
aF231.58258678181235
aF233.8795187850236
aF236.14028991453623
aF238.4490052102545
aF240.66116505451154
aF242.92832542106143
aF245.13173785447577
aF247.37124123637187
aF249.6270983047565
aF251.86840394284022
aF254.09060383599711
aF256.3391817787052
aF258.59571523872035
aF260.8537651005267
aF263.10360991184666
aF265.36259827146756
aF267.58429328024357
aF269.7767995922754
aF271.9565892360769
aF274.16082263578306
aF276.3425778934688
aF278.5180572191206
aF280.6717119186486
aF282.80105519961063
aF285.00750857991625
aF287.1986627753658
aF289.37883374378833
aF291.54055900449197
aF293.69140874895425
aF295.8429394613248
aF297.9878269053765
aF300.1466624629451
aF302.28345762211393
aF304.4179298978777
aF306.523903708443
aF308.63987063463014
aF310.76473277593726
aF312.8951157049581
aF315.0271057025494
aF317.1385785072611
aF319.2331543197818
aF321.3250563761156
aF323.4332289920168
aF325.49951389663374
aF327.5451708004427
aF329.5954532973055
aF331.6173446195144
aF333.6600204911885
aF335.6829727368107
aF337.7065096494804
aF339.7160308843007
aF341.74742253370533
aF343.74257090266036
aF345.759776398796
aF347.7895672855774
aF349.7730225606247
aF351.7698265384616
aF353.7573373806591
aF355.77105858532707
aF357.7618282187918
aF359.7744228159627
aF361.7276048474014
aF363.71610669534607
aF365.6975141011714
aF367.6798092427562
aF369.64810298749273
aF371.6936098092375
aF373.7255996941235
aF375.74656573645103
aF377.7539058262534
aF379.7968525938099
aF381.8125815021084
aF383.8244414816479
aF385.8318774571277
aF387.81791006308663
aF389.7594910073451
aF391.78166064515335
aF393.7477919408148
aF395.75678044149134
aF397.6979751886167
aF399.65693065612277
aF401.6054871068108
aF403.55025908529615
aF405.51484942838874
aF407.4716164865424
aF409.445822599955
aF411.3998539710189
aF413.3160566587931
aF415.2147540605212
aF417.13282338558224
aF419.05640716692324
aF420.91413391457826
aF422.7526663681381
aF424.5998927452222
aF426.42160298718306
aF428.2450938829149
aF430.0803589152524
aF431.9086116811044
aF433.7284228125437
aF435.51225479824114
aF437.31890450799807
aF439.1347199652842
aF440.9460422770583
aF442.77382831915327
aF444.5851218692127
aF446.400069016086
aF448.2372938019991
aF450.07483853444523
aF451.92222683870773
aF453.7974940716085
aF455.5832009873625
aF457.412709331179
aF459.2447471466814
aF461.1111275682421
aF462.9343212448948
aF464.72587257460003
aF466.5319304868093
aF468.29767991560817
aF470.08045005928517
aF471.9127006599475
aF473.7173883938361
aF475.5205650413917
aF477.3183453611063
aF479.1454547063367
aF480.9605251312482
aF482.7718501584702
aF484.57734914821265
aF486.34744577219317
aF488.18270328706416
aF489.97115212231034
aF491.73930336544345
aF493.5854197700328
aF495.4323169389825
aF497.2691784474116
aF499.08455201164634
aF500.90143989572243
aF502.6846988610962
aF504.4792225969503
aF506.3042862364143
aF508.09026647614513
aF509.84524883117524
aF511.6477089450714
aF513.440527471648
aF515.2454889688456
aF517.0540409314021
aF518.8222608502946
aF520.59958818795
aF522.3480589733526
aF524.1445716660126
aF525.912773979586
aF527.6761114817526
aF529.4735698599062
aF531.1982691421276
aF532.945540916548
aF534.7278396367974
aF536.4866691341343
aF538.2036626919146
aF539.981092432125
aF541.7271399561855
aF543.4666411957627
aF545.1866452534343
aF546.9689264341157
aF548.7105688010139
aF550.4316931144049
aF552.1338063665173
aF553.883427788743
aF555.645400833232
aF557.3809858000651
aF559.1086319979007
aF560.8073627402771
aF562.5345056316644
aF564.3187359896204
aF566.0351944950838
aF567.7128634319877
aF569.3990952590559
aF571.1092501544847
aF572.8554499834934
aF574.587020494604
aF576.3075702168724
aF578.059606058414
aF579.7873123560469
aF581.5294694589313
aF583.2002871953359
aF584.9129308095954
aF586.6260457155961
aF588.3420571060951
aF590.0248353569665
aF591.7268148419488
aF593.4047853392424
aF595.1150081227111
aF596.7596848158926
aF598.4643190804612
aF600.1593317039686
aF601.8274777114668
aF603.509010076695
aF605.2064386986847
aF606.8844432097236
aF608.5203752371206
aF610.1617364135872
aF611.8096876373211
aF613.4585118475461
aF615.1635574393296
aF616.8600632209601
aF618.5209732415143
aF620.1791842529501
aF621.8501487858199
aF623.500891094823
aF625.115605083778
aF626.7666530720603
aF628.3580170058867
aF629.953145980352
aF631.5902995376811
aF633.219236584831
aF634.867456547451
aF636.5086018435654
aF638.0994147186786
aF639.7314939859349
aF641.3234717441674
aF642.929428268245
aF644.5623617306646
aF646.1780547471261
aF647.7994988211177
aF649.3645894733926
aF650.9188230939588
aF652.5044474524204
aF654.0411653848936
aF655.61524559774
aF657.1789300142357
aF658.7320898703825
aF660.2740277399427
aF661.847290892483
aF663.4269326928923
aF664.9481331967703
aF666.4740697363034
aF668.0264287297341
aF669.5621874276163
aF671.1351154912843
aF672.6440149011846
aF674.1547289612323
aF675.6503841906601
aF677.2023505465627
aF678.7789434033119
aF680.3174266163487
aF681.8789686570748
aF683.410500584473
aF684.9885778091062
aF686.5253557804854
aF688.0684440901158
aF689.58576863792
aF691.1309139040231
aF692.6571375912962
aF694.170272570632
aF695.7108182609425
aF697.2936632226349
aF698.835688972515
aF700.420935456589
aF701.9697247431081
aF703.5518552550168
aF705.0947136546927
aF706.6075695754826
aF708.1445897496475
aF709.6636454864683
aF711.1780504190557
aF712.6946236625338
aF714.2350091420341
aF715.7798032267126
aF717.3197139007249
aF718.8255244467326
aF720.4313142840433
aF721.9763839455771
aF723.5372955323394
aF725.0936149189157
aF726.6715366915996
aF728.2126305647539
aF729.758496234584
aF731.3791709119675
aF732.969599271697
aF734.5389784791082
aF736.1142333179677
aF737.6744214233056
aF739.1969837006711
aF740.7297386838148
aF742.2905419288608
aF743.7887571769699
aF745.3129896234459
aF746.8082671066472
aF748.3494757004512
aF749.8362059545101
aF751.3408707362588
aF752.883054877908
aF754.4081139900281
aF755.9575197375458
aF757.522652644572
aF759.095991109825
aF760.6116203079498
aF762.1596868590866
aF763.6837327654939
aF765.1825814961634
aF766.7168259548247
aF768.1986427874419
aF769.715614870543
aF771.2145487972775
aF772.6807211716423
aF774.2128818171465
aF775.7262602872346
aF777.2228543394194
aF778.7253546544111
aF780.1635093484375
aF781.6685949643648
aF783.1501572206045
aF784.6048622873938
aF786.0694871337082
aF787.5201177002054
aF788.96816969391
aF790.4868785077799
aF791.9591671983137
aF793.4360115497506
aF794.8768120347505
aF796.3383367016634
aF797.8419755708649
aF799.347677476303
aF800.8321529439831
aF802.2877775990628
aF803.7910474064953
aF805.2002600464989
aF806.662861997636
aF808.1182226980069
aF809.577764515481
aF811.0184926093438
aF812.4658811668597
aF813.9863104729479
aF815.4871588065937
aF816.9726032984709
aF818.4500989301993
aF819.9315926744257
aF821.3846118326474
aF822.8437808567508
aF824.2838338805182
aF825.7959743356104
aF827.2647228139738
aF828.6953632088903
aF830.1001100529099
aF831.4914818489036
aF832.9343244079411
aF834.394876813245
aF835.8187033372815
aF837.2095163955433
aF838.6247168822454
aF840.0142511032542
aF841.4508642537802
aF842.9480680752945
aF844.3703214853034
aF845.8308202625949
aF847.2887593215017
aF848.7268664355228
aF850.1239536995705
aF851.5650810497134
aF853.0037734338865
aF854.4179660562999
aF855.8109240722413
aF857.2278785751778
aF858.5467831126402
aF859.9406279005691
aF861.3566557839339
aF862.7901590074731
aF864.2115286040838
aF865.6025674771856
aF866.9768847075338
aF868.3429561751944
aF869.7022668516906
aF871.1003389540911
aF872.4564835567431
aF873.9026456451718
aF875.2581191358162
aF876.6830849761135
aF878.0833387850413
aF879.4957930157597
aF880.9287127135478
aF882.3295366908291
aF883.7287816970947
aF885.1669747945729
aF886.5655159196842
aF887.9261446681696
aF889.3246348925362
aF890.7420809621373
aF892.1849105731355
aF893.5921226208159
aF895.0546220071978
aF896.4595803797516
aF897.8179020826167
aF899.2310377551632
aF900.5715146645239
aF901.9264565983715
aF903.2981866924051
aF904.6927571747872
aF906.0637062219599
aF907.447260951384
aF908.8356752696299
aF910.2224761303681
aF911.639883428552
aF913.0246318594369
aF914.4053074384337
aF915.7803020623921
aF917.1421686264791
aF918.4848337095723
aF919.8150932330514
aF921.1314250484139
aF922.4721863897491
aF923.7782172654784
aF925.1005136924357
aF926.4389191972526
aF927.7200606361018
aF929.0774046114105
aF930.4234926350044
aF931.7514222137042
aF933.1079331518946
aF934.4127521143586
aF935.7442947539214
aF937.0380235833809
aF938.3712658895247
aF939.7208436247092
aF941.0527653836178
aF942.4209027437296
aF943.7584738098335
aF945.0677351049039
aF946.3963482030424
aF947.7715201229073
aF949.1137958532081
aF950.4689362707669
aF951.8102770525318
aF953.1746619970367
aF954.522387353166
aF955.9243385428892
aF957.2728979753321
aF958.5614933150655
aF959.8890749045163
aF961.1978896948574
aF962.5331624582914
aF963.8514203135043
aF965.197068257234
aF966.5266637982261
aF967.8540057019793
aF969.156237492072
aF970.4289865313178
aF971.7507077606591
aF973.0646135846704
aF974.4044965355016
aF975.6968284537056
aF977.043471718387
aF978.3398229679804
aF979.6434734116494
aF980.9693094944133
aF982.2950944909526
aF983.6305104511043
aF984.9463434891106
aF986.2558570492804
aF987.5464650336517
aF988.8348762973177
aF990.1538282432231
aF991.4796302211822
aF992.8308159529792
aF994.1789383139876
aF995.488244408541
aF996.773089123559
aF998.1323763494988
aF999.4083409087933
aF1000.7367234873851
aF1002.0814223882124
aF1003.3773973683501
aF1004.6994029956442
aF1006.0419205510074
aF1007.3832279557677
aF1008.7076285080899
aF1010.0552698971554
aF1011.3793845841218
aF1012.7453472682447
aF1014.0305558891085
aF1015.3992817633629
aF1016.6794885413276
aF1017.9941054809482
aF1019.2895649201996
aF1020.6182427829494
aF1021.9142472381645
aF1023.1860950407498
aF1024.4645704899306
aF1025.772993741278
aF1027.02219949798
aF1028.384209408173
aF1029.6407762767965
aF1030.8527829285697
aF1032.1713556768839
aF1033.4552579439912
aF1034.7249357286905
aF1036.004174639804
aF1037.2317831933678
aF1038.5244747466584
aF1039.8601203419826
aF1041.1546461462676
aF1042.4303107137193
aF1043.7209670553661
aF1045.058987959709
aF1046.2953257899396
aF1047.5175382419886
aF1048.693596880417
aF1049.91878277697
aF1051.104769477438
aF1052.382070087203
aF1053.6218745646154
aF1054.8865457828708
aF1056.0830664926043
aF1057.3361534802382
aF1058.5346639633794
aF1059.7613680711052
aF1060.9756171060117
aF1062.1835042881091
aF1063.349835547458
aF1064.5557027462655
aF1065.7546586910792
aF1066.9723763625348
aF1068.1473949773886
aF1069.3265176525465
aF1070.5469073775869
aF1071.7252563365407
aF1072.8989635949645
aF1074.1046000546526
aF1075.2957737317693
aF1076.4952538636444
aF1077.6727544511489
aF1078.8776455555897
aF1080.053021013504
aF1081.2123931985775
aF1082.4457106414948
aF1083.6184482258302
aF1084.796212521832
aF1085.979887373293
aF1087.1848500779745
aF1088.329154768044
aF1089.498732260694
aF1090.724737717158
aF1091.9069121770729
aF1093.10052688499
aF1094.266536430371
aF1095.5062375303276
aF1096.683714383802
aF1097.8808454431464
aF1099.0667888237435
aF1100.2434574579859
aF1101.430547644266
aF1102.5750147405433
aF1103.772279388333
aF1104.893908709541
aF1106.0798720716768
aF1107.2049370618713
aF1108.3399029339203
aF1109.4987942292341
aF1110.6408515698968
aF1111.740778330462
aF1112.920273824561
aF1114.1054858345406
aF1115.274323184305
aF1116.4342581701962
aF1117.6014463748259
aF1118.790587333342
aF1119.9673655600704
aF1121.089761658813
aF1122.250777637598
aF1123.4043849602206
aF1124.5582670522554
aF1125.6829501657653
aF1126.8209915361738
aF1127.9585005626911
aF1129.0790452467859
aF1130.213102046786
aF1131.3460813715046
aF1132.488043380368
aF1133.625590664215
aF1134.7637565139746
aF1135.8490448541745
aF1136.9770656007488
aF1138.1021681633233
aF1139.2278000748197
aF1140.3251547767773
aF1141.4600026942248
aF1142.528579676008
aF1143.6511991926868
aF1144.7612874744923
aF1145.8419348457278
aF1146.923104160701
aF1148.0114911472442
aF1149.1497438601489
aF1150.2633681215736
aF1151.4032364589468
aF1152.4361387826802
aF1153.5722547535163
aF1154.6600948078171
aF1155.7441670348753
aF1156.8514806860346
aF1157.9545148727802
aF1159.0854164533703
aF1160.1543683961763
aF1161.3014552150337
aF1162.4116033880327
aF1163.537378975981
aF1164.6451358743557
aF1165.7667052855231
aF1166.8509522636468
aF1167.9561849995766
aF1169.0156101207317
aF1170.0853873239435
aF1171.1756562325347
aF1172.287628904073
aF1173.3823432507104
aF1174.438874339101
aF1175.5236707024924
aF1176.601665387455
aF1177.6576850210279
aF1178.7273474678955
aF1179.779366367305
aF1180.8925014241945
aF1181.946825438371
aF1182.9941516191013
aF1184.1048562912233
aF1185.1375310135968
aF1186.174267495918
aF1187.2266318752932
aF1188.272999090837
aF1189.3023172924736
aF1190.3415085232696
aF1191.3733739540112
aF1192.380579492809
aF1193.415299063579
aF1194.4158643353833
aF1195.3727877315423
aF1196.4188603092025
aF1197.3810043079823
aF1198.4038055904111
aF1199.3656212182334
aF1200.3232901273393
aF1201.382309491899
aF1202.31589115508
aF1203.3581008988426
aF1204.37811346464
aF1205.3758428475644
aF1206.3887241007135
aF1207.343215491611
aF1208.3567173555068
aF1209.3472656433441
aF1210.3031023745098
aF1211.2991530962681
aF1212.3001766005095
aF1213.3182747224578
aF1214.292910194982
aF1215.2793948627072
aF1216.2418156623492
aF1217.2263750204963
aF1218.2558995046056
aF1219.267642390081
aF1220.2573523298672
aF1221.2435648129972
aF1222.2264827942977
aF1223.2247991747593
aF1224.1960710048968
aF1225.1400165352495
aF1226.169206905179
aF1227.1499160158082
aF1228.1228301928913
aF1229.088199905776
aF1230.0619270822108
aF1231.02117708278
aF1232.0727492608064
aF1232.9832405008337
aF1233.9799525351657
aF1234.995504354399
aF1235.9587724571873
aF1236.9642704570454
aF1237.9381101712463
aF1238.9117341201086
aF1239.8819441664846
aF1240.910995554242
aF1241.8887199768467
aF1242.835580357143
aF1243.8090656485963
aF1244.778269382779
aF1245.7742769970612
aF1246.7374247005919
aF1247.7362773318146
aF1248.7021905826955
aF1249.6975436868172
aF1250.6743212396314
aF1251.6035911825436
aF1252.6233455800302
aF1253.582482244504
aF1254.5660644807801
aF1255.5641360501081
aF1256.4915932080785
aF1257.4356578081654
aF1258.3922338367493
aF1259.3457832094812
aF1260.3568923327898
aF1261.3108709217981
aF1262.3151933125632
aF1263.274137734679
aF1264.3333864197302
aF1265.2212424684717
aF1266.18351646407
aF1267.2478097997564
aF1268.204483050176
aF1269.1828118388355
aF1270.1822756716006
aF1271.1914718484843
aF1272.1741496106724
aF1273.1238501725943
aF1274.1058621135269
aF1275.0550466690154
aF1276.065486789649
aF1276.989263295215
aF1278.0033608849753
aF1278.909411330362
aF1279.940524388931
aF1280.828563759339
aF1281.834561879911
aF1282.7447266162812
aF1283.738263381967
aF1284.6971578631683
aF1285.6935600217173
aF1286.5952799125218
aF1287.6184195450692
aF1288.5401739062233
aF1289.5200686036444
aF1290.4948440608086
aF1291.5071203024343
aF1292.4661813370158
aF1293.3515438534976
aF1294.3614141485582
aF1295.4130797960509
aF1296.300658230067
aF1297.2980264740906
aF1298.2916753467482
aF1299.1887217576937
aF1300.2493024017367
aF1301.1037923944582
aF1302.1213600217673
aF1303.0787840094217
aF1303.9726708341852
aF1305.0216641571415
aF1305.9319752227761
aF1306.8873508643032
aF1307.7819624071126
aF1308.6130675473257
aF1309.6317069215806
aF1310.4706800215477
aF1311.4349794820455
aF1312.3345650260749
aF1313.179229611371
aF1314.1777561441872
aF1315.0837502881293
aF1315.9792659126533
aF1316.9166139135964
aF1317.756689028096
aF1318.7544275458965
aF1319.6763205061918
aF1320.4841602006848
a.