(lp0
F2.551227488316538e-05
aF8.067205612613558e-05
aF0.00020801414033042988
aF0.1971703948444099
aF0.3726400064190745
aF0.2859154397391122
aF0.45185602578550804
aF0.7180221219891074
aF3.7710591391450596
aF7.532105322774736
aF9.792292740010604
aF12.138995583371708
aF15.01041063262267
aF17.89233403562825
aF20.776475286102798
aF23.69502738089651
aF26.538939028826043
aF29.46409719932229
aF32.36512138027626
aF35.249875952958625
aF38.11470898730442
aF41.037514771543606
aF43.90049422565218
aF46.75161105345472
aF49.58766624745497
aF52.41929435677842
aF55.3108398771042
aF58.17619486172201
aF61.00065647774441
aF63.80432704633552
aF66.55937134734575
aF69.36691487797256
aF72.08423255464676
aF74.83573209589532
aF77.58957586279881
aF80.3342661269351
aF83.03514518474744
aF85.74832142906483
aF88.47600711446422
aF91.20334514618014
aF93.95258125607428
aF96.76226931384079
aF99.53200225127557
aF102.28812910162455
aF105.04357343551821
aF107.81182069294513
aF110.50294917823982
aF113.18591769472575
aF115.85502972701036
aF118.48915633322059
aF121.08072055225189
aF123.71089626260665
aF126.3007459938083
aF128.90304888152443
aF131.46478290323998
aF134.05084425684893
aF136.66598052752533
aF139.26750003662343
aF141.81292505207392
aF144.40698253844712
aF146.9704567537555
aF149.5637073573307
aF152.12562326057846
aF154.66485564687162
aF157.1694641654523
aF159.6485437132919
aF162.13011038682458
aF164.60550074244665
aF167.06426815145932
aF169.54927891295085
aF171.97632296174856
aF174.3876385935528
aF176.82523367299441
aF179.1873601781074
aF181.58176458962527
aF183.97274871636486
aF186.37284554803853
aF188.76004880761155
aF191.16964117507172
aF193.57902079594214
aF195.99456482283836
aF198.37733215943405
aF200.7959012265968
aF203.22535831392588
aF205.6431599785891
aF208.08243941476047
aF210.46325038005662
aF212.87767486166973
aF215.24611008111242
aF217.5835178358435
aF220.01162884141206
aF222.31311815495164
aF224.65658466930614
aF226.9920176083192
aF229.28890290106042
aF231.59160643647178
aF233.8773640967941
aF236.15013850222826
aF238.43775080070733
aF240.64828286278671
aF242.92781469955773
aF245.13021411412615
aF247.35823697779995
aF249.61449932945047
aF251.85997442900066
aF254.07062996581615
aF256.3310889628767
aF258.5788701232338
aF260.84562406691674
aF263.09546192801577
aF265.3552193706817
aF267.5914503038911
aF269.76246933453325
aF271.9604958460426
aF274.17698188518705
aF276.33676455692677
aF278.5098721755672
aF280.67835839938147
aF282.7955934814365
aF285.0011297110924
aF287.18545362866587
aF289.38145807216966
aF291.50796170955186
aF293.6935158926021
aF295.82473973257476
aF297.9686407323221
aF300.115060688726
aF302.27211412855587
aF304.4011813009161
aF306.5004176589289
aF308.6245680856379
aF310.7489307900744
aF312.87257601014886
aF315.0326666285044
aF317.1196019290097
aF319.21819427931376
aF321.3029782612227
aF323.41939487849146
aF325.49048590544635
aF327.5279299853092
aF329.58112918374513
aF331.61454411121906
aF333.6482651294422
aF335.67988409174257
aF337.6749858422251
aF339.7230672579682
aF341.7333773545347
aF343.7280638979515
aF345.76210968054903
aF347.78701098246444
aF349.7614153007663
aF351.77175085378633
aF353.73884789499783
aF355.7634672208583
aF357.7609495461256
aF359.7504125798757
aF361.7217992198702
aF363.6965871054501
aF365.69337451339516
aF367.65314675413003
aF369.63427882554487
aF371.69039236502294
aF373.69712521695124
aF375.7310150823914
aF377.7266833234162
aF379.7647683536605
aF381.7779571257011
aF383.78056646829003
aF385.8094428159755
aF387.76826493999704
aF389.71461613343047
aF391.7463929603338
aF393.69274220508083
aF395.71184739577365
aF397.6604526034682
aF399.6104028112904
aF401.54818749879087
aF403.4768858189326
aF405.47652862631605
aF407.3939546135559
aF409.40246107915107
aF411.34308318410945
aF413.28476940089973
aF415.1575309232398
aF417.06813202715637
aF419.0355420712412
aF420.85030877334185
aF422.70179128226124
aF424.5633859111638
aF426.3922684664939
aF428.2078916230921
aF430.0381286613065
aF431.85933550744716
aF433.70552645285017
aF435.4442805513207
aF437.2811650662754
aF439.1097408939091
aF440.8810372514346
aF442.73788217632534
aF444.52706060805406
aF446.34614199979103
aF448.15989538350095
aF450.0281415684026
aF451.86275881549466
aF453.7301205220196
aF455.5309581410179
aF457.3549821540786
aF459.1772904003703
aF461.06364880886053
aF462.8647609686632
aF464.6819493886395
aF466.47650812715875
aF468.2455472638163
aF470.0613916762244
aF471.859794622639
aF473.68306509531504
aF475.47823795542035
aF477.26213939377527
aF479.073489397926
aF480.895032400417
aF482.7206121574018
aF484.5166992737697
aF486.3027222993121
aF488.1302450542596
aF489.9219213246544
aF491.6757508497558
aF493.5337672127113
aF495.390336835181
aF497.22398094971294
aF499.031452982854
aF500.8382412918594
aF502.62228816307515
aF504.4323387581715
aF506.2431102918245
aF508.00475664196244
aF509.7950574173566
aF511.58720819544754
aF513.368562192316
aF515.1846622766252
aF516.9720422168408
aF518.7352442009576
aF520.5089340443316
aF522.2506808836356
aF524.0717313847736
aF525.82420769688
aF527.6011470733456
aF529.3713166835641
aF531.1122049514215
aF532.8577130757342
aF534.63670139077
aF536.4020654261881
aF538.1218407396085
aF539.8797676337243
aF541.6413117674738
aF543.3685969198812
aF545.0843849721871
aF546.8606792299203
aF548.5865239428248
aF550.3641098789004
aF552.0215419027274
aF553.7954120310353
aF555.5347493903379
aF557.2818662373797
aF558.9817476780186
aF560.6836718029846
aF562.3988514731944
aF564.1947298194668
aF565.8736184381618
aF567.5628403119783
aF569.2568998705126
aF570.9468401213642
aF572.6950815434234
aF574.4129034205511
aF576.1638254233615
aF577.9013189363062
aF579.6125687801427
aF581.3837268521027
aF583.0326829913922
aF584.755367713532
aF586.4594166498971
aF588.17061937656
aF589.8623256717525
aF591.5613714751012
aF593.2453062099595
aF594.9684703441977
aF596.591302217616
aF598.3196665356049
aF599.997656594085
aF601.6565747299214
aF603.3641063406902
aF605.0108017858746
aF606.727950344691
aF608.3785646672926
aF609.9774168131449
aF611.6055268952866
aF613.2955480048452
aF614.9784883527435
aF616.6914769548181
aF618.3348976904996
aF620.013265237416
aF621.662533299898
aF623.2842819938318
aF624.9318793603325
aF626.5929134297031
aF628.1289285954771
aF629.8040414679391
aF631.3662490015665
aF633.0427464999664
aF634.6661172919529
aF636.2604426426677
aF637.9003016062447
aF639.4903805670273
aF641.0882679376363
aF642.7273310538365
aF644.3326394838657
aF645.9889925071341
aF647.5877573638389
aF649.1173778777055
aF650.7104491658437
aF652.25786590425
aF653.8330102099258
aF655.4165353501893
aF656.9301952826304
aF658.5205573068353
aF660.0430336004706
aF661.6151162718696
aF663.1786851445669
aF664.7081697049814
aF666.2662465868353
aF667.7459693835691
aF669.3211601464637
aF670.8699800774302
aF672.3662963619379
aF673.9011620886947
aF675.3875249981426
aF676.926513407708
aF678.4858651500329
aF680.0362771557204
aF681.5910006648344
aF683.1205990596158
aF684.6737108315307
aF686.2264750772812
aF687.7415926011639
aF689.2736388875344
aF690.831347728965
aF692.3154172062003
aF693.8440248208562
aF695.3722996678836
aF696.9884892570786
aF698.4756332408386
aF700.092931697066
aF701.6076616517261
aF703.2140045836729
aF704.7676152049925
aF706.2744960307876
aF707.8323369884896
aF709.3126708116839
aF710.8372708064054
aF712.355350032819
aF713.8875034247476
aF715.43000263164
aF716.9783542361965
aF718.481424276809
aF720.098730538811
aF721.6145396016002
aF723.163389172505
aF724.7494171754448
aF726.3182947452334
aF727.8788171742559
aF729.4067022640921
aF731.0206313873244
aF732.599205519953
aF734.1901007663319
aF735.742077912428
aF737.2918106304064
aF738.8309672251053
aF740.3413500127325
aF741.8903210301199
aF743.4330347191261
aF744.8860890529705
aF746.4337468110666
aF747.9465293849023
aF749.4370771045508
aF750.94134340465
aF752.4607034963509
aF754.0057898517184
aF755.5579808803462
aF757.1105675124049
aF758.7027496249877
aF760.2453786013551
aF761.7292719455419
aF763.3025271221952
aF764.7883407898199
aF766.2907562108112
aF767.8263382442409
aF769.2951172921111
aF770.7969440679764
aF772.2962037730066
aF773.7798677883221
aF775.3586576404058
aF776.7861535496396
aF778.3325793133555
aF779.7784332878726
aF781.2459501799963
aF782.7487430379473
aF784.2208195397877
aF785.6306713117947
aF787.1321134215325
aF788.5745906150082
aF790.0521375473317
aF791.5633071535331
aF793.0016711509345
aF794.4700813949528
aF795.9348380015743
aF797.4288500330522
aF798.9608037933386
aF800.3947912877234
aF801.8388907293996
aF803.3972440243978
aF804.7886324354323
aF806.2027188737488
aF807.6736845730935
aF809.132430855111
aF810.5608919010756
aF811.9927989869743
aF813.4760050746214
aF815.0638748038828
aF816.481286441978
aF817.9799504935168
aF819.4886124478207
aF820.9033008115607
aF822.3803735901546
aF823.8159954330831
aF825.3433404309499
aF826.7979074024623
aF828.2116009081387
aF829.6729230716836
aF831.0620794498683
aF832.4944644705158
aF833.9575203997753
aF835.3600199550739
aF836.7490785132987
aF838.1495487301747
aF839.5905693078312
aF841.0164444530449
aF842.4885165308546
aF843.9275380996498
aF845.4279833702685
aF846.7910429795479
aF848.2640544979968
aF849.6489965469169
aF851.130400185157
aF852.5235966919425
aF853.9656236913136
aF855.3585733017727
aF856.7369840066942
aF858.093591025764
aF859.4948036285582
aF860.8681633670418
aF862.3453283800803
aF863.7213674307283
aF865.1531582683303
aF866.4956856045417
aF867.8647628130054
aF869.2527320691273
aF870.612080597179
aF871.9765100930896
aF873.4178260819081
aF874.7418344290429
aF876.2298382602017
aF877.5567984591781
aF879.041959143547
aF880.4514435533
aF881.8271543726095
aF883.2642092975913
aF884.6873186131108
aF886.084680344106
aF887.4946717881905
aF888.845492336275
aF890.2799019505387
aF891.7261662759985
aF893.1349644573701
aF894.5915309196633
aF895.9729152570715
aF897.3673002730937
aF898.7336541893071
aF900.1098913093122
aF901.4379117552794
aF902.820831872204
aF904.2323427959227
aF905.5850990370718
aF906.9635847175413
aF908.40677545605
aF909.7410613441795
aF911.1738561302224
aF912.5778854036279
aF913.8913874798056
aF915.3378800780283
aF916.6307002693134
aF917.9900658227299
aF919.3587252782298
aF920.637059659146
aF922.0194416942696
aF923.3152417594328
aF924.6151335040518
aF925.9304257488362
aF927.305340881732
aF928.5845350250429
aF929.9583436874159
aF931.339272374556
aF932.6139749112683
aF933.9526479991949
aF935.2745059560857
aF936.5442864574705
aF937.9126019800325
aF939.2115732816845
aF940.62840368427
aF941.966168201438
aF943.2409443192436
aF944.6235446122785
aF945.9502418334754
aF947.3087995429573
aF948.6917648516
aF950.0155017905887
aF951.3508382349071
aF952.7136284816299
aF954.0603208015472
aF955.4845992173621
aF956.7826719720076
aF958.1192580510562
aF959.4272971131738
aF960.7213608797771
aF962.0597047393437
aF963.3719735331482
aF964.7566205131977
aF966.0448653088524
aF967.4169792887544
aF968.7565041861977
aF970.0153621229433
aF971.2998700246094
aF972.6653962606244
aF973.932085724195
aF975.3013653718716
aF976.5667784782885
aF977.8558509353508
aF979.2394154017892
aF980.4855431788517
aF981.8424609601194
aF983.2001254141765
aF984.490741486224
aF985.768446433576
aF987.0935900929426
aF988.3737665613285
aF989.6992797434822
aF990.9820406058674
aF992.412129476454
aF993.7424933189648
aF994.9787457721853
aF996.3308581828994
aF997.6267093276026
aF998.9423103721103
aF1000.2531040681524
aF1001.5664795239784
aF1002.8750107412011
aF1004.2397477464086
aF1005.5317610172443
aF1006.9113001929956
aF1008.2485209597156
aF1009.5616926877493
aF1010.8908788067872
aF1012.2577255541311
aF1013.5365591847383
aF1014.9166223454698
aF1016.1152286822215
aF1017.5210963882097
aF1018.7876889810353
aF1020.0610255528899
aF1021.4002361339072
aF1022.6894859648484
aF1023.9242001026556
aF1025.2846550328004
aF1026.5412967441657
aF1027.8654358311335
aF1029.12272988023
aF1030.3956451527997
aF1031.6858756349206
aF1032.9287789549958
aF1034.2775626058658
aF1035.5030598973453
aF1036.7425720996778
aF1038.053425661845
aF1039.3717296050288
aF1040.6559777631376
aF1041.9101907529084
aF1043.2083989753269
aF1044.5811875983252
aF1045.7963796894112
aF1047.0119239314718
aF1048.2344249946389
aF1049.405017756042
aF1050.6159446824092
aF1051.8823245234403
aF1053.1234980448746
aF1054.3924547378722
aF1055.574495477334
aF1056.8368895240367
aF1057.9803626231376
aF1059.3173678978858
aF1060.4586552285014
aF1061.663883000878
aF1062.8580037747886
aF1064.0243358824011
aF1065.2510204208036
aF1066.4801919685642
aF1067.6181719859035
aF1068.863510879276
aF1070.0362482542064
aF1071.207665832145
aF1072.4478637156822
aF1073.5823071200248
aF1074.787256016977
aF1076.053801934196
aF1077.1856393446685
aF1078.4029350947153
aF1079.4987570325786
aF1080.763420969103
aF1081.9080592180387
aF1083.1370955692514
aF1084.2653726631138
aF1085.5085404249621
aF1086.663568767478
aF1087.876638085329
aF1088.9736245563834
aF1090.217780648997
aF1091.410243100313
aF1092.5854460170224
aF1093.7838851900597
aF1094.9812850453
aF1096.226525340014
aF1097.3760025299366
aF1098.533762096462
aF1099.7470146139726
aF1100.9820768067182
aF1102.0740303626171
aF1103.2723433986073
aF1104.4223945394542
aF1105.6059873907295
aF1106.7049414418736
aF1107.860107345328
aF1109.0303692698835
aF1110.1692305608026
aF1111.2963469619692
aF1112.4665151077622
aF1113.6558236264505
aF1114.8157037436167
aF1116.005054837516
aF1117.1598107464083
aF1118.3450404905316
aF1119.5424902073107
aF1120.6556797868197
aF1121.801559768547
aF1122.9526212830126
aF1124.1032329064494
aF1125.242123110034
aF1126.3650646799833
aF1127.502841865769
aF1128.616279501865
aF1129.769547320324
aF1130.8629280800046
aF1132.0160291993182
aF1133.1453514658474
aF1134.245941173237
aF1135.4129466048355
aF1136.5210710691338
aF1137.6386472812853
aF1138.7782547436382
aF1139.8487790640513
aF1140.9571341085277
aF1142.0756248200091
aF1143.1879331621844
aF1144.311584054477
aF1145.386569604593
aF1146.4502633791496
aF1147.5855478544815
aF1148.7026181159972
aF1149.8536437894202
aF1150.9296521723647
aF1151.9860157212327
aF1153.135593430287
aF1154.195645290159
aF1155.3179192966618
aF1156.412740145471
aF1157.4972024025196
aF1158.655109972207
aF1159.7034508414006
aF1160.8399706567773
aF1161.9248526092897
aF1163.1044865561262
aF1164.1670944031932
aF1165.2771716029931
aF1166.389320455997
aF1167.4603778142703
aF1168.499384085799
aF1169.6425653746578
aF1170.648931574302
aF1171.8299847708151
aF1172.867636117294
aF1173.949180310099
aF1175.0551977714324
aF1176.092639693147
aF1177.2238591264465
aF1178.2537753145837
aF1179.332561530052
aF1180.3986249080563
aF1181.475683715255
aF1182.5369210162628
aF1183.6063073176963
aF1184.687593103598
aF1185.74368471991
aF1186.7099098659642
aF1187.8370408192495
aF1188.8281314723235
aF1189.8557309223454
aF1190.9076211675442
aF1191.8573157946896
aF1192.958955449224
aF1193.9248899773297
aF1194.8985279236158
aF1195.908334410811
aF1196.934762931969
aF1197.9228273526562
aF1198.889116690178
aF1199.8335968428412
aF1200.842112414985
aF1201.8574323168177
aF1202.8367359342687
aF1203.8913422527796
aF1204.9083636774692
aF1205.8468184887067
aF1206.886229146714
aF1207.8569862807924
aF1208.7821128920746
aF1209.8228677260804
aF1210.8181102325625
aF1211.78339295116
aF1212.8341700683222
aF1213.744431875548
aF1214.8008660958249
aF1215.7351082239352
aF1216.715053642727
aF1217.77552071235
aF1218.751504347355
aF1219.7372243501743
aF1220.7301990278559
aF1221.6974279283359
aF1222.6580579000301
aF1223.682637164565
aF1224.660892317531
aF1225.6001362709003
aF1226.5904335418318
aF1227.6323780823955
aF1228.4911318263992
aF1229.5512947867858
aF1230.5233028997582
aF1231.490370426001
aF1232.5221318145464
aF1233.4497743074373
aF1234.3890229173119
aF1235.4808660581484
aF1236.3160768923462
aF1237.410326324714
aF1238.3549795917102
aF1239.2984186280582
aF1240.3309547994693
aF1241.3053251780736
aF1242.277910417257
aF1243.167861583701
aF1244.2103897139486
aF1245.207638715232
aF1246.1357374495733
aF1247.1583594763754
aF1248.1251910223004
aF1249.1393114671348
aF1250.1040459809979
aF1251.0178067524914
aF1252.072570824737
aF1252.9676710472836
aF1254.0339745733584
aF1254.9442288874575
aF1255.9350352544675
aF1256.866965253476
aF1257.803721842166
aF1258.7989530437205
aF1259.7855558238975
aF1260.6977889954492
aF1261.7487787868442
aF1262.7128462267247
aF1263.7345384964308
aF1264.696270069535
aF1265.6916065667147
aF1266.5393081687978
aF1267.6951950871248
aF1268.5895827061065
aF1269.49088830688
aF1270.6572599120168
aF1271.5242318994012
aF1272.4739000719742
aF1273.508944181097
aF1274.3581049288318
aF1275.4355254045813
aF1276.3472574672348
aF1277.2427113956435
aF1278.2904619234469
aF1279.1963637672031
aF1280.1276320717343
aF1281.2181353319934
aF1282.0038360035003
aF1283.0883213841919
aF1283.969853126649
aF1284.9311849358196
aF1285.8931995639032
aF1286.9252502566585
aF1287.8266733143084
aF1288.8539047468744
aF1289.7826392520415
aF1290.8077966814963
aF1291.6748780323662
aF1292.65344851993
aF1293.616524994314
aF1294.5990734832928
aF1295.621224120463
aF1296.5011108738772
aF1297.4843349194455
aF1298.4588252673557
aF1299.411998255339
aF1300.3384260816772
aF1301.3748481434254
aF1302.1972416689027
aF1303.3503898827682
aF1304.171848491925
aF1305.1378457073183
aF1306.1861938745997
aF1306.8917518240837
aF1307.9611022924348
aF1308.7708006030616
aF1309.7288629974298
aF1310.7059258703819
aF1311.4423862108529
aF1312.5076554317425
a.