(lp0
F0.0
aF0.0
aF0.0
aF0.41548393793634597
aF0.5036959903557752
aF0.5358373931151232
aF0.6178155296682402
aF0.7451240045097987
aF0.8651247928674782
aF0.9800731630603389
aF1.1246291074730421
aF1.2840624415501132
aF1.4348335378536574
aF1.6035728148435673
aF1.7757955158629324
aF1.9558445017995831
aF2.1403470505262994
aF2.3256104000037885
aF2.5235696522565627
aF2.728111222477516
aF2.933017329292082
aF3.1464045178783318
aF3.3630226296264905
aF3.5845418390950448
aF3.8115459911606795
aF4.0404105361244484
aF4.277987740350068
aF4.517629447689463
aF4.762108126616954
aF5.010854044590135
aF5.264152891148266
aF5.523366299505061
aF5.784319236971802
aF6.049931372362125
aF6.320059006720211
aF6.595257813217333
aF6.874020826611689
aF7.1570248771887135
aF7.445379118375954
aF7.742423431253052
aF7.729965546583519
aF7.768643573278997
aF8.012790674112091
aF8.630585436819809
aF9.600566743914612
aF10.906917720041239
aF12.540605688261417
aF14.469974444821457
aF16.644227893367045
aF19.0370122761795
aF21.625893499776083
aF24.379304198917
aF27.29552757467738
aF30.34919036149478
aF33.528280624226475
aF36.83180524818212
aF40.24401802515301
aF43.755354790453254
aF47.38122621790128
aF51.0698661210986
aF54.84605449793356
aF58.70831735561393
aF62.625705226978184
aF66.6176710031718
aF70.66570478600433
aF74.78360925899459
aF78.94661462869638
aF83.17152378274723
aF87.43541821751745
aF91.7290451464732
aF96.06624343578457
aF100.4200814893351
aF104.81988215125946
aF109.27753625714897
aF113.77024403029624
aF118.29091939843404
aF122.7982117336678
aF127.32859541073185
aF131.94472094694342
aF136.51441523080604
aF141.15012891054204
aF145.76664910552444
aF150.4225509719847
aF155.11929998039196
aF159.82879419442537
aF164.5733288742311
aF169.2775079207629
aF174.00119529725427
aF178.75085437462064
aF183.55090305220395
aF188.32544615060687
aF193.13065437586187
aF197.92159892717393
aF202.80838305340288
aF207.59104992678175
aF212.46163058434644
aF217.3138105108619
aF222.18662876472314
aF227.10382870727202
aF232.04584530927252
aF236.96081007415182
aF241.89351575798307
aF246.85702350042268
aF251.80677460331594
aF256.76953081983015
aF261.7546278744814
aF266.7238173551263
aF271.7116412974011
aF276.7910798644753
aF281.83976548183944
aF286.89088808177587
aF291.9465318249549
aF296.9857178278003
aF302.09426210763115
aF307.2003653669889
aF312.35155797221375
aF317.520128793464
aF322.6721197224803
aF327.87588340471996
aF333.09350817008215
aF338.30952542878845
aF343.55110693833825
aF348.76177811161403
aF353.9869212736569
aF359.1781387678455
aF364.3850348598983
aF369.6674528088961
aF374.97614255543124
aF380.25580489043847
aF385.4857636391541
aF390.80348079343287
aF396.1817877055969
aF401.564184215753
aF406.9350591315338
aF412.3274830781972
aF417.71575052243327
aF423.0812698198705
aF428.4730199286157
aF433.8309109031627
aF439.24041704786214
aF444.6784125696249
aF450.0869154485187
aF455.5384440368871
aF460.98565946996825
aF466.44112523730365
aF471.9608289910309
aF477.48727690112173
aF483.0502850645669
aF488.59653713709935
aF494.1947907725904
aF499.7139179927158
aF505.28940912198925
aF510.90925971402646
aF516.4900941499657
aF522.0605441181871
aF527.615885838312
aF533.1589979956301
aF538.729990929386
aF544.3262085163143
aF549.9903213515919
aF555.5444872481686
aF561.1884368952783
aF566.807538865655
aF572.4749074105841
aF578.114172064809
aF583.7584136735097
aF589.4110330373566
aF594.9908255306958
aF600.7983960235251
aF606.5287828848371
aF612.2783248755712
aF617.996173864785
aF623.7008908794553
aF629.512761432863
aF635.2508858700788
aF641.0140183596902
aF646.7789702244452
aF652.6109997237218
aF658.3968720149801
aF664.2551789286911
aF669.9801286036994
aF675.8025557468942
aF681.6083156016097
aF687.4518355512672
aF693.3455258347284
aF699.1038653085891
aF704.9539586142142
aF710.7942501912569
aF716.6959918600928
aF722.5118303768928
aF728.3618919527335
aF734.262728707441
aF740.1650309222505
aF746.0647545626199
aF751.9150091792819
aF757.7328013092643
aF763.5879207492907
aF769.4830592025078
aF775.3364510395329
aF781.2406479782729
aF787.1271452717344
aF793.1387619855902
aF799.0885872898644
aF805.1202972376914
aF811.0661239451539
aF817.1199957384285
aF823.1362328279401
aF829.0951784196601
aF834.9726951137959
aF841.0261229739882
aF846.8885080108777
aF852.8836939765982
aF858.8828561677395
aF864.8915839674094
aF871.0047648599403
aF877.0075951873773
aF882.9005396230164
aF888.8730078284411
aF894.9098155761139
aF900.9399643302994
aF907.0605120059134
aF913.0831320920981
aF919.1770572815562
aF925.2084254036396
aF931.3756180140487
aF937.3517225750417
aF943.421407182475
aF949.4736359302544
aF955.5299004702025
aF961.677850268545
aF967.7030739228178
aF973.8330395977266
aF979.9862992920316
aF986.205717021835
aF992.2951589856315
aF998.4309138437147
aF1004.631247761697
aF1010.7026842874444
aF1016.736743436576
aF1022.8285621160129
aF1028.9322721045687
aF1035.1540527265865
aF1041.3019102947542
aF1047.477766415089
aF1053.6666861282235
aF1059.9159541587294
aF1066.0530916696762
aF1072.1814582750246
aF1078.2908583731285
aF1084.483462911479
aF1090.7493662208344
aF1096.9098005130727
aF1103.165766811787
aF1109.373392247396
aF1115.7406248532875
aF1121.8569971139405
aF1128.1095878620517
aF1134.2622842872715
aF1140.4877621356916
aF1146.6955392252162
aF1152.9501029271023
aF1159.2617753383302
aF1165.3815478773702
aF1171.6847019417123
aF1178.0169184460958
aF1184.2429145728038
aF1190.4063481086102
aF1196.7262884348584
aF1203.0721534598342
aF1209.3820266007294
aF1215.6653164428965
aF1222.045493586514
aF1228.4476345993305
aF1234.855610019754
aF1241.1287993783767
aF1247.5594603102377
aF1253.8030493900799
aF1260.228942345716
aF1266.5048107191913
aF1272.9594377423018
aF1279.3427998167838
aF1285.62048865754
aF1291.873962771112
aF1298.2379809052377
aF1304.6040594166077
aF1310.904275136568
aF1317.2014061347008
aF1323.4983956765423
aF1329.7450582013003
aF1336.0207531952415
aF1342.3225374255458
aF1348.6480784949615
aF1354.864310206912
aF1361.157778081397
aF1367.4094462146647
aF1373.7720180855051
aF1380.0298540117428
aF1386.4329895511069
aF1392.7667132122144
aF1399.1385831226676
aF1405.4511264619086
aF1411.7655445240625
aF1418.147536962861
aF1424.4839387874867
aF1430.8706262455064
aF1437.2195793277624
aF1443.6427648368847
aF1450.1065525765673
aF1456.5124818602983
aF1462.7289054957541
aF1469.1186965489803
aF1475.4737773928348
aF1481.7502732592363
aF1488.187434995522
aF1494.560593649053
aF1501.035088748849
aF1507.414755874422
aF1513.796342286262
aF1520.1868086924856
aF1526.6838837764585
aF1533.101781829826
aF1539.4709003896683
aF1545.934344139597
aF1552.305323692596
aF1558.7349611875404
aF1565.0087108066366
aF1571.5469575067548
aF1577.8997712169082
aF1584.3615923453015
aF1590.8368031856437
aF1597.2424067691734
aF1603.819013482605
aF1610.2890349631157
aF1616.685513474473
aF1623.2282563488639
aF1629.5705410861449
aF1635.9288916415976
aF1642.4814550873766
aF1648.8262419031184
aF1655.2916924482604
aF1661.8366058627453
aF1668.3021386318826
aF1674.7751624974192
aF1681.2486943138474
aF1687.5976029097808
aF1694.0919112845122
aF1700.4710365927058
aF1706.7300730351415
aF1713.2584879176545
aF1719.569065866238
aF1726.0216119994104
aF1732.3146735378434
aF1738.7622834635717
aF1745.2772587029222
aF1751.7203151925758
aF1758.1668085137119
aF1764.6174421243281
aF1771.1676664349322
aF1777.655352413627
aF1784.0655725321333
aF1790.528082512526
aF1797.1320388805325
aF1803.5716376037758
aF1810.0600765861964
aF1816.6931016134838
aF1823.1220314855889
aF1829.8142201752032
aF1836.3044441314523
aF1843.012309096151
aF1849.5524896546535
aF1856.0602305681925
aF1862.6845815065478
aF1869.2422958928482
aF1875.7780080739767
aF1882.2757675491396
aF1888.7780677593942
aF1895.2002646564733
aF1901.8309782772255
aF1908.411427821639
aF1914.892324827902
aF1921.6201741899176
aF1928.310615941789
aF1934.7728740279993
aF1941.2582550825161
aF1947.9077180642512
aF1954.4141749653156
aF1961.0060404239823
aF1967.6880175200688
aF1974.3145186483548
aF1981.0022706671339
aF1987.6239092306566
aF1994.1555941572592
aF2000.6353699252982
aF2007.159862549326
aF2013.9167025794616
aF2020.6223600387145
aF2027.2393685791951
aF2033.831373043522
aF2040.4650933232222
aF2047.010972967995
aF2053.6073143983895
aF2060.2376654879245
aF2066.826115114712
aF2073.4187884795833
aF2080.138877854178
aF2086.743982588042
aF2093.35152286861
aF2099.9951104166457
aF2106.4793493314974
aF2112.99761699679
aF2119.6272439456725
aF2126.2191138886983
aF2132.8127180799033
aF2139.4094574398355
aF2145.893518841759
aF2152.4609741549143
aF2158.939929902872
aF2165.615588753995
aF2172.282397779686
aF2178.7841152787987
aF2185.4244941800766
aF2191.9266438989393
aF2198.536380675621
aF2205.114403754874
aF2211.838385264092
aF2218.0698495620127
aF2224.798493582664
aF2231.1368296204805
aF2237.7915149074634
aF2244.45393332278
aF2251.0147271615388
aF2257.6398487139422
aF2264.189917338658
aF2270.858418188461
aF2277.435219606389
aF2284.1850068436343
aF2290.7192455623976
aF2297.419410613271
aF2304.1149789124775
aF2310.7589019476604
aF2317.353003952783
aF2324.0624131378595
aF2330.730561644775
aF2337.5955354530997
aF2344.320404478151
aF2350.9432589321727
aF2357.5611407187866
aF2364.2347494507476
aF2370.8031124479257
aF2377.5038682513264
aF2384.208897148446
aF2390.7720719901913
aF2397.4186850836177
aF2404.0542667457166
aF2410.773723122001
aF2417.4605121151835
aF2424.056320288631
aF2430.78901811865
aF2437.3304136686534
aF2444.0202468529446
aF2450.550587429449
aF2457.2497536678957
aF2464.1861915619515
aF2470.799404747931
aF2477.510610968088
aF2484.2987350061885
aF2491.051443285504
aF2497.6670329339604
aF2504.390074187772
aF2511.1997758479138
aF2517.943362314095
aF2524.653691904138
aF2531.3259317801103
aF2538.3516894903505
aF2545.113698238476
aF2552.0468793733285
aF2558.9115314050723
aF2565.8038867460714
aF2572.559964885333
aF2579.2830243192475
aF2585.973758530569
aF2592.52609625707
aF2599.3185198984465
aF2606.2780372692646
aF2613.0192877659556
aF2619.7555729508067
aF2626.4355197137793
aF2633.145729893903
aF2639.7736256195885
aF2646.4856937781765
aF2653.344878345045
aF2659.940815747958
aF2666.5649460826567
aF2673.3274779709172
aF2680.1418683527854
aF2686.9098960634356
aF2693.528159421686
aF2700.3274713864803
aF2707.1794269806637
aF2713.7619152379857
aF2720.4730777425743
aF2727.1081554627563
aF2733.899954013745
aF2740.552799240639
aF2747.241955084991
aF2754.014077759018
aF2761.0964265593175
aF2767.7544157338807
aF2774.627046720883
aF2781.2161025263817
aF2788.1306430886557
aF2794.8897827279
aF2801.798537680285
aF2808.709031194436
aF2815.2922608224076
aF2822.1963008283988
aF2828.7907349925454
aF2835.6353674927327
aF2842.3849148261797
aF2849.225760143879
aF2856.10687720595
aF2862.9416385339996
aF2869.643489409343
aF2876.549299093547
aF2883.311456114448
aF2890.246890444327
aF2897.0935160863946
aF2904.0009672693395
aF2910.9819521822665
aF2917.615272916598
aF2924.513123703987
aF2931.240165027705
aF2937.9110302623926
aF2944.9178149926206
aF2951.8288785294244
aF2958.839197017376
aF2965.44279327161
aF2972.346797929931
aF2979.3068193582712
aF2986.0851363568518
aF2992.9612251297685
aF2999.8639780499966
aF3006.636965225996
aF3013.588861314028
aF3020.547753979022
aF3027.6682379261906
aF3034.5148703595023
aF3041.4252945722624
aF3048.2563393481073
aF3055.255344333697
aF3062.140644025827
aF3068.8596232454747
aF3075.879201524506
aF3082.619157555128
aF3089.536284420015
aF3096.3497963429004
aF3103.106942315205
aF3109.8962405259254
aF3116.7600541598927
aF3123.6850690389915
aF3130.4437704761144
aF3137.51173949681
aF3144.447312680349
aF3151.3864660821437
aF3158.2746889317978
aF3164.8453123956056
aF3171.5387868664984
aF3178.4038707059954
aF3185.1889048929775
aF3191.8690053069477
aF3198.6799091227017
aF3205.5104958598595
aF3212.2992368222576
aF3219.2779549052298
aF3225.9172076368436
aF3232.672801006389
aF3239.4634966092285
aF3246.2541306806456
aF3253.0748124249476
aF3259.9085811552613
aF3266.6978970988057
aF3273.654674464111
aF3280.4889513403937
aF3287.0420384450554
aF3293.9784604874703
aF3300.7335370213877
aF3307.633956640366
aF3314.4767584703422
aF3321.4602417695264
aF3328.3633091749784
aF3335.3481212429824
aF3342.187337708849
aF3348.9592865921995
aF3355.9387274817473
aF3362.741066607921
aF3369.756520346949
aF3376.886183356396
aF3383.4628185280776
aF3390.3927220338555
aF3397.517290298738
aF3404.3646790619846
aF3411.5079283967516
aF3418.3646366075145
aF3425.461036842644
aF3432.2165355112716
aF3439.2574943450836
aF3446.23690847216
aF3453.130180413891
aF3459.915992300641
aF3466.700689574645
aF3473.794490753921
aF3480.597196716763
aF3487.452874830644
aF3494.2979460134875
aF3501.3199414712954
aF3508.4596018904517
aF3515.5734977946627
aF3522.6611343571763
aF3529.6163838608063
aF3536.452204452844
aF3543.6205032875177
aF3550.7964748750055
aF3558.127500194111
aF3565.3647654553424
aF3572.4931841765033
aF3579.630796232629
aF3586.589130063186
aF3593.6076927938366
aF3600.4286485591756
aF3607.4631670149606
aF3614.605300110687
aF3621.649252172699
aF3628.252684127085
aF3635.4194350649746
aF3642.5124510349183
aF3649.621954750009
aF3656.65266885879
aF3663.5177609475236
aF3670.8063674447153
aF3677.621918504113
aF3684.7787478550194
aF3691.8698871679926
aF3698.8545947432754
aF3705.709540556499
aF3712.7249729299624
aF3719.6451705323475
aF3726.5486886922313
aF3733.529712165652
aF3740.440477802676
aF3747.3680000674135
aF3754.4000099310847
aF3761.4211090987774
aF3768.3231990095305
aF3775.554368781273
aF3782.9147455632706
aF3789.9542476008646
aF3796.9663408033907
aF3803.966679747476
aF3810.833064086066
aF3817.8954232197566
aF3824.9577951606143
aF3832.265415260756
aF3839.273331005986
aF3846.273384880408
aF3853.177684846121
aF3860.1857403654417
aF3867.113006945866
aF3874.197442986028
aF3881.138027683244
aF3888.137137682686
aF3895.2701196574
aF3902.337018609763
aF3909.328517134984
aF3916.4516505423553
aF3923.378351691344
aF3930.597295010085
aF3937.6672356766876
aF3944.803247946897
aF3951.9527134069276
aF3959.1590616893086
aF3966.2847145478054
aF3973.511362350454
aF3980.603232537969
aF3987.785541836533
aF3994.904428087147
aF4001.954242012576
aF4009.345094604803
aF4016.424598617296
aF4023.2274987375326
aF4030.2766836746055
aF4037.431407670631
aF4044.402004233822
aF4051.1779005973785
aF4058.5555955496598
aF4065.4760799951846
aF4072.4648964888365
aF4079.5264201241844
aF4086.458952324373
aF4093.6607727783253
aF4100.558141634575
aF4107.735354450998
aF4114.950784036615
aF4121.978758161083
aF4128.977704525907
aF4136.0453330436185
aF4142.869152105742
aF4149.902096300537
aF4156.748875794136
aF4163.831283210663
aF4170.779601398332
aF4177.728755225309
aF4184.946632972008
aF4192.3767783408975
aF4199.519766521507
aF4206.408068797399
aF4213.392008912959
aF4220.463544090004
aF4227.58344774205
aF4234.869205156509
aF4242.377874351065
aF4249.548870039835
aF4256.696581631301
aF4263.470529194225
aF4270.724430065458
aF4277.961657197784
aF4284.811043719123
aF4291.849267795019
aF4299.050962656036
aF4306.325512305134
aF4313.1855417683855
aF4320.287859901617
aF4327.362402251585
aF4334.5185418362
aF4341.231665638402
aF4348.541511224911
aF4355.245134224148
aF4362.507880335666
aF4369.408667797045
aF4376.654867869199
aF4383.740616358954
aF4390.895850876659
aF4397.661054174971
aF4404.460424975352
aF4411.518678844967
aF4418.590652435347
aF4425.561988686704
aF4432.822939739688
aF4439.761131405204
aF4447.042949113042
aF4454.172703158678
aF4461.1999595530615
aF4468.249480865141
aF4475.608312000679
aF4482.777370832734
aF4489.898279845987
aF4496.98467969927
aF4504.2689672752085
aF4511.395625785452
aF4518.514442456187
aF4525.683503160905
aF4533.040719395448
aF4539.8547369384105
aF4547.0322389205985
aF4554.229390394082
aF4561.438804707978
aF4568.681464213831
aF4576.152105088929
aF4583.236223865792
aF4590.3885015020305
aF4597.788608757567
aF4605.033082685497
aF4612.234516805887
aF4619.412584546136
aF4626.571839576846
aF4633.68235979234
aF4640.877651698459
aF4647.977563190053
aF4655.230969619888
aF4662.465513536484
aF4669.491786163991
aF4676.860375706104
aF4684.188679608694
aF4691.325684641485
aF4698.598845726956
aF4705.984319482642
aF4713.206902062235
aF4720.476117658318
aF4727.350788168653
aF4734.531574962247
aF4741.560969348447
aF4748.682272925903
aF4755.69874784742
aF4762.7158138126715
aF4770.046439728179
aF4777.241322400602
aF4784.200555074368
aF4791.645688083445
aF4798.9269418032345
aF4805.980048369776
aF4813.154482702165
aF4820.022344024909
aF4827.082787545874
aF4834.424211170673
aF4841.545929653383
aF4848.615774910526
aF4855.767396611687
aF4863.090794781632
aF4870.225920281309
aF4877.321536101065
aF4884.638652556333
aF4891.584259061969
aF4898.522154639763
aF4905.3940376343635
aF4912.483596157168
aF4919.630580854943
aF4926.561262692838
aF4933.903014506712
aF4940.822830114631
aF4947.592131264571
aF4954.9419880474225
aF4962.06391128377
aF4969.312106895051
aF4976.290035181279
aF4983.563556225697
aF4990.581333456124
aF4997.830615123101
aF5004.832173323157
aF5011.864633976775
aF5018.940335840571
aF5025.895909363141
aF5033.143702846742
aF5040.122768183626
aF5047.466575996668
aF5054.832582940028
aF5061.931700629908
aF5069.204459654187
aF5076.104573933969
aF5083.388027548448
aF5090.3160072879955
aF5097.546898644346
aF5104.43892262029
aF5111.577450770903
aF5118.6835785983785
aF5125.688239514744
aF5132.766622566145
aF5140.027397726152
aF5147.148651170237
aF5154.219026697823
aF5161.218840215928
a.