(lp0
I-100
aF8.0
aF11.25
aF20.25
aF32.77777777777778
aF37.53846153846154
aF48.346153846153854
aF95.53030303030303
aF73.20110701107012
aF27.661133170874514
aF29.689361280512465
aF32.52267851293809
aF35.56281903744195
aF38.38894301523486
aF40.8810101192776
aF43.23997986315162
aF45.791892147315394
aF48.62916141119242
aF51.765120682078596
aF54.49544048000131
aF56.4092766254706
aF59.087424066281336
aF61.658747481875665
aF63.96467324392206
aF66.6344708861175
aF69.67384479645438
aF72.63698534571554
aF75.3104722548239
aF77.81410853412872
aF80.23694078070193
aF81.94802330081268
aF84.6179287013221
aF87.16136654523973
aF89.46720016739424
aF91.99099446539125
aF94.7460377048844
aF97.69250983658347
aF100.77298407280067
aF103.42475078967881
aF105.99419081689588
aF107.95661760202519
aF110.67440707210216
aF112.98135461109287
aF115.25589162044177
aF117.42953848931049
aF119.87649701520095
aF122.1745249925123
aF124.43515703530474
aF126.78745651745864
aF129.3239540341175
aF131.57507166721874
aF134.71622330721962
aF137.72704858176687
aF140.5254334643505
aF143.13297625739006
aF145.7288840020186
aF148.31403010671514
aF150.65763560945788
aF153.04756308174476
aF155.32647037103894
aF157.23846452986206
aF159.63757421926258
aF161.86182507415415
aF164.08449375138468
aF166.5898813480048
aF168.86055141854882
aF171.04135861225762
aF173.26099666438273
aF175.51392558254022
aF177.9198332663226
aF180.13448886121375
aF182.74749523243176
aF185.4973722322282
aF188.2013231583482
aF191.03056585814159
aF193.89570144379303
aF196.59410669008014
aF199.12403121448472
aF201.64484156287435
aF204.0952581202332
aF206.3530489379229
aF208.8399646421349
aF211.122791722395
aF213.3852196032576
aF215.62624725112414
aF217.87717347600253
aF220.06093067909543
aF222.28753800265045
aF224.4659774358974
aF226.67961163056904
aF228.6330165394298
aF231.23011526786448
aF233.46616709471488
aF235.68565784291204
aF237.86187959775654
aF240.03195902089982
aF242.21145711530966
aF244.39944324322104
aF246.78907163457788
aF249.24055353611607
aF251.4744565952788
aF254.0470299872831
aF256.56678263438164
aF259.1692869773567
aF261.60844315160665
aF264.20821999302524
aF266.8815321432528
aF269.48630080783795
aF272.0517489661284
aF274.57805954779127
aF277.00657004355423
aF279.51110554990316
aF281.8465904661877
aF284.1529269613595
aF286.4966603621087
aF288.7217235041192
aF290.9786980889002
aF293.2332203681898
aF295.63199159756954
aF297.93493655098285
aF300.0654952076677
aF302.2522337911682
aF304.5877296989041
aF306.809051411129
aF308.8504455677091
aF310.9653251879082
aF313.3016957010512
aF315.4475778823549
aF317.75897784105126
aF320.1846821342852
aF322.23157726351707
aF324.4986379263659
aF326.6660013456852
aF328.91776758459974
aF331.09398360507765
aF333.2580784789976
aF335.3655111720154
aF337.5223974595151
aF339.81496114680516
aF342.1541434514676
aF344.2840276609969
aF346.642998974359
aF348.98967555858246
aF351.45035263129824
aF353.79316796179444
aF356.2220916158943
aF358.74927482121825
aF361.01353530297496
aF363.456805901443
aF366.08654650933795
aF368.38152594792365
aF370.88005497548664
aF373.5387894428056
aF375.82476254949023
aF378.348996455181
aF380.8772375735943
aF383.28456902316844
aF385.57122958319144
aF387.9404339905965
aF390.1832174287648
aF392.26688104212724
aF394.46625299993843
aF396.67019635516243
aF398.99942355190495
aF401.09199913020643
aF403.4142712957568
aF405.61443622966016
aF407.75284430093586
aF409.91982235168626
aF412.3051280683688
aF414.3746810727441
aF416.5488313702323
aF418.83768293133227
aF421.0622102421453
aF423.2145330565288
aF425.51257103001205
aF427.61263118594553
aF429.6568902984401
aF431.7931371181476
aF433.9979239748087
aF436.0596454456335
aF438.26538545166625
aF440.7596086781709
aF442.918087939049
aF445.388318604403
aF447.6614404050267
aF449.8869102322146
aF452.0237614622439
aF454.3068012111465
aF456.68873033717085
aF458.69114570514404
aF460.7293402585468
aF462.8112371121332
aF464.97888681923735
aF466.78728008993335
aF469.0618276481738
aF471.1889987978846
aF473.4770530409952
aF475.8117466295776
aF478.1260159599565
aF480.4179013257203
aF482.68288335227345
aF484.9337672674459
aF487.1450864467002
aF489.5169486657695
aF491.8539452846136
aF494.0046443693176
aF496.57914981085935
aF498.9217544176352
aF501.3286363114189
aF503.5096584173241
aF505.9394976841121
aF508.2381677197014
aF510.64876751895497
aF513.0021929644613
aF515.2975013847007
aF517.5542492697017
aF519.9546806598916
aF522.3983014687782
aF524.6883100365555
aF526.9811486370088
aF529.239980553926
aF531.466511171832
aF533.6568287559389
aF535.8911390743149
aF538.2399859682521
aF540.461136069912
aF542.5772789188213
aF544.762121721863
aF546.9631609610398
aF548.9409498884221
aF550.9822663028986
aF553.1674167767558
aF555.4154088218038
aF557.5093257786184
aF559.6389849631772
aF561.7667353201824
aF564.1213325948263
aF566.411496455181
aF568.7054883602616
aF570.8791352357982
aF573.1248907687826
aF575.017561746123
aF577.1750472845731
aF579.1977270396127
aF581.2730362894127
aF583.302024739984
aF585.4773995421237
aF587.7171236445541
aF589.9349741931778
aF591.7171582924158
aF593.7708475216004
aF595.8332109346472
aF597.9004947976499
aF599.9735450386689
aF602.009857016842
aF604.159339126439
aF606.2540812767966
aF608.4639695082424
aF610.773438365438
aF612.9819704340549
aF615.1576485840058
aF617.3180852198601
aF619.4211937457177
aF621.5561516085224
aF623.6762775145137
aF625.7517262600775
aF627.9432888177734
aF629.9939422658756
aF632.0760726857968
aF634.0820501251077
aF636.2228098102122
aF638.1822881195999
aF640.3892572291331
aF642.5496728003774
aF644.7115790164687
aF646.8952752739611
aF649.0390155742278
aF651.0100949387862
aF653.3347084719755
aF655.332916294066
aF657.594707303765
aF659.8626768797772
aF662.1075351092767
aF664.4170694281471
aF666.6860401665743
aF669.0769852503744
aF671.3307061738931
aF673.3009629073483
aF675.6984302494943
aF677.8486131279072
aF680.478850674686
aF682.7903201322705
aF685.1951550236525
aF687.5847046997765
aF689.928991970722
aF692.4105112004595
aF694.8380043900137
aF697.0233325264527
aF699.4207028124807
aF701.4885048749175
aF704.0134481499564
aF706.3848099448194
aF708.8025584324473
aF711.1008312340502
aF713.1919892506206
aF715.5992565757354
aF717.7643239583975
aF720.1219957495343
aF722.4917061222479
aF724.8425443939898
aF727.4156208589914
aF729.7794614797614
aF732.0378819581199
aF734.2494276641312
aF736.4204710033439
aF738.5004266911741
aF740.6199889223952
aF742.7765731798377
aF744.6870330481876
aF746.6908032634243
aF748.8310728761548
aF750.9813388747118
aF753.1473582072406
aF755.196199545406
aF757.4265660386648
aF759.6294386254262
aF761.7093072394198
aF763.8561526374307
aF765.9764353762708
aF768.3058821357661
aF770.4449513431905
aF772.7850487611748
aF774.9124555364551
aF777.0494409912405
aF779.1902619648389
aF780.9714385939001
aF782.9188979059309
aF785.1349720812494
aF787.113262819303
aF789.0990557137114
aF791.1447241025642
aF793.2640243377083
aF795.5293982497672
aF797.5292058998502
aF799.5664653559588
aF801.4652107377153
aF803.4584529983262
aF805.4375174366128
aF807.370132560916
aF809.3443237943651
aF811.371398446763
aF813.2634889245375
aF815.3256084452029
aF817.4004558210523
aF819.3184995999753
aF821.1325306889421
aF823.1768450290479
aF825.0381431033069
aF826.9993743204711
aF828.5559119716144
aF830.630725617536
aF832.4762943148203
aF834.5593690766314
aF836.7394393067852
aF838.8368733947664
aF840.7843961418063
aF843.1286525474492
aF845.4611979305563
aF847.870902295125
aF849.7806714553532
aF852.2403043369452
aF854.2426303157117
aF856.1831995142305
aF858.1192232579513
aF860.2050550388327
aF862.2767286050127
aF864.2554403571105
aF866.3512090851654
aF868.4692902918756
aF870.3888658728172
aF872.6218194871796
aF874.459840074178
aF876.4078076599585
aF878.3936267108675
aF880.529043481115
aF882.7287514257346
aF884.768296585622
aF886.9913348869267
aF889.0729375225654
aF890.8947519557611
aF893.0157639732188
aF895.3175259296945
aF897.0917119342239
aF899.03966824489
aF901.1261385269307
aF903.3408312306398
aF905.5871151045192
aF907.7919930088578
aF909.8242407706762
aF911.9318466164302
aF914.462734970503
aF916.6346919182387
aF918.7134880095185
aF921.1266442104918
aF923.4054202087505
aF925.7316122017766
aF927.7672175404335
aF930.3941174298526
aF932.7524852811455
aF934.8514571231664
aF937.0841145267096
aF939.4290795854565
aF941.6390788658546
aF943.80164522945
aF946.0622474224266
aF948.5330211128344
aF951.0412560414221
aF953.3368296025208
aF955.5478326871396
aF957.6312083647819
aF960.0113291378121
aF962.2045425639722
aF964.6645885900671
aF966.9190657886639
aF968.9565675836461
aF970.9817095686282
aF972.9807805134222
aF975.1558456211177
aF977.4449192353928
aF979.5838242412806
aF982.0512069941661
aF984.2359057993312
aF986.7240356448317
aF989.1023082540802
aF991.1833979526946
aF993.1562579491093
aF995.4110033889403
aF998.0097727487191
aF1000.2770529468479
aF1002.0577220465238
aF1004.4236328205127
aF1006.5577610293061
aF1008.6398849574949
aF1010.818903727409
aF1012.6806031936193
aF1014.7180895801622
aF1017.0789792192339
aF1019.2044652674073
aF1021.4702403420093
aF1023.1384983940372
aF1025.598847966916
aF1027.6046460104376
aF1029.3329941699456
aF1031.350558395628
aF1033.4316552813507
aF1035.5252426825966
aF1037.4859560588343
aF1039.470535864477
aF1041.3616119966355
aF1043.4049791203472
aF1045.5706528874082
aF1047.7328236288442
aF1049.964678852032
aF1051.9733417305001
aF1053.9529938375442
aF1056.190604255389
aF1058.1392531263334
aF1060.2993706356824
aF1062.5838684133869
aF1064.623297617485
aF1066.82723960812
aF1068.9183450330067
aF1070.9646196515096
aF1072.7838422214381
aF1074.7171116873312
aF1076.6542913057926
aF1078.5249883069246
aF1080.4514519689174
aF1082.5775459211513
aF1084.394270525694
aF1086.7497661500088
aF1088.6701532768254
aF1090.773963132695
aF1092.7047674728701
aF1094.5520588018087
aF1096.4164256261924
aF1098.5848589035588
aF1100.5289551528479
aF1102.6199253287382
aF1104.4974813149668
aF1106.5867734180124
aF1108.3393951702237
aF1110.0790978763907
aF1111.8017703653559
aF1113.5706935811434
aF1115.4568265924884
aF1117.3293118727793
aF1119.1557998514804
aF1121.148967115925
aF1122.7524220871376
aF1124.7434399999997
aF1126.7796146697901
aF1128.5532502379624
aF1130.350444129895
aF1132.1243989398365
aF1134.038937940542
aF1136.0212731039858
aF1137.8496588563999
aF1139.6765707439954
aF1141.503006957435
aF1143.3072075620323
aF1145.1519867889306
aF1146.8882367663107
aF1148.6823090178057
aF1150.516257544116
aF1152.4998830697273
aF1154.5088683108156
aF1156.6204269355903
aF1158.7956928808217
aF1160.7900793732183
aF1163.0404388084562
aF1165.0825654385822
aF1167.1680226308579
aF1169.1319403132038
aF1171.0566778946159
aF1172.9820542802634
aF1174.9649453912873
aF1176.9055735619922
aF1178.940886861194
aF1180.8347664134162
aF1182.8256743728075
aF1184.6604092902653
aF1186.581328081728
aF1188.6741659008107
aF1190.258056773844
aF1192.0066628921218
aF1193.8772473270042
aF1195.6906396159843
aF1197.4946929849755
aF1199.2608758076094
aF1201.2153180910025
aF1203.01070193361
aF1205.0641762570003
aF1207.0399282833546
aF1208.6319906292438
aF1210.5586549546852
aF1212.6190709658363
aF1214.474430664331
aF1216.71997070613
aF1218.6091230934585
aF1220.6217455342123
aF1222.4917249245111
aF1224.514739308104
aF1226.5891542043614
aF1228.3790652449507
aF1230.476179340111
aF1232.5482595780645
aF1234.4138570479106
aF1236.5087328450982
aF1238.229507490606
aF1240.1728149922874
aF1241.9293521295494
aF1243.8227480665475
aF1245.9561962787454
aF1247.8773093728844
aF1249.9097753306855
aF1251.829496500283
aF1253.7573532126842
aF1255.849685725539
aF1257.7464403066813
aF1259.8402551847216
aF1261.8956145173465
aF1263.6701438037212
aF1265.9314357806634
aF1267.9559706238333
aF1269.8925152931233
aF1272.0078486237214
aF1273.9345834461594
aF1275.900977282891
aF1277.655093200315
aF1279.760483291965
aF1282.0183724126614
aF1284.1880374667674
aF1286.5831090451065
aF1288.9497507538927
aF1290.8262977155612
aF1293.1202314818613
aF1295.2355376308794
aF1297.3547239636328
aF1298.671812248481
aF1300.5684581931566
aF1302.6779848771423
aF1304.7882873272722
aF1306.9272218894369
aF1308.8015016308696
aF1310.858305707815
aF1312.8207438406466
aF1314.8184305970394
aF1316.9079048318474
aF1318.5402767294568
aF1320.6403003138525
aF1322.733230081234
aF1324.6224439557554
aF1326.7543766436775
aF1328.7424006826975
aF1331.0809616023696
aF1333.1937267934438
aF1335.0582943910854
aF1337.256817911403
aF1338.7932419349547
aF1341.007032054517
aF1343.1667159004655
aF1345.2953400400431
aF1347.9162922846535
aF1350.0996992672458
aF1352.0476396593037
aF1354.0128972039306
aF1355.8971522817437
aF1357.7697243716511
aF1359.4906388704292
aF1361.4748038958269
aF1363.5815240134898
aF1365.5326927574165
aF1367.3991010691984
aF1369.5849303546886
aF1371.125220523677
aF1373.1947221800544
aF1375.1370029088016
aF1377.203736373744
aF1378.7238555857753
aF1381.0229280260605
aF1383.1943582863566
aF1385.116184181375
aF1387.1985004205385
aF1389.1911696527845
aF1391.2575491515408
aF1393.3067844731736
aF1395.2081793080247
aF1397.2280110447368
aF1398.7313212732793
aF1401.0519325207486
aF1403.2675557360772
aF1405.3022757763365
aF1407.4712456459217
aF1409.4606607887947
aF1411.1814959321575
aF1413.1094200668758
aF1415.116369902355
aF1417.0389950602291
aF1418.418757050559
aF1420.5633905383947
aF1422.6542750471815
aF1424.6088689494457
aF1426.575034053238
aF1428.924716293725
aF1431.009674441504
aF1433.1832414978685
aF1435.400048822716
aF1437.4651530132892
aF1439.0828605651886
aF1441.254090390659
aF1443.3278697940812
aF1445.1816486622877
aF1447.046437157932
aF1448.959171155795
aF1450.640840909837
aF1452.4190038565687
aF1454.3620730681655
aF1456.456883500523
aF1457.812563585048
aF1459.641381361669
aF1461.6212501025684
aF1463.5204728867593
aF1465.353979904569
aF1467.2427022347676
aF1468.90913641231
aF1470.796394078888
aF1472.865804826415
aF1474.5881568582402
aF1475.863550408965
aF1477.942463044486
aF1479.687666416401
aF1481.6778610639292
aF1483.3828087177005
aF1485.4244774037375
aF1487.3741722669422
aF1489.0575823220015
aF1490.5560813804648
aF1492.1895090979956
aF1493.9639647031313
aF1495.9548587464
aF1497.8561611238297
aF1499.6848670714696
aF1501.452628879726
aF1503.220564704724
aF1505.0729474802756
aF1507.2034882289709
aF1508.7532061538461
aF1510.645382971129
aF1512.127123337121
aF1514.2165193132168
aF1516.1278036932645
aF1517.945488598413
aF1519.6863553188698
aF1521.5223458988414
aF1523.2137362299218
aF1525.0446531874913
aF1526.9407164894317
aF1528.8428004660743
aF1530.4201112551482
aF1532.5786976446502
aF1534.3691110646134
aF1536.0977201303017
aF1538.0263461285983
aF1539.846370502874
aF1541.7741468297927
aF1543.4358609314995
aF1545.1880595055427
aF1546.9894681130404
aF1548.3423096171832
aF1550.432067235303
aF1552.0623858932227
aF1553.6133790104209
aF1555.0664507235256
aF1556.864273230052
aF1558.4792400036106
aF1560.046942183346
aF1561.5349303772023
aF1563.4775354886356
aF1565.0914306460347
aF1566.8762020808717
aF1568.5586303381895
aF1570.3474960818585
aF1572.093883085659
aF1574.0509793383003
aF1575.9051440481173
aF1577.7584610334998
aF1579.6842547919127
aF1581.6137450869376
aF1582.828743775074
aF1585.2503835960385
aF1587.2255501673887
aF1589.0510012759548
aF1590.844866845273
aF1593.07364875399
aF1595.0505971551536
aF1596.7289269083226
aF1598.516658871603
aF1600.6439695740116
aF1602.2692364492616
aF1604.21324627478
aF1606.129936201202
aF1607.7642746074664
aF1609.566790980479
aF1611.3552529550052
aF1613.1059965783072
aF1614.922723449648
aF1616.5780188400565
aF1618.2697827558618
aF1619.5607904668143
aF1621.6238527969804
aF1623.4784511052399
aF1625.3649180892833
aF1626.9590171332916
aF1628.71374297917
aF1630.4786203104998
aF1632.0118609507635
aF1633.6087669130977
aF1635.4617335007263
aF1636.7910215702202
aF1638.8950038359446
aF1640.7787544720516
aF1642.4191904687668
aF1644.200015590639
aF1646.0221547550668
aF1647.9427841713336
aF1649.6887226343256
aF1651.7200799209
aF1653.3321353256365
aF1655.1052072394332
aF1657.18950790753
aF1659.160095429948
aF1661.480263724722
aF1663.3936410706667
aF1665.3698715003118
aF1666.9126599572492
aF1668.7591021359349
aF1671.0243352575071
aF1673.321530262251
aF1674.9737535177176
aF1676.8279246088075
aF1678.9702259822104
aF1680.8582391748516
aF1682.8408661045808
aF1684.6164661765188
aF1686.3442782354678
aF1688.574947279456
aF1690.4436013260142
aF1692.479026487675
aF1693.9722299703024
aF1696.453646989321
aF1698.3713172092641
aF1700.3622071149875
aF1702.1133542029083
aF1703.9081157481864
aF1705.454660518013
aF1707.3225225446995
aF1709.100652747406
aF1710.9709402270462
aF1712.5138169257339
aF1714.1617803925428
aF1715.9081136967868
aF1717.5320302948246
aF1719.178676343883
aF1721.1168112909515
aF1722.7348075818495
aF1724.7780089031119
aF1726.374939997292
aF1728.3126353923917
aF1729.753108348135
aF1731.864577905961
aF1733.7245738199274
aF1735.4870637662368
aF1737.0430305168752
aF1738.717668779617
aF1740.251658536385
aF1742.134079094747
aF1743.6856993985346
aF1745.6683084838387
aF1747.0767095919296
aF1748.9226896961989
aF1750.8905254434083
aF1752.726208059474
aF1754.771919387529
aF1756.5934822923164
aF1758.4081657353386
aF1760.1201017498513
aF1761.815482198098
aF1763.4921369197568
aF1764.8645806411912
aF1766.6405083960008
aF1768.442006925526
aF1770.3170774236164
aF1771.920639544425
aF1773.6506008525582
aF1775.49333497446
aF1777.0880300326176
aF1779.008412618312
aF1780.6562961564969
a.