(lp0
F0.0
aF0.0
aF0.0
aF0.0
aF0.0
aF0.0
aF0.0
aF0.0
aF0.0
aF0.0
aF0.0
aF0.0
aF0.0
aF0.0
aF0.0
aF0.0
aF0.0
aF0.0
aF0.0
aF0.0
aF0.0
aF0.0
aF0.0
aF0.0
aF0.0
aF0.0
aF0.0
aF0.0
aF0.0
aF0.0
aF0.0
aF0.0
aF0.0
aF0.0
aF0.0
aF0.0
aF0.0
aF0.0
aF0.0
aF0.0
aF0.0
aF0.0
aF0.0
aF0.0
aF0.0
aF0.0
aF0.0
aF0.0
aF0.0
aF0.0
aF0.0
aF0.0
aF0.0
aF0.0
aF0.0
aF0.0
aF0.0
aF0.0
aF0.0
aF0.0
aF0.0
aF0.0
aF0.0
aF0.0
aF0.0
aF0.0
aF0.0
aF0.0
aF0.0
aF0.0
aF0.0
aF0.0
aF0.0
aF0.0
aF0.0
aF0.0
aF0.0
aF0.0
aF0.0
aF0.0
aF0.0
aF0.0
aF0.0
aF0.0
aF0.0
aF0.0
aF0.0
aF0.0
aF0.0
aF0.0
aF0.0
aF0.0
aF0.0
aF0.0
aF0.0
aF0.0
aF0.0
aF0.0
aF0.0
aF0.0
aF0.0
aF0.0
aF0.0
aF0.0
aF0.0
aF0.0
aF0.0
aF0.0
aF0.0
aF0.0
aF0.0
aF0.0
aF0.0
aF0.0
aF0.0
aF0.0
aF0.0
aF0.0
aF0.0
aF0.0
aF0.0
aF0.0
aF0.0
aF0.0
aF0.0
aF0.0
aF0.0
aF0.0
aF2.112307063072202
aF4.604268163682469
aF6.642865223896938
aF8.39846193046258
aF10.22628020394591
aF11.614899006299929
aF13.169216961766661
aF14.386368647337669
aF15.78493330902533
aF16.938689474134733
aF18.30529837470688
aF19.40221876594814
aF20.932297438778377
aF22.065944964243
aF23.802591896610874
aF24.99296690687334
aF26.855295550612368
aF28.164433810225326
aF30.129011117673265
aF31.67702072129073
aF33.695356033942055
aF35.15438411753896
aF37.6065222105198
aF39.13980707331413
aF41.90905812222102
aF43.268059613677835
aF45.927992557370274
aF47.74470933038758
aF50.39773904217416
aF52.60084190043138
aF55.31722447371967
aF57.18153909739616
aF60.407286477557236
aF62.28938628122784
aF65.8640712423621
aF67.70765976130603
aF71.17483683791359
aF73.23504222434671
aF76.27566777099078
aF78.96115127574471
aF82.45496207332491
aF84.90996173354989
aF88.86124171031919
aF91.00063689813128
aF95.56856969235047
aF97.2815811043141
aF100.80077286056502
aF103.1829454853498
aF106.9680014069863
aF110.20259879137548
aF114.34531266973241
aF117.08954661395549
aF121.6546473863285
aF123.88289413846007
aF129.55209925333583
aF131.35406495117658
aF135.5378345203897
aF137.956345187794
aF141.53084006445346
aF144.73855856035294
aF149.0621375931534
aF152.13595665526455
aF158.01296118855544
aF160.57702976928306
aF166.1561289127426
aF168.21296319432298
aF173.82813999814215
aF177.72950513119707
aF182.08013595322217
aF185.39120356538191
aF189.24783089222635
aF191.1506610195734
aF196.73650847597273
aF198.09218866470889
aF204.64716972408726
aF206.44423669930518
aF212.686257889991
aF216.6104174990012
aF222.55631486417514
aF226.0093545765889
aF231.5228855259493
aF233.96657788083374
aF241.22870832111076
aF243.50708957277445
aF251.73392433287776
aF252.96588536843004
aF259.0400234826404
aF261.1501783288044
aF266.30900983518717
aF268.97132789002995
aF274.01620694988657
aF275.429996348375
aF282.9124019693497
aF283.7167857035531
aF292.02578394171076
aF293.79835459956246
aF301.493792851219
aF305.4527033436684
aF311.8640916515099
aF315.34430732841645
aF321.8236939240532
aF323.96533591382365
aF332.6560998545757
aF334.3538805573523
aF344.1692765769739
aF345.7546228801884
aF354.375869078558
aF356.45236857625525
aF362.42825393882276
aF365.14445626070335
aF370.6137389360014
aF371.95983908632235
aF380.24815222195946
aF379.300792270725
aF388.73096174656007
aF388.3554178216432
aF396.25127909786966
aF398.3399612027158
aF404.7855907202323
aF408.4022230435369
aF416.41919742765276
aF418.800094207728
aF429.2935981037499
aF429.85380703531695
aF440.79604821303155
aF441.16584785060786
aF450.06301171318876
aF452.6904188890334
aF460.5825971981417
aF464.04333855955906
aF473.21620452837186
aF474.70601901690884
aF486.5503071763367
aF486.0233155160732
aF498.7136873440486
aF497.87024514795655
aF506.98963771839675
aF508.60083949530224
aF514.6450449801717
aF517.5361496080313
aF523.7176974452049
aF523.4616622306431
aF534.4162497436948
aF531.6824856913345
aF543.7047152433097
aF541.3723068653898
aF550.9236039475913
aF552.4265802001311
aF559.0590249042638
aF562.0003400918249
aF570.0162783168195
aF570.4859415287991
aF583.8698818806929
aF581.7969508979029
aF597.0038876072289
aF594.9419317245676
aF606.5968441561772
aF608.6871640340462
aF617.9694839057722
aF620.5379328793289
aF630.2334973065219
aF630.4545456823536
aF642.93932001517
aF641.8082395349071
aF656.2174580433893
aF655.1302220927547
aF666.7327890556046
aF669.6944330413016
aF678.9155605572428
aF683.7568148529551
aF693.0663787078339
aF693.6715470153632
aF706.4041246778796
aF703.4395909287214
aF716.9542108603956
aF713.5253325366181
aF723.8734853263182
aF725.530032654533
aF731.7978040227875
aF735.4242485570796
aF741.4322073126199
aF742.0193800779412
aF752.3446794753373
aF750.9209823062537
aF762.7044360728837
aF761.6464231629409
aF770.3839053315195
aF772.4687442121229
aF778.7581697665928
aF781.9780564733403
aF788.9959576075614
aF789.4898402392654
aF801.0403244430531
aF800.3315935140339
aF814.1588944599956
aF813.8085356990703
aF824.8399402068104
aF829.4300352826364
aF837.2907985620021
aF842.5759606546239
aF850.8856951011819
aF853.1482823194821
aF864.6986521444557
aF864.6844539711191
aF877.8920234459862
aF877.1499089819519
aF886.6754512116199
aF890.7430319255404
aF898.0961589866963
aF903.6102720694067
aF910.9675715160213
aF915.1164229612092
aF925.7025496114242
aF927.0176307766366
aF939.7550098121095
aF942.2582928052143
aF951.7573250567814
aF958.2839794173242
aF964.792153271528
aF972.2286217102632
aF979.507117218114
aF982.2988231464557
aF994.1323965066669
aF992.6253158401347
aF1005.8876630866635
aF1003.675413297755
aF1012.5724988959299
aF1016.5714807641298
aF1021.005023004951
aF1027.2709860575676
aF1032.881117657653
aF1033.319279824465
aF1045.7158218559493
aF1041.2541725402455
aF1057.2422311103826
aF1052.2122008656443
aF1062.6895491961118
aF1064.6081209633005
aF1070.8862228227365
aF1074.8793100859389
aF1082.335167997698
aF1080.863419379425
aF1094.527586701795
aF1089.5345126429968
aF1105.2396060933236
aF1100.0447527298663
aF1110.6318410896474
aF1114.288245310896
aF1120.1212086172695
aF1125.2987282623922
aF1133.804982473453
aF1135.705099283634
aF1150.868139501502
aF1147.4880725837631
aF1164.8854835242453
aF1161.991020430718
aF1174.4295135434509
aF1177.363984424722
aF1187.736639378781
aF1192.4637702555274
aF1202.3971905464225
aF1202.2875578787894
aF1217.3423468160152
aF1212.797160375936
aF1230.464875514956
aF1225.2629977028134
aF1240.1601253475476
aF1240.6809111663028
aF1251.0910861265625
aF1252.5135225216645
aF1264.062209618363
aF1262.2155784823153
aF1279.1991854508196
aF1275.0699218651862
aF1292.8035521736685
aF1288.3045077224936
aF1304.4402024225174
aF1303.7434988476427
aF1317.4968153845366
aF1319.588180888501
aF1333.2305255062804
aF1331.7217986388407
aF1350.9741005391138
aF1345.576762056973
aF1367.1215778116402
aF1361.6462238764682
aF1377.9029530036528
aF1378.1382704146708
aF1390.137740955056
aF1391.2909356138837
aF1402.5471394016417
aF1398.7967652467516
aF1418.121700602354
aF1409.3643960808379
aF1429.5013023094286
aF1422.0657258450033
aF1435.691323382575
aF1437.4942723961105
aF1445.3164790168757
aF1448.361192428769
aF1457.082486014757
aF1454.1731333460607
aF1470.752661436639
aF1461.866323305925
aF1483.4699603148254
aF1473.784573236999
aF1488.852918467006
aF1486.176879879744
aF1498.5342320307425
aF1497.0595632530121
aF1508.378340945398
aF1502.4463997424973
aF1521.716937971038
aF1510.9456138672683
aF1532.5402880855888
aF1521.60327641785
aF1539.1776482125617
aF1533.6682288129198
aF1547.7026188236257
aF1544.8447845394903
aF1559.4479740100276
aF1552.6766388719748
aF1573.0445234860942
aF1560.8830404793073
aF1585.9907377622555
aF1573.522470411819
aF1592.6175895998688
aF1589.7758650158096
aF1606.4451432958035
aF1604.1218309647115
aF1619.8905206669126
aF1612.3844616405709
aF1635.3053431016679
aF1625.4413950354715
aF1648.7037653289167
aF1639.2012200026138
aF1658.4562692289971
aF1655.5463137901233
aF1671.8328481381811
aF1669.63547514084
aF1687.540170318669
aF1679.3586928662965
aF1702.0771509787983
aF1691.1751484052722
aF1715.1012081428316
aF1705.1760538585734
aF1723.317610304277
aF1719.0751305876445
aF1736.302383817693
aF1732.3573758644573
aF1749.6719876943237
aF1742.3266161473944
aF1765.2496471707182
aF1755.6087123783661
aF1779.9927437433298
aF1769.3898325557518
aF1789.6482166615494
aF1786.4611112226562
aF1801.0071042451254
aF1801.2333024258219
aF1814.7547938109963
aF1809.1154110810307
aF1830.1291118463103
aF1820.4752870643738
aF1846.1711679055709
aF1835.1913465312653
aF1856.0053877271312
aF1854.6918637938827
aF1873.0092403462697
aF1871.5516935030516
aF1890.9155098635383
aF1883.584549431761
aF1909.8044068195059
aF1897.29485205314
aF1926.4863256630485
aF1912.6464431564689
aF1934.5107227633625
aF1930.914672297433
aF1946.3684691510982
aF1946.6741111094377
aF1961.4433440080213
aF1952.9244639621502
aF1979.8145533553245
aF1963.6339864344307
aF1995.3602380077944
aF1976.5099718832194
aF2000.5618534053347
aF1993.1803658824892
aF2010.1778371878838
aF2007.9735096679678
aF2021.9058455189647
aF2012.6534873657836
aF2039.275716277146
aF2021.719663102358
aF2052.6862272240087
aF2035.8347782308815
aF2056.9027657691304
aF2052.2665019981123
aF2064.595742172886
aF2065.166376847908
aF2075.5748492555067
aF2069.261253797293
aF2090.8788306534098
aF2076.0613277064917
aF2104.4310821918507
aF2087.48164331704
aF2107.10720556093
aF2103.213386676031
aF2114.2937903188617
aF2114.194494847221
aF2125.2339753774872
aF2118.87841361225
aF2141.3284271121975
aF2126.555083637608
aF2153.161522754537
aF2137.1611085099207
aF2157.8900701603666
aF2153.6189128143355
aF2164.6021901550635
aF2164.508566056656
aF2178.6307717120826
aF2167.0886721303236
aF2192.9303138559662
aF2178.4410484743294
aF2205.4007559990205
aF2190.3623400356423
aF2210.4934278159376
aF2205.9665158166495
aF2222.553960661943
aF2217.9400629252723
aF2231.769354054123
aF2223.765049339211
aF2249.3935613856784
aF2234.3266808889603
aF2262.7060948726325
aF2248.1156113894413
aF2270.0077544327464
aF2264.2847047707123
aF2281.7101373296164
aF2279.4357544844343
aF2295.584040234531
aF2284.788388213161
aF2311.8675730316427
aF2296.5495431088734
aF2328.6443279527416
aF2311.433537940523
aF2334.6720004904664
aF2330.4557927901674
aF2348.5581211535214
aF2344.4541472343417
aF2360.4962771728005
aF2349.5311225876594
aF2378.7837365474797
aF2360.1300915843954
aF2390.690823833324
aF2373.1113443263266
aF2398.2175672568405
aF2390.0671363364754
aF2406.8238852411196
aF2404.769082169236
aF2421.2048706863475
aF2412.996294342277
aF2440.3716059416465
aF2426.8420389628677
aF2456.900165298532
aF2441.4332432949036
aF2465.340414483916
aF2462.3738994910304
aF2479.5983709754187
aF2478.1524129566424
aF2494.0770692967853
aF2487.0674809490083
aF2514.0854563480907
aF2499.80004822715
aF2528.2634152944056
aF2515.7399467042083
aF2535.8693242897366
aF2532.287711962135
aF2547.8751721701374
aF2549.6710701158822
aF2563.1317350545564
aF2560.95798481663
aF2582.594556848702
aF2572.1140909570754
aF2601.3038845998803
aF2586.656164493803
aF2607.1667818192054
aF2608.650106837607
aF2620.782210208056
aF2625.5929983430697
aF2637.5596249115356
aF2635.09082604724
aF2657.9256492460613
aF2644.9649127213365
aF2674.8590619296187
aF2661.4621593918173
aF2684.135191090138
aF2682.7599195011676
aF2695.6041719005552
aF2701.917007647657
aF2709.788632704751
aF2709.8024504294776
aF2732.278240655496
aF2721.075242315983
aF2747.901638674141
aF2737.214104135686
aF2754.1121393646163
aF2755.7069263873846
aF2763.1524914287475
aF2773.4434232005688
aF2777.509114870443
aF2778.318864950606
aF2796.8998664544947
aF2786.865553876356
aF2812.3527323926387
aF2800.28442436789
aF2817.6745811057167
aF2818.7180306007863
aF2825.311821456202
aF2832.9695325145194
aF2840.993705197248
aF2838.276066029592
aF2858.48389183495
aF2847.0824644621207
aF2873.659419808476
aF2860.395357481929
aF2877.0457049388465
aF2877.507594758914
aF2885.014557934638
aF2891.07337392263
aF2899.107542665089
aF2892.1629046435114
aF2918.3478436361593
aF2898.658782169603
aF2931.1810725117175
aF2911.9910902890942
aF2935.270973776072
aF2927.706278319753
aF2941.8022227906386
aF2940.90832726999
aF2953.5702145408773
aF2943.275369787529
aF2968.0413270205113
aF2950.109560148597
aF2982.1354762001956
aF2961.5024432344294
aF2982.9410299385286
aF2974.554915910405
aF2991.806443201456
aF2987.6180332147214
aF3002.1272182383073
aF2992.6765344484425
aF3017.878593212806
aF2999.5904261479504
aF3032.9404427472355
aF3011.1254123251865
aF3036.7280060672915
aF3025.3033814991095
aF3045.4917144433884
aF3038.226178578424
aF3057.115012682308
aF3042.394176365174
aF3070.0981040114325
aF3051.4182324864814
aF3083.1869768580623
aF3061.19448754244
aF3086.367626402701
aF3075.757476294676
aF3095.0564747723533
aF3087.7570062461996
aF3108.1595131227828
aF3090.978395434507
aF3122.7584957591416
aF3102.1453455312167
aF3135.7942904393185
aF3115.2180259476218
aF3137.3802455374266
aF3129.545438547978
aF3148.1541296879473
aF3143.7111685833374
aF3160.644372755088
aF3147.6965072530834
aF3177.64897174599
aF3158.478077771177
aF3194.479617506136
aF3172.342678281174
aF3199.1940593856903
aF3192.7940897169215
aF3208.3938774361286
aF3208.304648338911
aF3222.4281465022937
aF3214.572521001648
aF3240.4593629817527
aF3225.847906747578
aF3256.654196893839
aF3241.431610896428
aF3259.4960400604496
aF3263.2378193746426
aF3272.4923157339126
aF3279.547761298763
aF3291.675518536163
aF3281.5279458962627
aF3309.3171718722024
aF3294.387703006914
aF3322.2033636173073
aF3307.2211367539394
aF3324.649394650784
aF3326.5914082833115
aF3335.6617335718715
aF3339.5909621443993
aF3350.401472767644
aF3343.283453728914
aF3371.279732078945
aF3354.2865259454707
aF3388.0258614959016
aF3371.031647636223
aF3393.628179713352
aF3392.0176845083706
aF3403.987682318092
aF3405.115022356338
aF3423.1076036606614
aF3410.711968101143
aF3442.9118886519273
aF3425.4234348604296
aF3463.11413726512
aF3441.7236063414166
aF3469.863238456025
aF3461.89527534151
aF3484.066864426752
aF3481.1931267738405
aF3499.4998642320656
aF3488.0915428209682
aF3518.724281721003
aF3501.2818915471453
aF3533.5973811203467
aF3518.1695670094796
aF3538.192002828318
aF3537.805947942332
aF3553.8931024415724
aF3553.6229552999225
aF3570.034425952305
aF3559.7608380958127
aF3590.579117919152
aF3574.0172379980186
aF3606.0099385293024
aF3589.491332385064
aF3611.8760288276485
aF3607.774477149302
aF3625.1363501445717
aF3621.2937089065313
aF3639.1524829416226
aF3628.6470811334875
aF3655.0706826775
aF3641.472216217847
aF3673.60803099809
aF3656.457581472541
aF3680.495779165963
aF3676.0975313851673
aF3692.7602075292043
aF3693.0487509910777
aF3709.5790038192563
aF3696.118845206375
aF3730.9325076544824
aF3711.308667991047
aF3746.156995332019
aF3729.8050779657947
aF3758.0739443103234
aF3752.3627359390857
aF3770.887588325653
aF3771.3679636841784
aF3789.4407676120163
aF3780.5337841573314
aF3810.388894569997
aF3793.6091530350045
aF3828.4699783973156
aF3808.613620008555
aF3835.2106684672513
aF3831.5822689763595
aF3846.829998618
aF3846.742928139354
aF3862.0735266254615
aF3853.226224182412
aF3884.0539714243387
aF3864.9723574986165
aF3899.412880199744
aF3878.91911535248
aF3903.194481809766
aF3896.9198018856546
aF3917.5318670581737
aF3909.747367124624
aF3934.117027368335
aF3916.913259273794
aF3950.32189656846
aF3930.8078129168325
aF3967.2376203506124
aF3941.29231238007
aF3972.5181460987033
aF3960.302591440394
aF3984.01702935003
aF3972.789374673051
aF3997.714057834676
aF3975.5953777451086
aF4013.4942770607436
aF3987.0634126568507
aF4025.716887248144
aF4001.882354125761
aF4027.7349765054173
aF4017.4713362664993
aF4039.2603139449243
aF4029.3168704119616
aF4050.458393458394
aF4031.8119555316225
aF4067.371660883208
aF4042.7919162806143
aF4080.627732303259
aF4057.247414222656
aF4083.386698449073
aF4075.0059450192553
aF4097.026160337553
aF4086.439622897518
aF4110.6794169448485
aF4091.6267705133164
a.