(lp0
F7.6506060541572545
aF11.02908372184361
aF14.346222533727731
aF17.47524766827361
aF20.7370751402698
aF23.691524226523697
aF26.385549315470147
aF28.56927458186385
aF30.674316764164818
aF32.599322279405065
aF34.396157588725956
aF35.91459773496102
aF37.30693994148347
aF38.75144775889408
aF40.087804841474934
aF41.55632417004657
aF42.9360018080004
aF44.380604757276174
aF45.81382576521354
aF47.23093962003
aF48.74546912225151
aF50.3137240022058
aF51.87001478600798
aF53.449793700516
aF55.08557217966203
aF56.8347104084562
aF58.56333382388016
aF60.34070291043298
aF62.13316998857433
aF64.01955077410703
aF65.9275134102731
aF67.93840756434878
aF69.9157026220996
aF71.90612312304683
aF73.99735754902508
aF76.1316440834748
aF78.35494274256263
aF80.63665778744776
aF82.86094560244025
aF85.2107320793086
aF87.63259226119361
aF90.04865213898579
aF92.41167647163509
aF94.81505682540491
aF97.2833008760913
aF99.84761040255488
aF102.49282706644561
aF105.27344989625288
aF107.90725334852077
aF110.6199075345601
aF113.32087753379238
aF116.15369533042066
aF118.95066164205217
aF121.743740240981
aF124.5985708836618
aF127.50613620181059
aF130.40871475873436
aF133.49502550825775
aF136.57523460746168
aF139.59196738323178
aF142.63420396744658
aF145.80846648048956
aF149.07377311847645
aF152.34290074006256
aF155.64537051638797
aF158.94154152932077
aF162.34666883724717
aF165.60160180272752
aF168.97513202210035
aF172.3733569699066
aF175.75745720027476
aF178.9982017499237
aF182.2517399444439
aF185.48011649793966
aF188.81199505484443
aF192.42522156760992
aF196.1271254133808
aF199.99943787358515
aF203.88012923249127
aF207.6711810943502
aF211.41923470244362
aF215.32406196738827
aF219.17005082598587
aF222.86218501503384
aF226.85728495184406
aF230.65858467142886
aF234.62391053266242
aF238.50705923653402
aF242.0676931218008
aF245.71509140214397
aF249.29715826697534
aF252.949617905041
aF256.68649794182153
aF260.5310479214046
aF264.41987096314614
aF268.4537901067478
aF272.70164548331627
aF277.13146754588143
aF281.6907831803472
aF286.2074435879824
aF290.7605340687634
aF295.1711347077499
aF299.34257501819167
aF303.5870369333938
aF307.9103435642759
aF312.4434302577018
aF317.08635278912743
aF321.77173006085025
aF326.0482726861016
aF329.93689804474246
aF333.8755018649786
aF337.941966897829
aF341.95558422129267
aF345.69553359724017
aF349.8590478856038
aF353.9914695825616
aF358.3854890745698
aF362.5512913796086
aF366.9884839880108
aF371.63883857246066
aF376.4680396317726
aF381.4078514877682
aF386.68018279340066
aF391.72172528188224
aF396.5061932266354
aF401.13395746412937
aF405.78505999816804
aF410.328261345192
aF415.0853276882445
aF419.81513349039085
aF425.0152943092244
aF430.22611609187214
aF435.4640787123498
aF440.6969938278829
aF445.6551053847485
aF450.2626646042375
aF454.90959097894336
aF459.39553047610815
aF463.85914815662926
aF468.32040492339627
aF472.77782329055697
aF477.4852564787535
aF482.1029065300245
aF486.4985981783952
aF490.9983360556887
aF495.43028255371985
aF499.9776304340082
aF504.5393138082978
aF509.60464086710937
aF514.8225647236018
aF520.6300695101721
aF526.2136500554611
aF531.9334362961869
aF537.5625982669401
aF543.0877716146761
aF548.2889711494428
aF553.4082114541031
aF558.3877841270489
aF563.3241887140028
aF567.9773540262053
aF572.691119671472
aF577.4374363958315
aF582.1344228841289
aF587.2840943784091
aF593.1087927858241
aF599.2030703785309
aF605.249783717214
aF611.2736221574283
aF617.2427824060173
aF622.4192084185673
aF627.4751370249928
aF632.230631840872
aF637.1108521293056
aF641.788427582066
aF646.7565141275139
aF651.7670311999063
aF656.9615063613231
aF662.0940217695522
aF667.6053552980453
aF673.0655434046948
aF678.2614263831
aF683.2168156003825
aF688.3047053914036
aF693.7465573920654
aF699.1980626052792
aF704.376885419423
aF709.7912046249129
aF714.8264123194048
aF720.3245547073792
aF726.0208444654791
aF732.5211657175427
aF738.9620113380762
aF745.5409302112544
aF751.5254469306437
aF757.3179451685302
aF762.6958337150011
aF768.1248422327627
aF773.47148447638
aF778.5375842273477
aF783.7843086865807
aF788.8459489032521
aF794.1890911959126
aF799.4263753880605
aF804.2425552377947
aF809.3029090835063
aF814.1994519390772
aF819.3937528627412
aF824.5218479826173
aF829.787514440865
aF835.4377627039294
aF841.6145989190511
aF848.4873086630843
aF855.0095066999842
aF861.139171034553
aF867.3186972298703
aF872.9539264777723
aF878.5637815472464
aF883.8953986606143
aF889.3024871368153
aF894.7989313520941
aF900.610810838321
aF906.2663655793598
aF912.3715398826398
aF918.2406886268684
aF924.1992589878262
aF929.5454182293762
aF934.967580552403
aF940.4144783715013
aF946.1628724839047
aF951.752054634186
aF957.3862369772447
aF963.269228224805
aF969.4820392500152
aF975.2657449060599
aF981.6384838537294
aF987.361413195593
aF993.369895258647
aF999.242740679674
aF1005.88042853144
aF1012.4152773961101
aF1018.9763494600123
aF1025.7889090751796
aF1032.3214420219047
aF1038.8006228944234
aF1045.159685677351
aF1051.2106899675323
aF1057.3804158078221
aF1063.1286716809836
aF1068.7727906597993
aF1074.2227076569195
aF1080.1456909319477
aF1085.3634179978728
aF1091.008324044809
aF1096.3635318066158
aF1102.0612043912643
aF1107.6029669211196
aF1112.9655739290201
aF1118.3869377805372
aF1123.8020068302465
aF1128.9096002931385
aF1134.3512739080425
aF1139.8323570723367
aF1145.697007252831
aF1151.1864007409818
aF1156.9397076487714
aF1162.2434362197512
aF1168.4484483873102
aF1174.5767572876803
aF1181.0428500173052
aF1187.1788800561856
aF1193.2134041134584
aF1199.772551923498
aF1206.2418985428321
aF1212.2890303733561
aF1218.7152709209174
aF1224.813103090265
aF1230.725661644951
aF1236.757817271284
aF1242.8164460324003
aF1248.9235249810422
aF1254.791134376368
aF1260.519967835677
aF1266.5492548784086
aF1272.0385541248918
aF1277.608582131333
aF1282.8463601571566
aF1289.2663322848912
aF1295.960052012031
aF1302.3533118211708
aF1308.3584857167575
aF1314.328850264658
aF1320.394087529201
aF1326.6477242074297
aF1332.8136225525875
aF1338.8472490838762
aF1344.961460358499
aF1351.777473534202
aF1358.963301608306
aF1365.8618742493027
aF1372.5852296150774
aF1379.025277124622
aF1385.3454191965716
aF1392.208145233939
aF1399.053768557774
aF1406.1412957732143
aF1412.8620444828991
aF1419.8512703324445
aF1426.924965772075
aF1434.170230145966
aF1441.147426925289
aF1447.517288763576
aF1453.716111464563
aF1460.1100211212054
aF1466.9625395726662
aF1473.2029081396356
aF1479.6438452729358
aF1485.7342033071902
aF1491.7602545896893
aF1497.4201665275546
aF1503.496913077557
aF1509.047960892291
aF1514.5476162604277
aF1520.2736459319428
aF1526.444181477636
aF1532.1396729504693
aF1537.8516816303263
aF1543.998083832945
aF1549.8987453874538
aF1555.6374897578007
aF1561.4864512024428
aF1567.2086482332525
aF1572.9737193027102
aF1579.0297523016554
aF1585.760311796981
aF1592.261047917144
aF1599.1884075674523
aF1605.0039774028553
aF1611.1585120677546
aF1616.8068300379164
aF1622.6063301318754
aF1628.4837493956281
aF1634.5071892830058
aF1641.152622123146
aF1648.2942471345102
aF1655.2582501196039
aF1661.1797275012977
aF1667.6163929336676
aF1674.3082721308638
aF1680.6545424470687
aF1687.1222592630293
aF1693.8397011446284
aF1700.1508150998325
aF1706.418524757867
aF1713.030316371299
aF1718.9378998478226
aF1725.3205642390715
aF1731.702239413681
aF1737.1107319357286
aF1742.9497121829816
aF1748.9175399665103
aF1755.3147322337609
aF1761.0193876979624
aF1766.5847209990175
aF1772.2872098883588
aF1777.9188345738344
aF1784.0540387121737
aF1790.3440987495928
aF1797.5624710440436
aF1804.4356804643348
aF1810.9695181557136
aF1817.0263435248592
aF1822.904296755667
aF1828.8660812936928
aF1835.0556223141002
aF1841.036921995855
aF1846.8926860192166
aF1853.6026423126473
aF1860.468691760105
aF1866.6495658816038
aF1873.3917628667018
aF1879.9424753523995
aF1887.530078117043
aF1894.6501978498786
aF1901.2512158356544
aF1907.9459323881113
aF1914.3262782644126
aF1921.0215789232436
aF1927.9171653382903
aF1935.206901732691
aF1942.7717118934117
aF1950.0031784031578
aF1956.8490772200971
aF1963.7451280588148
aF1969.8238116105229
aF1976.6392307966748
aF1984.2815800203873
aF1991.2783839176918
aF1996.882112059074
aF2000.8651876001265
aF2006.5684737183185
aF2013.1240896029726
aF2019.4378908144254
aF2025.3423549235365
aF2030.509536019287
aF2035.6063777061306
aF2040.4794998390041
aF2045.8944942872479
aF2051.200871241366
aF2057.4627230887245
aF2063.951922142612
aF2071.2367513848326
aF2077.9459184351995
aF2084.218517400668
aF2089.6346708755846
aF2094.4351713021006
aF2099.6079954954957
aF2104.8919248965713
aF2110.543049630498
aF2115.767926200245
aF2120.851291049746
aF2125.99729459688
aF2131.021828813316
aF2136.591687893682
aF2142.2183539761304
aF2147.726663213923
aF2153.6401973657216
aF2159.5170718067643
aF2165.7595855826266
aF2170.8929522880685
aF2175.6476165779163
aF2180.82575897673
aF2186.595609167052
aF2192.094367116584
aF2197.6207196138207
aF2203.4043723713844
aF2209.333254478038
aF2213.871475015175
aF2218.2212344522723
aF2223.2292544950096
aF2228.2713817144504
aF2232.9172224826043
aF2237.4799358069467
aF2242.293868033906
aF2247.4046641069913
aF2253.615618927848
aF2259.8922753750194
aF2266.6388410578957
aF2273.8248883686874
aF2280.1065109659185
aF2285.703737132011
aF2291.270484149707
aF2296.465846345969
aF2301.8677801117915
aF2307.222862954435
aF2313.0964875595687
aF2318.921997004751
aF2324.803492930973
aF2331.1139066174005
aF2337.30660128624
aF2343.996705030389
aF2350.4744743501506
aF2357.8040683950053
aF2363.717299228499
aF2370.244858055928
aF2376.5320589530397
aF2382.7664029142315
aF2388.279061630095
aF2393.7942785437613
aF2398.8669526338717
aF2404.0911555765433
aF2409.1431196565673
aF2413.866518668536
aF2419.1787317154253
aF2424.9066046854864
aF2431.101663374571
aF2437.3728091383177
aF2443.878152090819
aF2450.2909104150735
aF2455.7083576156183
aF2461.5337411977785
aF2467.2750121045206
aF2471.853186367734
aF2477.3715940427355
aF2482.6463130936427
aF2488.105755331862
aF2492.958831944531
aF2497.9950276820223
aF2502.5872809745033
aF2507.1172019175974
aF2510.427733853793
aF2514.5814117868813
aF2518.3841653829627
aF2523.848043661758
aF2529.3764835510783
aF2534.6741905166937
aF2540.6689419615877
aF2546.6993021519174
aF2551.1771381648205
aF2556.203983715431
aF2562.003132062947
aF2568.4468362103044
aF2575.5104122139014
aF2582.781691479754
aF2588.209837998456
aF2595.1468573816096
aF2601.401031004184
aF2608.1728870855113
aF2615.6300925925925
aF2622.5556225824034
aF2625.407794052186
aF2631.949847830928
aF2640.726995446116
aF2663.169962181155
aF2669.7840660284205
aF2675.8102962410294
aF2681.731642361633
aF2687.756966634266
aF2692.9841989306537
aF2698.991785173003
aF2705.0824696547797
aF2710.563666232886
aF2716.7064677820986
aF2721.9282467549933
aF2727.780710673553
aF2733.4464925589955
aF2739.251782418493
aF2745.3950276094424
aF2752.29021901189
aF2759.152284496216
aF2766.6589139984067
aF2773.1530955060107
aF2780.076566631305
aF2786.562780389813
aF2792.4879443435916
aF2798.442823891984
aF2804.342240282838
aF2810.288021799129
aF2815.746799952552
aF2821.1792328184993
aF2826.9978042253824
aF2831.6960364784286
aF2835.784416026084
aF2840.3999038965103
aF2844.504558416869
aF2848.9496004883817
aF2853.3146737133347
aF2857.5741012016415
aF2861.0873976263374
aF2865.2646902836855
aF2870.396981932732
aF2875.2329314768904
aF2880.5393515761207
aF2884.8190025026815
aF2890.0028125355634
aF2895.283738515326
aF2899.3485391661834
aF2902.1030984355834
aF2906.833089001824
aF2912.754225967778
aF2918.590214598802
aF2923.6534714260097
aF2928.7807478637123
aF2933.5924249344775
aF2938.76902575929
aF2942.796844310237
aF2945.5817127297482
aF2951.9191490057024
aF2957.912274059466
aF2964.0447927904365
aF2969.828116400098
aF2975.338154101059
aF2981.1721084504816
aF2987.547074665271
aF2993.4594719108477
aF2999.054813082074
aF3004.5348475759392
aF3008.6157161170663
aF3012.1966765805346
aF3016.4324063207882
aF3021.1303353242415
aF3025.4992436405737
aF3030.4674444389825
aF3036.32658424253
aF3041.523034297331
aF3046.92451489478
aF3052.7084770876963
aF3056.6589458136164
aF3061.9293625777077
aF3066.9884853295384
aF3071.437140869527
aF3076.2539667315227
aF3078.958871680081
aF3083.1870776122846
aF3088.5711712206507
aF3093.3279182601436
aF3097.621701105449
aF3102.3166304676547
aF3106.657412296624
aF3111.247988907352
aF3116.0943874461973
aF3120.59478567299
aF3124.6269242636286
aF3128.8156068631392
aF3133.993634173104
aF3140.4399055828553
aF3144.833617582611
aF3150.423410939165
aF3156.224032535949
aF3161.2908376876594
aF3166.0135656238085
aF3171.118363174182
aF3174.6866096708545
aF3180.4358141747616
aF3184.894198679455
aF3190.035268652916
aF3194.7402621494703
aF3200.214756104991
aF3204.8016578381616
aF3208.8684661311513
aF3213.8973269742683
aF3218.03147295423
aF3223.4508526495124
aF3228.8154440090143
aF3233.6626039965786
aF3240.0510332185318
aF3245.7943420233805
aF3251.307306486751
aF3257.0106809338527
aF3262.5194934808596
aF3268.7283312383897
aF3273.068273639925
aF3276.121663547445
aF3282.180720374394
aF3288.160454061645
aF3294.3774330018728
aF3300.184224318658
aF3305.8907669654363
aF3311.2839142150983
aF3317.2799441964285
aF3323.865445797658
aF3330.2286573280553
aF3334.9884274389533
aF3338.2495973874925
aF3341.831645272123
aF3348.1880239990146
aF3354.210811068008
aF3360.170565771496
aF3366.050576367262
aF3371.931874849417
aF3377.4796223750354
aF3382.9121703057995
aF3388.771904297313
aF3395.5181020219297
aF3401.6325256254177
aF3407.4765161123773
aF3413.5339615332796
aF3419.7465283432066
aF3425.0123569125694
aF3431.619017122826
aF3437.571644071891
aF3444.4699215589326
aF3451.232590028323
aF3457.1812461356863
aF3464.5128933062742
aF3471.125861642434
aF3478.0110979895962
aF3483.933519509081
aF3488.8388154748845
aF3493.6054940540175
aF3497.7156822443594
aF3503.185421231391
aF3508.7869390538012
aF3513.506564335562
aF3519.1682162369407
aF3524.7507289945233
aF3529.0099440716517
aF3533.4442694396457
aF3538.2966167260574
aF3543.59051643776
aF3548.4716267766817
aF3552.9724988548264
aF3556.7661697312587
aF3561.1194801446495
aF3565.2222973929292
aF3570.258741357735
aF3574.725961483999
aF3579.672759206799
aF3584.6399693938274
aF3588.4383709591466
aF3592.862628886444
aF3596.5110519655186
aF3602.014023943734
aF3606.666201061806
aF3610.792763774562
aF3612.8485658394557
aF3617.2372863995624
aF3620.709659874019
aF3624.6143755272337
aF3628.841792074634
aF3633.3155570516515
aF3636.7184056680258
aF3642.1078683899414
aF3647.5354033612484
aF3652.9425473557903
aF3656.3942025090632
aF3660.605377112948
aF3663.9579792256845
aF3669.038006674566
aF3673.580934304396
aF3678.254723627012
aF3683.3482908553456
aF3686.9636411052966
aF3691.7709654302585
aF3696.4161333792076
aF3698.8988834636725
aF3702.661709247662
aF3706.948165566983
aF3711.739345693478
aF3715.4315816991957
aF3719.138578522656
aF3723.3319488119946
aF3727.709898661084
aF3731.4615515187784
aF3735.949528057554
aF3740.4958754044
aF3745.011265034921
aF3748.539778814584
aF3751.5891458797905
aF3755.883810874214
aF3759.4581514688502
aF3760.096303030303
aF3763.9507338252442
aF3768.4356162326676
aF3771.561860852082
aF3775.6943649761592
aF3779.2792039593887
aF3783.6396428178987
aF3787.115088204493
aF3791.845337855043
aF3796.235094756827
aF3801.932607688745
aF3806.4786179732982
aF3811.5755427571544
aF3814.374340388518
aF3814.1429923362743
aF3815.298658947038
aF3817.510323042287
aF3821.905527553373
aF3826.7501572235487
aF3832.986373593084
aF3838.0517889619473
aF3842.9856660504665
aF3846.260555490722
aF3850.2286092042586
aF3855.1778494686437
aF3859.1461607674964
aF3863.0286436714414
aF3867.079386298485
aF3871.3995727371166
aF3875.067350989887
aF3877.3280516603877
aF3879.735811329827
aF3882.144342417931
aF3884.5204553727644
aF3887.329941083522
aF3888.3772694412282
aF3890.1485294377107
aF3892.7487453299213
aF3897.2771172973926
aF3901.055450568988
aF3905.1474076604163
aF3909.3304567571067
aF3913.510153450877
aF3917.1211456730744
aF3921.4565644236895
aF3924.6525733125723
aF3927.756476897933
aF3928.878523818801
aF3931.261153475845
aF3934.4083166421465
aF3936.569466533443
aF3938.620101156497
aF3942.285859691689
aF3945.777117384844
aF3949.2877037238827
aF3952.1626238327717
aF3954.073249464954
aF3956.685281626649
aF3960.9105218815266
aF3963.291040079792
aF3966.510587117275
aF3970.691765887162
aF3972.501822376283
aF3975.8737828272315
aF3979.7495492010594
aF3982.5826193354014
aF3984.5440022404828
aF3986.4331932021464
aF3987.3373797416984
aF3986.2320481107045
aF3985.0378854941746
aF3986.8958262264273
aF3988.4665764433244
aF3991.186409959918
aF3991.825820630599
aF3994.806140813976
aF3998.8019461814515
aF3997.2743012361702
aF3995.8033929312924
aF3997.300897960167
aF4001.7281317397014
aF4005.65452057602
aF4009.0779192975474
aF4010.3956582886667
aF4010.732828462854
aF4013.080624780837
aF4010.8641963723544
aF4000.1670741399084
aF3989.304037253865
aF3979.5356052806333
aF3974.6212086088676
aF3969.05771075577
aF3966.406301033046
aF3967.6610711968956
aF3971.2815153574425
aF3973.946150028795
aF3974.000257588117
aF3973.8681236379266
aF3973.283583648788
aF3975.003274484845
aF3978.502187100108
aF3976.490218121115
aF3976.4798180293915
aF3976.439019125329
aF3975.9697401803737
aF3973.9307472205574
aF3975.510769278337
aF3975.0412762560186
aF3975.7820662876675
aF3979.304293422039
aF3984.747524813819
aF3990.066969486652
aF3995.648117616432
aF4000.1996199368837
aF4006.2657495085546
aF4011.5694964769514
aF4016.816312096338
aF4022.439240215698
aF4027.8803021463063
aF4031.3517686065356
a.