(lp0
F2.519261789264507
aF7.942369064676409
aF14.691758559717087
aF20.49879072303468
aF27.170895799941555
aF33.60817021865366
aF40.819308626003576
aF47.36765433287663
aF54.61832966653725
aF61.964677634582294
aF69.01711514872738
aF74.65055097391703
aF83.52543406222954
aF90.44850962327142
aF97.84305640762246
aF102.76612121292618
aF112.1636329759789
aF118.75808772737739
aF127.78293342377675
aF133.6035920518557
aF140.5467316636596
aF145.21815867458693
aF155.3549040491451
aF161.58866754846554
aF171.34679757979438
aF177.9827358982008
aF186.13526469164395
aF190.72828474062854
aF198.19373519034707
aF202.86677296994787
aF211.82543306601738
aF218.69334089204727
aF228.41664104298627
aF233.87831332302272
aF244.95836398445755
aF250.9193784702524
aF260.1550441666036
aF264.3073820467123
aF272.0438037727277
aF276.24704488039174
aF284.44702235537056
aF287.4474103122471
aF297.64302301432963
aF304.19204528146366
aF315.5681189813422
aF320.39469560272767
aF329.724722836569
aF335.6270800223839
aF346.6249327544712
aF353.4040673788004
aF363.2486893732071
aF367.08046129077104
aF375.98680834435777
aF378.16294660886894
aF388.3707711792851
aF390.3018399676884
aF399.1046361728755
aF401.8643182949637
aF411.8987127435096
aF416.24914266041304
aF428.1392601897987
aF432.8718406044861
aF444.322279558977
aF448.56106781069604
aF460.61562319778324
aF463.64351916235626
aF474.7161264855568
aF480.3844219187187
aF492.15664221640594
aF498.20900521684615
aF509.6262209782854
aF512.53670108095
aF523.3153873948279
aF524.5634051206378
aF535.6904799764292
aF536.3857667972823
aF545.9125532553818
aF547.5665375750851
aF557.7567591057075
aF560.5940187024765
aF570.6319549929676
aF571.1188024383111
aF582.5680406139892
aF584.8165090728984
aF598.0763340774712
aF602.3943637255386
aF614.2717961446956
aF618.2739999100031
aF629.8640663655447
aF633.946532972905
aF645.2092479898217
aF647.3646211581954
aF659.8802240917316
aF663.0077702565583
aF678.4838401268538
aF681.2206465241558
aF694.4834464341668
aF697.8850370143417
aF711.8930871026007
aF715.7542553382701
aF728.3753540546858
aF728.0950374299738
aF740.107774107489
aF739.7918472568354
aF753.103744069872
aF751.1425084813052
aF762.9837906342775
aF762.661695380132
aF774.7223582630802
aF776.0436526684754
aF787.5637777010248
aF785.8678054591646
aF799.1656994644624
aF797.9997310661532
aF812.0643702270551
aF810.5159950332994
aF822.7593109913068
aF822.5981762904203
aF835.8891549801559
aF839.6889861904848
aF853.6868549195033
aF854.165750799877
aF869.3080528532557
aF870.0984917691752
aF887.0851844109997
aF885.9663574817181
aF899.9948524173384
aF900.359286049916
aF914.5347025594857
aF915.2375478754561
aF930.0752520431207
aF929.2371530776987
aF946.9281353250502
aF946.7288308960972
aF966.2714989881737
aF964.9827365526473
aF981.747605974594
aF981.9424281624143
aF998.741301756412
aF999.8346128690317
aF1016.2862189168183
aF1013.7426572699022
aF1030.0064011049055
aF1027.6137206343747
aF1044.9168089053803
aF1040.0427007216704
aF1053.9086846892112
aF1050.7880513699715
aF1065.3693399828642
aF1064.2489972251676
aF1078.1481664876626
aF1073.1120080041287
aF1089.5558194222403
aF1084.5163659262546
aF1103.3445123505128
aF1097.8948474527137
aF1112.5050543528755
aF1108.2340784880166
aF1123.7707339082544
aF1121.9402934868494
aF1135.6984262322505
aF1130.5214467556941
aF1146.267416747945
aF1142.2674607238503
aF1161.00841898351
aF1156.5401346499507
aF1171.7301908093718
aF1170.2107969209871
aF1187.3755663159461
aF1187.7758257234814
aF1204.458156331626
aF1201.1455279140228
aF1219.2667576943977
aF1216.518443375482
aF1237.7096067543223
aF1233.2125130788081
aF1250.096198333287
aF1246.6856298543964
aF1265.2214488563739
aF1263.318625634816
aF1280.7133570069163
aF1274.1294846173716
aF1294.0937723411166
aF1288.6305472551091
aF1310.6119674582924
aF1305.5596112624228
aF1324.8670251777855
aF1322.609309741889
aF1342.4508405099295
aF1340.2651924962831
aF1359.982164650416
aF1354.5598139695117
aF1377.1696847799865
aF1372.4195855251226
aF1397.2091117112193
aF1391.8394041909523
aF1411.2214703875134
aF1407.9340798274393
aF1427.98481905992
aF1425.9207974697845
aF1445.647542923983
aF1436.51591233597
aF1458.1905686462812
aF1449.8670849311338
aF1474.335547796328
aF1464.0107059437153
aF1481.5819347416664
aF1474.5206307102862
aF1493.5477204902932
aF1489.4131274218562
aF1506.6932233115115
aF1497.4183871040877
aF1517.4218912325616
aF1508.6971333648016
aF1531.327645216941
aF1520.0276438764915
aF1538.7442856281286
aF1530.8559605276885
aF1551.6977811605163
aF1546.1589273354837
aF1563.946596450889
aF1552.8383906449944
aF1574.712018655713
aF1565.1059962957245
aF1589.3264164986965
aF1578.2647248324583
aF1595.9041803772534
aF1588.2040240572585
aF1608.2116167547917
aF1602.4723367977351
aF1620.363737292732
aF1610.8584946773499
aF1631.3110907263015
aF1623.2911721977573
aF1647.7164062138795
aF1637.8168634194146
aF1657.923179424906
aF1651.4911330786751
aF1672.434958199178
aF1669.2841050436703
aF1690.4321011402615
aF1679.837292059097
aF1702.9948753590959
aF1695.6080517900434
aF1721.405135481128
aF1712.2825291717536
aF1734.2123485111806
aF1727.6517162367568
aF1750.3643171111687
aF1744.5686399637927
aF1765.001488026256
aF1755.5510147149544
aF1777.807760043008
aF1767.9121128974375
aF1794.9722015675006
aF1782.969073358022
aF1804.8090084203404
aF1795.6678216788291
aF1819.4221286203751
aF1812.2562566481838
aF1836.2477363987089
aF1825.2351642962235
aF1853.0116289297405
aF1843.1540375126087
aF1874.1441256073454
aF1861.1022863964631
aF1886.0621422882439
aF1876.5970796853996
aF1901.4506059033888
aF1894.3204530735543
aF1918.7214788243461
aF1907.1192201291
aF1935.2538676486918
aF1924.8060630719501
aF1956.2223875844502
aF1943.6264978695958
aF1969.2180692061377
aF1959.4449151194958
aF1987.1025552006668
aF1979.7197332994892
aF2005.9677628231814
aF1991.9439515689196
aF2021.2083526048991
aF2008.7151570399737
aF2038.2713331764294
aF2025.2658617682328
aF2047.667288352871
aF2035.8563598134447
aF2062.0343102298616
aF2052.3876497670794
aF2076.6438367886913
aF2059.8024954213497
aF2087.519865665635
aF2072.0001727060767
aF2104.0888752971587
aF2087.430282764445
aF2110.398714838614
aF2097.726339906086
aF2124.6551380059173
aF2113.257528598935
aF2137.3352641806237
aF2118.641587088036
aF2145.8023284319393
aF2130.437291794487
aF2161.9860642944877
aF2144.3888114460074
aF2167.8957978487056
aF2153.831721228469
aF2179.730819468633
aF2169.617140411812
aF2192.3232079114405
aF2176.0097829986057
aF2201.7536541212744
aF2187.274706833438
aF2217.701977518542
aF2199.8852124442665
aF2223.8983905097493
aF2209.0380213204517
aF2236.0927774665106
aF2223.6168260713944
aF2247.4543409640005
aF2230.608798335892
aF2257.6963787398477
aF2242.8323295498417
aF2273.512262146684
aF2257.139053200714
aF2280.341535228025
aF2268.1758375431764
aF2294.043910516199
aF2285.1592633847713
aF2306.9430284232944
aF2292.3445420497105
aF2317.771298061793
aF2305.221099729724
aF2335.4668767604007
aF2320.50798790921
aF2344.5655011525537
aF2332.649853174117
aF2357.9234830695696
aF2350.6719819624036
aF2373.719285532378
aF2359.897613718395
aF2385.8092369477913
aF2374.546146613553
aF2405.476904847695
aF2390.726691050344
aF2415.897445152453
aF2403.9958390493407
aF2432.1870050587563
aF2422.957933851735
aF2447.364070614591
aF2433.095516454191
aF2459.4175244366033
aF2446.2756782527754
aF2476.8404455687787
aF2461.7180568735444
aF2486.134603812363
aF2473.2699174296517
aF2500.155916940599
aF2490.4152026919924
aF2514.395923978449
aF2498.938145383211
aF2527.4619427974135
aF2514.076420196328
aF2546.359420497178
aF2530.6859173549215
aF2558.2360427214094
aF2544.7817834267503
aF2575.4016749078364
aF2563.550939212993
aF2591.5157413699844
aF2576.4569549820667
aF2606.250872031162
aF2592.7323676151186
aF2625.113903462023
aF2609.506718225316
aF2635.856664368954
aF2622.3561421679524
aF2652.036313805306
aF2642.23610966306
aF2668.9353443690534
aF2652.9356448689
aF2684.788114865896
aF2671.345139403641
aF2704.0306587456066
aF2688.88777777273
aF2718.4108956666064
aF2705.2489862438288
aF2735.4302901185733
aF2726.219226010541
aF2754.25708349511
aF2737.2983779311344
aF2770.3399083671598
aF2755.982678106983
aF2792.140808491418
aF2773.7681786554
aF2803.081534849759
aF2786.655781258523
aF2819.776731260952
aF2808.5007209053483
aF2837.4688472224148
aF2818.5072449610147
aF2850.393643382183
aF2832.5584633859003
aF2870.509695782439
aF2849.241776667045
aF2877.5632074468826
aF2861.3839814915823
aF2892.5626921707612
aF2880.4914325594464
aF2907.8353388498517
aF2887.840469472049
aF2918.8873697254407
aF2901.527659893495
aF2937.4874217896286
aF2916.066760247307
aF2945.2518879922304
aF2925.8361889667945
aF2957.952209929419
aF2945.1334013050573
aF2973.5068610000235
aF2951.0701167021753
aF2982.9124871182257
aF2964.23293060423
aF3001.146527233316
aF2978.666188259339
aF3005.450277788049
aF2987.849065562821
aF3017.879452124486
aF3005.1659061041373
aF3032.2064642824134
aF3010.0451874440437
aF3041.818771034432
aF3022.7900159918586
aF3058.3888348529968
aF3036.129482895784
aF3064.5842773455547
aF3043.6924160750486
aF3077.106810787829
aF3060.6016812742864
aF3089.921456646545
aF3065.631965849268
aF3098.2139373337277
aF3076.97720254149
aF3115.8941356375626
aF3090.1365679612754
aF3118.640577219774
aF3097.580964068998
aF3130.1183561150087
aF3114.5150168667706
aF3142.967436426688
aF3118.9130988091993
aF3152.927613426814
aF3130.3678886450084
aF3171.312076811821
aF3144.0008434770352
aF3175.7016363753964
aF3153.6150028618417
aF3187.523187454649
aF3171.2579606286004
aF3199.979334661115
aF3175.82256899489
aF3208.528347013477
aF3187.0202484426895
aF3225.6211178263056
aF3202.3810704094803
aF3230.696832777681
aF3210.3554701352077
aF3243.7541694786764
aF3228.5577775664456
aF3256.0439651903707
aF3233.6340283675704
aF3264.3698401915112
aF3246.6858802197657
aF3283.7878804640936
aF3260.4329303462023
aF3289.7317174041623
aF3269.491004334275
aF3302.621782846159
aF3288.9893781479086
aF3318.5076284734732
aF3296.0443923854664
aF3330.7927309446673
aF3309.868114531997
aF3348.9638415423674
aF3325.790374074124
aF3354.318292959126
aF3335.5687364591427
aF3367.8060192935563
aF3356.824655765921
aF3387.2151013997322
aF3364.8075996819266
aF3400.4155199253523
aF3380.8448600976
aF3420.5649879233733
aF3397.126428973865
aF3428.8570165189644
aF3406.2538843155426
aF3441.254810580504
aF3423.4911743769017
aF3455.7612058102663
aF3430.1950670199853
aF3465.727356251789
aF3442.9165453652236
aF3485.2512076960984
aF3458.8429558576167
aF3492.4959340775986
aF3471.231603327145
aF3508.6088254428178
aF3490.685955963769
aF3526.6238212117296
aF3497.7854540244007
aF3539.3564622554445
aF3515.23207865731
aF3558.7802229412223
aF3532.492828264913
aF3566.469019973418
aF3545.7128005966456
aF3583.575908702776
aF3566.4671937745306
aF3601.8816987765044
aF3576.814962259003
aF3617.117268594374
aF3593.3940196252374
aF3639.5635030246112
aF3614.6604046374177
aF3648.319506586693
aF3629.697353771205
aF3666.865409145107
aF3654.647014570257
aF3683.7529478845404
aF3661.3790215894055
aF3698.4873339982637
aF3675.7749565597114
aF3719.8645096242826
aF3693.83223301324
aF3726.933742529478
aF3706.913150100322
aF3744.2112460252633
aF3726.3319189682247
aF3762.317898358871
aF3736.4558372469783
aF3775.176568402699
aF3750.094573308142
aF3798.9284636406296
aF3769.0482247941704
aF3806.993460374852
aF3781.913673174884
aF3826.0783699493436
aF3806.097797118821
aF3844.7720195062534
aF3814.4597049841386
aF3859.319389731999
aF3830.7069633860815
aF3882.272511085353
aF3849.3474105199903
aF3890.1493708371004
aF3861.7486282813106
aF3905.6910285442827
aF3883.365759753594
aF3924.0337539024854
aF3892.9949834298413
aF3937.632431035835
aF3908.6533332118715
aF3960.8373387812944
aF3925.018129666727
aF3966.9358575308606
aF3937.092678283523
aF3982.384370240458
aF3959.022330551191
aF4001.314880576296
aF3965.490242658079
aF4012.909860038565
aF3982.682290172289
aF4036.2515506087407
aF4000.055871199187
aF4042.864396257679
aF4010.4784895076873
aF4058.8040727906946
aF4033.9175339016942
aF4074.5519776174488
aF4038.1455698220457
aF4086.3286563115576
aF4052.148051083845
aF4109.053942204617
aF4070.460374531495
aF4112.290339024491
aF4080.267173346456
aF4125.7571193879
aF4100.935741776592
aF4141.051621656545
aF4102.816972888753
aF4149.495869523081
aF4117.364786652752
aF4171.845205882895
aF4133.061784698936
aF4173.845706505435
aF4143.331940104048
aF4187.548490653127
aF4164.494611657546
aF4202.210799745205
aF4167.09835983439
aF4211.142646794094
aF4180.551798075915
aF4229.944475400173
aF4195.5946735590815
aF4231.586183417886
aF4202.641429632702
aF4244.603453847893
aF4223.785748049032
aF4258.040746997517
aF4227.490423106734
aF4268.687437976858
aF4241.747290584267
aF4289.694744599511
aF4256.623701921543
aF4290.02732713595
aF4265.607062297502
aF4304.318827294474
aF4284.543692211181
aF4317.149405372439
aF4287.49038711117
aF4323.203138580172
aF4298.607057634158
aF4343.768051906144
aF4310.401538510587
aF4345.168579931973
aF4317.158469808442
aF4356.066089802258
aF4337.8336044789
aF4366.180200769988
aF4337.5398625163425
aF4372.73043233074
aF4349.144209859263
aF4393.612515601899
aF4359.525114790276
aF4395.3573309191015
aF4365.141452527721
aF4405.318195677683
aF4385.655706730572
aF4415.609196570457
aF4387.338001367365
aF4422.4340062578285
aF4399.123220664893
aF4443.7962865650725
aF4411.204948784457
aF4444.829178157495
aF4419.953775231636
aF4458.036814253362
aF4440.031184218304
aF4469.756343300828
aF4441.453124074487
aF4476.680212218263
aF4453.519823647953
aF4497.495835868223
aF4462.515638816719
aF4498.369304877542
aF4469.372331543336
aF4510.311485475799
aF4489.491611165702
aF4522.04341539357
aF4493.06771436386
aF4529.729814826793
aF4506.044977972764
aF4553.1778198847
aF4516.122406042489
aF4556.2168964737275
aF4523.00979475058
aF4567.424085087128
aF4544.554453169455
aF4577.023947629713
aF4546.364029029509
aF4585.636734618424
aF4559.52739672909
aF4608.977646506318
aF4572.297627471479
aF4611.474045783911
aF4580.9186484845995
aF4624.7018534427025
aF4603.937898342712
aF4637.520785214066
aF4606.624813542621
aF4648.402905784787
aF4621.826967650682
aF4670.014668760998
aF4632.777216651529
aF4672.063767186195
aF4641.092013437216
aF4685.155177748428
aF4662.959196030229
aF4697.259120179103
aF4665.407642120632
aF4705.664860745463
aF4679.748481183103
aF4729.362110952036
aF4693.581626504649
aF4733.937223901955
aF4703.041725652805
aF4748.056432220874
aF4726.650780247092
aF4761.404698333802
aF4730.111056108622
aF4771.842653498642
aF4745.592372529423
aF4796.538516290127
aF4760.46577184579
aF4805.799095091529
aF4772.991503169471
aF4820.425307601745
aF4799.368108649621
aF4834.500362499538
aF4805.187896446923
aF4847.688061501774
aF4821.120614925564
aF4870.530699834591
aF4836.6932234265005
aF4876.977186144987
aF4849.8630593897105
aF4898.682006677534
aF4878.602186407024
aF4915.712310762678
aF4885.551444348104
aF4929.432685910704
aF4900.8837546395425
aF4954.151805702704
aF4917.826543009697
aF4959.597088230135
aF4931.720906599679
aF4978.360790705836
aF4956.202803717032
aF4996.219678323552
aF4963.155999050415
aF5009.5221806508225
aF4980.850103897884
aF5033.4328479896085
aF4996.846984363366
aF5039.05685411099
aF5007.3449073968295
aF5056.620750119974
aF5031.971908396251
aF5074.349221107615
aF5039.269376470857
aF5088.585901436537
aF5055.654361802754
aF5113.147143455661
aF5074.53794249102
aF5117.747015858515
aF5085.337122753437
aF5138.922232626363
aF5110.800059295749
aF5156.948628145851
aF5119.0712780497615
aF5169.982036604829
aF5134.540034398844
aF5193.371715201722
aF5147.800050323673
aF5197.222508769261
aF5160.099813770035
aF5209.9793057810075
aF5182.012417811563
aF5227.039545064536
aF5186.44706793862
aF5237.779060272646
aF5200.620980396642
aF5260.669270641695
aF5216.3730548730555
aF5265.901554165264
aF5227.500059485677
aF5283.3251793221725
aF5250.578228822733
aF5298.445138754481
aF5256.033820460246
aF5312.4622533652955
aF5271.498789279748
aF5334.160173797099
aF5288.268181526707
aF5343.206815430016
aF5300.3771267017055
aF5362.185801070365
aF5321.821626068278
aF5376.417645243884
aF5330.009343009476
aF5386.9466864226615
aF5343.733213377038
aF5413.09467365946
aF5357.099233157675
aF5417.182386523078
aF5370.53627557599
aF5433.158745159717
aF5393.448952316438
aF5450.121875589457
aF5399.174607507593
aF5462.861141519328
aF5417.315733307631
aF5490.937470480068
aF5430.833496360589
aF5501.443516144154
aF5446.979076757621
aF5522.268969334
aF5476.776811461318
aF5539.689264991662
aF5482.547479680773
aF5553.32616066711
aF5499.41975748111
aF5576.766395903717
aF5514.690076984948
aF5583.224362711569
aF5526.135899134002
aF5603.272960717449
aF5552.158928989223
aF5616.941519810138
aF5559.497387869228
aF5631.950143699269
aF5576.622714792279
aF5658.10197979909
aF5593.737909627659
aF5666.011716689976
aF5603.682769055043
aF5683.046028057729
aF5628.77435480388
aF5700.035744093476
aF5631.287704197006
aF5712.708375348342
aF5648.422604592436
aF5737.990787507028
aF5662.083196532326
aF5742.416331332775
aF5672.711445091501
aF5757.045998653161
aF5698.127419139667
aF5772.479634506607
aF5698.119606875528
aF5781.740592862571
aF5710.667335742005
aF5804.042503024355
aF5719.945531983657
aF5805.43356360226
aF5726.5079213317085
aF5815.769918041034
aF5751.340440282282
aF5824.840518207731
aF5748.952370291729
aF5836.233409302048
aF5759.185701222891
aF5858.882675703659
aF5770.810819995007
aF5862.295088331477
aF5774.803721130358
aF5877.939956431592
aF5798.178524307316
a.