(lp0
F1.4444444444444444
aF4.280302068790455
aF3.901545430322409
aF5.503106968486462
aF7.69626998223801
aF10.882379050155349
aF10.898685262503331
aF15.466201812044769
aF15.484243231247227
aF15.50222024866785
aF21.845470692717583
aF21.874922270587188
aF21.915171433647185
aF21.92695381882771
aF30.82349023090586
aF30.854351687388988
aF30.92356914326342
aF30.927797031902607
aF30.953374777975135
aF43.52998667258996
aF43.56416518650089
aF43.6519324744558
aF43.70746334962239
aF43.71958259325044
aF43.753442914260326
aF43.814971123944915
aF43.87575542125844
aF61.50382120323469
aF61.60906263882719
aF61.670812972012435
aF61.75222222222222
aF61.76793960923624
aF61.87755555555556
aF61.8958703374778
aF62.00066666666667
aF62.005997334517986
aF62.087777777777774
aF62.15866666666667
aF86.7807641048423
aF86.99511111111111
aF87.07840959573522
aF87.16933333333333
aF87.31008440693026
aF87.44888888888889
aF87.41914704575744
aF87.60444444444444
aF87.63042125844295
aF87.72155555555555
aF87.77498889382497
aF87.85888888888888
aF87.95355555555555
aF88.03422222222223
aF88.12777777777778
aF122.50444444444445
aF122.79244444444446
aF122.87955555555557
aF122.98151111111112
aF123.06911111111111
aF123.27565526432696
aF123.33888888888889
aF123.4498000888494
aF123.61355555555555
aF123.70501999111507
aF123.9451111111111
aF123.94911111111111
aF124.16259440248778
aF124.35324444444444
aF124.34717903154154
aF124.458
aF124.59729009329186
aF124.68422222222222
aF124.8037682189833
aF125.03506666666668
aF125.0977777777778
aF172.44666666666666
aF172.80266666666665
aF173.16622222222225
aF173.20422222222223
aF173.44577777777778
aF173.702
aF173.87111111111113
aF174.18288888888887
aF174.29488888888886
aF174.47577777777775
aF174.71666666666664
aF174.72355555555555
aF174.91955555555555
aF175.112
aF175.26866666666666
aF175.44355555555555
aF175.61977777777778
aF175.80755555555558
aF175.89444444444447
aF176.10822222222225
aF176.31355555555555
aF176.41977777777777
aF176.51822222222222
aF176.61355555555554
aF176.77187916481563
aF176.98466666666667
aF177.14593513993782
aF177.4382222222222
aF177.59088888888888
aF177.63244444444445
aF242.39377777777779
aF242.85911111111113
aF243.35377777777776
aF243.7431111111111
aF244.06400000000002
aF244.11377777777778
aF244.76711111111112
aF245.06755555555557
aF245.15911111111112
aF245.664
aF245.81488888888887
aF245.89999999999998
aF246.2179111111111
aF246.454
aF246.68644444444445
aF246.97622222222222
aF247.0651111111111
aF247.40244444444443
aF247.5742222222222
aF247.7811111111111
aF248.30755555555555
aF248.44422222222224
aF248.4768888888889
aF248.8728888888889
aF249.16533333333336
aF249.30844444444446
aF249.42600000000002
aF249.61644444444445
aF249.86155555555555
aF250.09377777777777
aF250.35288888888888
aF250.58866666666665
aF250.70773333333332
aF250.97644444444444
aF251.04577777777777
aF251.27466666666666
aF251.71577777777776
aF251.82808888888889
aF252.16466666666665
aF252.4133333333333
aF252.4584444444444
aF252.62777777777777
aF339.24777777777774
aF340.18955555555556
aF341.00155555555557
aF341.92377777777773
aF342.1884444444445
aF342.6332
aF343.3961777777778
aF343.78066666666666
aF343.8955555555556
aF344.2711111111111
aF344.81466666666665
aF345.16177777777773
aF345.6013333333333
aF345.91866666666664
aF346.21
aF346.84200000000004
aF347.10911111111113
aF347.4424444444445
aF347.87222222222226
aF348.0111111111111
aF348.5137333333334
aF348.90666666666664
aF349.07177777777775
aF349.3231111111111
aF349.80844444444443
aF350.10977777777777
aF350.3911111111111
aF350.62888888888887
aF350.97866666666664
aF351.3988888888889
aF351.69826666666665
aF351.7873333333333
aF352.4868888888889
aF352.9242222222223
aF352.9715555555556
aF353.14200000000005
aF353.73822222222225
aF353.83799999999997
aF354.23555555555555
aF354.8022222222222
aF354.8466666666667
aF355.06266666666664
aF355.3942222222222
aF355.76
aF356.124
aF356.44933333333336
aF356.8595555555556
aF357.1404444444444
aF357.38533333333334
aF357.576
aF357.96684444444446
aF358.3091111111111
aF358.6297777777778
aF359.0153333333333
aF359.2173333333333
aF359.44599999999997
aF359.80688888888886
aF360.22288888888886
aF360.40599999999995
aF360.70955555555554
aF473.63373333333334
aF475.4291111111111
aF476.6628888888889
aF477.32933333333335
aF478.322
aF479.07155555555556
aF479.8353333333333
aF480.8137777777778
aF480.82266666666663
aF481.328
aF482.5578666666667
aF483.052
aF483.3
aF484.0251111111111
aF484.72044444444447
aF485.1504888888889
aF485.9133333333333
aF486.16844444444445
aF486.7942222222222
aF487.346
aF487.63
aF488.28377777777774
aF488.8126666666667
aF489.30600000000004
aF489.7304444444445
aF490.51155555555556
aF491.03
aF491.44444444444446
aF491.7357777777778
aF492.49244444444446
aF492.91462222222225
aF493.2457777777778
aF493.4235555555556
aF494.30133333333333
aF494.89111111111106
aF495.068
aF495.5728888888888
aF496.33444444444444
aF496.5324444444444
aF496.70866666666666
aF497.4973333333333
aF498.122
aF498.4351111111111
aF498.96066666666667
aF499.5455555555556
aF499.61400000000003
aF500.4166666666667
aF501.03444444444443
aF501.0931111111111
aF501.5637777777778
aF501.8268
aF502.86355555555554
aF503.01577777777777
aF503.3088888888889
aF503.7888888888889
aF504.18
aF504.4851111111111
aF505.2502222222222
aF505.658
aF506.07422222222226
aF506.378
aF506.51866666666666
aF507.3157777777777
aF507.5722222222222
aF508.07311111111113
aF508.77488888888894
aF509.28977777777783
aF509.41800000000006
aF509.6782222222223
aF510.43444444444447
aF510.6797777777778
aF510.81533333333334
aF511.9722222222222
aF512.2037777777778
aF512.27
aF512.81
aF513.3486666666668
aF513.6408888888889
aF514.1255555555556
aF514.4955555555556
aF515.2046666666666
aF515.5942222222222
aF515.7304444444444
aF516.3373333333333
aF516.7084444444445
aF657.5826666666667
aF660.4801777777777
aF662.2351111111111
aF663.2551111111111
aF664.8177777777778
aF666.0408888888888
aF667.42
aF668.3537777777779
aF669.4288888888889
aF670.4955555555555
aF671.7311111111111
aF672.7819999999999
aF673.8537777777779
aF673.8717777777778
aF674.9817777777778
aF676.406
aF676.5306666666665
aF677.5695555555556
aF679.2691111111112
aF679.3273333333334
aF680.058
aF680.8811111111111
aF682.058888888889
aF682.3380000000001
aF683.0966666666666
aF684.1457777777778
aF684.8211111111111
aF685.2639999999999
aF686.2139999999999
aF686.9364444444445
aF687.7575555555557
aF688.5742222222223
aF688.97
aF690.247111111111
aF690.372
aF690.9944
aF691.925111111111
aF692.6795555555555
aF693.1659999999999
aF693.992
aF694.7393333333333
aF695.278
aF696.1122222222223
aF696.4428888888889
aF697.3437777777777
aF697.7213333333334
aF698.8975555555555
aF699.0186666666666
aF700.2973333333333
aF700.492
aF701.3099555555556
aF702.2533333333333
aF702.8537777777779
aF703.2106666666666
aF704.3271111111111
aF704.8943555555555
aF705.3648888888889
aF705.9784444444444
aF706.5671111111111
aF707.5815555555556
aF707.7991111111112
aF708.178
aF708.7806666666667
aF709.865111111111
aF710.3206666666665
aF711.2568444444444
aF711.7606666666666
aF712.4219999999999
aF713.3144444444445
aF713.4764444444445
aF714.6264444444445
aF714.9093333333334
aF715.214
aF715.8831111111111
aF717.166
aF717.2760000000001
aF717.5211111111112
aF718.824888888889
aF719.0346666666667
aF719.2604444444445
aF720.4275555555555
aF721.1293333333333
aF721.432
aF722.0244444444444
aF722.8484444444443
aF722.9886666666666
aF723.7057777777777
aF724.5406666666667
aF725.6393333333333
aF726.3024444444444
aF726.5104444444444
aF727.2931111111112
aF727.6737777777779
aF728.1073333333334
aF728.952888888889
aF729.7740444444444
aF730.2648888888889
aF730.8724444444445
aF731.4164444444444
aF731.924
aF732.4533333333334
aF732.6322222222223
aF733.96
aF734.5606666666666
aF734.7368888888889
aF735.8766666666667
aF736.2697777777778
aF736.3148888888888
aF737.0202222222222
aF737.8544444444444
aF738.1539111111111
aF739.6322222222223
aF740.1828888888889
aF740.5562222222222
aF741.2246666666667
aF741.8157777777778
aF742.5508888888887
aF743.1955555555555
aF743.4886666666666
aF744.1715555555556
aF906.0295555555556
aF909.8317777777778
aF913.2104444444444
aF915.4044444444445
aF917.2991111111112
aF918.7699555555555
aF921.5802222222222
aF922.7848888888889
aF924.5048888888889
aF925.9482222222223
aF927.682
aF929.2724444444443
aF930.0877777777778
aF931.8448888888889
aF933.4119999999999
aF934.482
aF936.0257777777778
aF937.1188888888888
aF938.0866666666667
aF939.0682222222223
aF941.0486666666667
aF941.7486666666666
aF942.7953333333332
aF945.045111111111
aF945.77
aF946.7806222222223
aF948.606
aF948.795111111111
aF950.3199999999999
aF951.0037777777777
aF952.9195555555556
aF953.5231111111111
aF954.3673333333334
aF955.815111111111
aF957.118
aF957.3284
aF959.1640000000001
aF960.5793333333334
aF961.51
aF961.9706666666667
aF963.478
aF964.504
aF964.8528888888889
aF966.4495555555554
aF966.8228888888888
aF968.4691555555555
aF969.5766666666667
aF969.6808888888888
aF971.4517777777778
aF972.0622222222223
aF973.1307111111112
aF974.3828888888888
aF975.4486666666667
aF976.3391111111112
aF977.2842222222222
aF977.854
aF979.300888888889
aF980.2028888888888
aF980.7184444444443
aF981.2731111111111
aF982.5935555555556
aF983.726
aF984.2217777777778
aF985.5615555555556
aF987.0062222222222
aF987.2235555555555
aF987.8497777777777
aF989.7353333333333
aF990.6524444444444
aF991.2226666666668
aF992.1257777777778
aF992.894
aF993.8086666666667
aF995.0915555555556
aF995.5148888888889
aF996.834
aF998.3562222222222
aF998.6097777777777
aF999.7199999999999
aF1000.6179999999999
aF1001.67
aF1001.9984444444444
aF1003.5124444444444
aF1003.9684444444445
aF1004.2893333333334
aF1005.6437777777778
aF1007.5715555555556
aF1007.7
aF1008.6613333333335
aF1010.0446666666667
aF1011.1122222222223
aF1011.5595555555556
aF1012.3913333333334
aF1013.4126666666666
aF1014.0768888888889
aF1015.4493333333334
aF1016.2875555555555
aF1017.078
aF1017.8413333333333
aF1018.359111111111
aF1019.4228888888889
aF1020.2435555555555
aF1021.3826666666666
aF1021.7937777777777
aF1022.6695555555557
aF1023.8301777777779
aF1024.2233333333334
aF1026.122
aF1027.3422222222223
aF1027.5548888888889
aF1027.7306666666668
aF1029.7506666666668
aF1029.899777777778
aF1030.782888888889
aF1032.6273333333334
aF1032.8431111111113
aF1033.39
aF1033.8815555555557
aF1035.199111111111
aF1036.2873333333332
aF1036.861111111111
aF1037.6033333333335
aF1038.7368888888889
aF1039.1564444444443
aF1040.1151111111112
aF1041.0322222222221
aF1042.2335555555555
aF1043.1493333333333
aF1043.6264444444446
aF1044.6642222222222
aF1045.4724444444446
aF1046.5006666666668
aF1047.6415555555557
aF1048.5231111111111
aF1049.8493333333333
aF1050.2250666666666
aF1051.4504444444447
aF1052.194888888889
aF1052.5491111111112
aF1053.6155555555556
aF1054.6795555555555
aF1054.8142222222223
aF1055.8726666666666
aF1057.6355555555556
aF1058.03
aF1058.1564444444443
aF1059.9524444444444
aF1060.297111111111
aF1060.4071111111111
aF1061.850888888889
aF1063.2484444444444
aF1064.0713333333333
aF1064.802222222222
aF1065.478
aF1066.4877777777779
aF1067.0312444444446
aF1067.302888888889
aF1068.7631111111111
aF1069.3666666666668
aF1069.995111111111
aF1072.1275555555555
aF1072.9031111111112
aF1073.3193333333334
aF1073.816888888889
aF1075.2882222222224
aF1075.6891111111113
aF1076.226
aF1077.32
aF1078.101777777778
aF1079.1291111111111
aF1233.5252444444445
aF1239.7255555555555
aF1244.6135555555556
aF1247.744
aF1251.1208888888889
aF1253.4686666666666
aF1256.4297777777779
aF1259.9897777777778
aF1262.2348888888887
aF1263.2795555555556
aF1267.7177777777779
aF1269.6813333333332
aF1270.9186666666665
aF1273.965777777778
aF1276.576222222222
aF1277.8895555555555
aF1279.892888888889
aF1281.15
aF1284.2855555555554
aF1285.8888888888887
aF1287.1104444444445
aF1290.9655555555555
aF1291.658
aF1293.3353333333334
aF1295.5151111111109
aF1298.112
aF1299.4777777777776
aF1300.0906666666665
aF1302.3544444444444
aF1304.4153333333334
aF1305.2451111111113
aF1307.2955555555554
aF1309.1424444444444
aF1310.8584444444443
aF1312.507111111111
aF1314.8715555555555
aF1314.9295555555555
aF1317.924
aF1318.9475555555555
aF1319.994
aF1322.0
aF1323.914888888889
aF1325.5286666666666
aF1326.0286666666666
aF1327.926
aF1329.9133333333334
aF1332.3833333333332
aF1332.7935555555555
aF1334.7142222222224
aF1336.6495555555555
aF1337.0963111111112
aF1338.8666666666666
aF1340.4084444444443
aF1342.1604444444442
aF1342.3613333333333
aF1344.7913333333333
aF1346.3793333333333
aF1346.7060000000001
aF1348.918222222222
aF1349.581777777778
aF1352.6282222222221
aF1353.7446666666665
aF1354.9542222222221
aF1356.55
aF1357.7124444444444
aF1360.0125333333333
aF1360.7633333333333
aF1360.998222222222
aF1364.4595555555554
aF1364.8553333333332
aF1365.1968888888887
aF1368.5515555555555
aF1369.1746666666668
aF1369.4226666666668
aF1371.3973333333333
aF1373.2641333333331
aF1374.3573333333334
aF1376.368
aF1377.209111111111
aF1378.538
aF1380.5833333333333
aF1381.2975555555554
aF1381.8902222222223
aF1383.7615555555556
aF1385.6904444444444
aF1386.8493333333333
aF1387.9166666666665
aF1389.332888888889
aF1390.944
aF1391.3695555555555
aF1392.6311111111113
aF1395.1266666666666
aF1395.6986666666667
aF1396.476222222222
aF1399.8546666666666
aF1400.413377777778
aF1400.9533333333334
aF1401.9668888888887
aF1404.6295555555555
aF1405.0275555555556
aF1406.1762222222221
aF1407.7733333333333
aF1409.800888888889
aF1410.4648888888887
aF1411.2864444444444
aF1413.1175555555556
aF1414.5457777777779
aF1415.9875555555554
aF1416.2882222222224
aF1417.8315555555555
aF1419.1931111111112
aF1421.583111111111
aF1423.2653333333333
aF1423.9133333333334
aF1424.8468888888888
aF1426.670088888889
aF1428.2211111111112
aF1429.0946666666666
aF1430.164888888889
aF1430.6484444444445
aF1433.175511111111
aF1434.5055555555555
aF1434.7273333333333
aF1436.1524444444444
aF1437.835111111111
aF1438.8313333333335
aF1439.3613333333333
aF1441.8822222222223
aF1442.4104444444445
aF1442.9631111111112
aF1445.1768888888887
aF1447.1422222222222
aF1447.7491111111112
aF1449.3397777777777
aF1450.494888888889
aF1452.0310666666667
aF1453.384888888889
aF1453.792888888889
aF1455.1662222222224
aF1456.1764444444445
aF1457.3637777777778
aF1458.639777777778
aF1460.4162222222221
aF1461.4597777777778
aF1462.5
aF1463.545111111111
aF1464.9775555555555
aF1466.6528888888888
aF1467.1335555555556
aF1469.1815555555556
aF1469.9124444444446
aF1470.5695555555558
aF1472.565111111111
aF1474.682
aF1475.5473333333334
aF1475.6984444444445
aF1477.9920000000002
aF1478.8062222222222
aF1478.909777777778
aF1481.9113333333335
aF1482.927777777778
aF1483.3708888888889
aF1485.044888888889
aF1486.1328888888888
aF1487.0502222222221
aF1489.4931111111111
aF1489.9304444444444
aF1491.5015555555556
aF1493.3324444444443
aF1493.8324444444443
aF1495.2173333333335
aF1496.6322222222223
aF1497.9464444444443
aF1498.4602222222225
aF1500.182888888889
aF1501.1324444444444
aF1502.340222222222
aF1504.2331111111112
aF1505.3668888888888
aF1507.1133333333332
aF1507.508711111111
aF1509.7091111111113
aF1510.4833333333331
aF1510.9411111111112
aF1512.9084444444445
aF1513.8075555555556
aF1514.4613333333334
aF1516.42
aF1518.1575555555555
aF1518.5426666666667
aF1519.719111111111
aF1521.3002222222221
aF1522.1262222222222
aF1522.3886666666667
aF1524.0157777777777
aF1526.2455111111112
aF1526.4993333333332
aF1528.2153333333335
aF1529.566888888889
aF1530.3575555555556
aF1531.6035555555554
aF1531.831111111111
aF1533.8328888888889
aF1535.8491111111111
aF1536.7764444444445
aF1538.936888888889
aF1539.8824444444444
aF1539.969111111111
aF1541.3224444444445
aF1543.0366666666669
aF1543.516
aF1545.5006666666668
aF1547.1455555555556
aF1548.1484444444445
aF1548.689111111111
aF1549.9104444444445
aF1551.3413333333333
aF1551.9055555555556
aF1552.5733333333333
aF1554.472888888889
aF1556.5168888888888
aF1556.936888888889
aF1558.373111111111
aF1559.722888888889
aF1560.1406666666667
aF1561.9204444444445
aF1562.9266666666667
aF1563.7017777777778
aF1565.0662222222222
aF1565.6175555555556
aF1567.7577777777778
aF1569.2735555555555
aF1569.9268888888887
aF1571.2019999999998
aF1573.0819999999999
aF1573.8157777777778
aF1574.1806666666666
aF1576.8364444444444
aF1577.2848888888889
aF1578.054222222222
aF1648.379777777778
aF1656.4500000000003
aF1663.7297777777778
aF1668.9444444444443
aF1674.1002222222223
aF1678.8751111111112
aF1683.8595555555553
aF1688.9286666666667
aF1692.5884444444443
aF1694.9044444444444
aF1700.7504444444444
aF1704.5533333333333
aF1707.4326666666666
aF1710.1571111111107
aF1714.4017777777776
aF1717.0662222222225
aF1719.918
aF1722.6913333333332
aF1727.005111111111
aF1730.0364444444444
aF1731.539111111111
aF1736.815111111111
aF1739.3046666666667
aF1741.104222222222
aF1743.8877777777777
aF1747.7653333333333
aF1749.8495555555555
aF1751.4382222222223
a.