(lp0
F0.0
aF1.0
aF1.2679444527879364
aF1.607683135355701
aF2.0384529133149782
aF2.584645063707135
aF3.2771863709531845
aF4.155290279802323
aF5.268677259998987
aF6.68039010534566
aF8.47036357653245
aF10.739950509961313
aF13.617660672322417
aF17.26643730941965
aF21.892883405889307
aF27.758960070030437
aF35.19681943595692
aF44.6276119596002
aF56.58533302534765
aF71.74705911864758
aF90.9712856133374
aF115.34653695641818
aF146.25300168218925
aF185.4406821865166
aF235.12848429960445
aF298.1298573601189
aF378.0120988502215
aF479.29834382386383
aF607.7236762819132
aF770.5598641695435
aF977.0271053147993
aF1238.8160984073547
aF1570.75
a.