(lp0
F0.0
aF1.0
aF1.246553302718927
aF1.5538951365194649
aF1.937013114507218
aF2.414590095298848
aF3.0099152580071875
aF3.752019805772951
aF4.677092680753102
aF5.830245328315299
aF7.267711569673032
aF9.059589860384474
aF11.293261661741177
aF14.0776526229125
aF17.548544371621343
aF21.875195944354225
aF27.268597752058437
aF33.99176058834237
aF42.37254142662924
aF52.81963145995924
aF65.84248604480877
aF82.07616843838117
aF102.31231884137908
aF127.537758960553
aF158.98261465364777
aF198.18030337139524
aF247.04231170145164
aF307.95140956276316
aF392.0528091961299
aF514.3714875036833
aF676.0003572311841
aF892.2610872675261
aF1230.5665890570435
aF1729.0026184697922
a.