(lp0
(lp1
I22487
aI0
aI0
aI0
aI0
aI0
aI0
aI0
aI0
aI0
aI0
aI0
aI0
aI0
aI0
aI0
aI0
aI0
aI0
aI0
aI0
aI0
aI0
aI0
aI0
aI0
aI0
aI0
aI0
aI0
aI0
aI0
aI0
aI0
aI0
aa(lp2
I22487
aI0
aI0
aI0
aI0
aI0
aI0
aI0
aI0
aI0
aI0
aI0
aI0
aI0
aI0
aI0
aI0
aI0
aI0
aI0
aI0
aI0
aI0
aI0
aI0
aI0
aI0
aI0
aI0
aI0
aI0
aI0
aI0
aI0
aI0
aa(lp3
I22487
aI0
aI0
aI0
aI0
aI0
aI0
aI0
aI0
aI0
aI0
aI0
aI0
aI0
aI0
aI0
aI0
aI0
aI0
aI0
aI0
aI0
aI0
aI0
aI0
aI0
aI0
aI0
aI0
aI0
aI0
aI0
aI0
aI0
aI0
aa(lp4
I21668
aI819
aI0
aI0
aI0
aI0
aI0
aI0
aI0
aI0
aI0
aI0
aI0
aI0
aI0
aI0
aI0
aI0
aI0
aI0
aI0
aI0
aI0
aI0
aI0
aI0
aI0
aI0
aI0
aI0
aI0
aI0
aI0
aI0
aI0
aa(lp5
I813
aI21674
aI0
aI0
aI0
aI0
aI0
aI0
aI0
aI0
aI0
aI0
aI0
aI0
aI0
aI0
aI0
aI0
aI0
aI0
aI0
aI0
aI0
aI0
aI0
aI0
aI0
aI0
aI0
aI0
aI0
aI0
aI0
aI0
aI0
aa(lp6
I18700
aI3787
aI0
aI0
aI0
aI0
aI0
aI0
aI0
aI0
aI0
aI0
aI0
aI0
aI0
aI0
aI0
aI0
aI0
aI0
aI0
aI0
aI0
aI0
aI0
aI0
aI0
aI0
aI0
aI0
aI0
aI0
aI0
aI0
aI0
aa(lp7
I18319
aI4168
aI0
aI0
aI0
aI0
aI0
aI0
aI0
aI0
aI0
aI0
aI0
aI0
aI0
aI0
aI0
aI0
aI0
aI0
aI0
aI0
aI0
aI0
aI0
aI0
aI0
aI0
aI0
aI0
aI0
aI0
aI0
aI0
aI0
aa(lp8
I5
aI22482
aI0
aI0
aI0
aI0
aI0
aI0
aI0
aI0
aI0
aI0
aI0
aI0
aI0
aI0
aI0
aI0
aI0
aI0
aI0
aI0
aI0
aI0
aI0
aI0
aI0
aI0
aI0
aI0
aI0
aI0
aI0
aI0
aI0
aa(lp9
I3
aI17987
aI4499
aI4499
aI4499
aI4499
aI4499
aI4499
aI4499
aI4499
aI0
aI0
aI0
aI0
aI0
aI0
aI0
aI0
aI0
aI0
aI0
aI0
aI0
aI0
aI0
aI0
aI0
aI0
aI0
aI0
aI0
aI0
aI0
aI0
aI0
aa(lp10
I3
aI17981
aI4
aI4
aI4
aI4
aI4
aI4
aI4
aI9
aI4494
aI4494
aI0
aI0
aI0
aI0
aI0
aI0
aI0
aI0
aI0
aI0
aI0
aI0
aI0
aI0
aI0
aI0
aI0
aI0
aI0
aI0
aI0
aI0
aI0
aa(lp11
I3
aI17977
aI4
aI4
aI4
aI4
aI4
aI4
aI4
aI9
aI4
aI9
aI4489
aI0
aI0
aI0
aI0
aI0
aI0
aI0
aI0
aI0
aI0
aI0
aI0
aI0
aI0
aI0
aI0
aI0
aI0
aI0
aI0
aI0
aI0
aa(lp12
I3
aI17973
aI4
aI4
aI4
aI4
aI4
aI4
aI4
aI9
aI4
aI9
aI9
aI4484
aI0
aI0
aI0
aI0
aI0
aI0
aI0
aI0
aI0
aI0
aI0
aI0
aI0
aI0
aI0
aI0
aI0
aI0
aI0
aI0
aI0
aa(lp13
I3
aI17969
aI4
aI4
aI4
aI4
aI4
aI4
aI4
aI9
aI4
aI9
aI9
aI9
aI4479
aI0
aI0
aI0
aI0
aI0
aI0
aI0
aI0
aI0
aI0
aI0
aI0
aI0
aI0
aI0
aI0
aI0
aI0
aI0
aI0
aa(lp14
I3
aI17965
aI4
aI4
aI4
aI4
aI4
aI4
aI4
aI9
aI4
aI9
aI9
aI9
aI4483
aI0
aI0
aI0
aI0
aI0
aI0
aI0
aI0
aI0
aI0
aI0
aI0
aI0
aI0
aI0
aI0
aI0
aI0
aI0
aI0
aa(lp15
I3
aI17961
aI4
aI4
aI4
aI4
aI4
aI4
aI4
aI9
aI4
aI9
aI9
aI9
aI18
aI4469
aI0
aI0
aI0
aI0
aI0
aI0
aI0
aI0
aI0
aI0
aI0
aI0
aI0
aI0
aI0
aI0
aI0
aI0
aI0
aa(lp16
I3
aI17957
aI4
aI4
aI4
aI4
aI4
aI4
aI4
aI9
aI4
aI9
aI9
aI9
aI18
aI4473
aI0
aI0
aI0
aI0
aI0
aI0
aI0
aI0
aI0
aI0
aI0
aI0
aI0
aI0
aI0
aI0
aI0
aI0
aI0
aa(lp17
I3
aI17953
aI4
aI4
aI4
aI4
aI4
aI4
aI4
aI9
aI4
aI9
aI9
aI9
aI18
aI4477
aI0
aI0
aI0
aI0
aI0
aI0
aI0
aI0
aI0
aI0
aI0
aI0
aI0
aI0
aI0
aI0
aI0
aI0
aI0
aa(lp18
I3
aI17949
aI4
aI4
aI4
aI4
aI4
aI4
aI4
aI9
aI4
aI9
aI9
aI9
aI18
aI27
aI4454
aI0
aI0
aI0
aI0
aI0
aI0
aI0
aI0
aI0
aI0
aI0
aI0
aI0
aI0
aI0
aI0
aI0
aI0
aa(lp19
I3
aI17945
aI4
aI4
aI4
aI4
aI4
aI4
aI4
aI9
aI4
aI9
aI9
aI9
aI18
aI27
aI4458
aI0
aI0
aI0
aI0
aI0
aI0
aI0
aI0
aI0
aI0
aI0
aI0
aI0
aI0
aI0
aI0
aI0
aI0
aa(lp20
I3
aI17941
aI4
aI4
aI4
aI4
aI4
aI4
aI4
aI9
aI4
aI9
aI9
aI9
aI18
aI27
aI4462
aI0
aI0
aI0
aI0
aI0
aI0
aI0
aI0
aI0
aI0
aI0
aI0
aI0
aI0
aI0
aI0
aI0
aI0
aa(lp21
I3
aI17937
aI4
aI4
aI4
aI4
aI4
aI4
aI4
aI9
aI4
aI9
aI9
aI9
aI18
aI27
aI27
aI4439
aI0
aI0
aI0
aI0
aI0
aI0
aI0
aI0
aI0
aI0
aI0
aI0
aI0
aI0
aI0
aI0
aI0
aa(lp22
I3
aI17932
aI5
aI5
aI5
aI5
aI5
aI5
aI5
aI10
aI4
aI9
aI9
aI9
aI18
aI27
aI27
aI4443
aI0
aI0
aI0
aI0
aI0
aI0
aI0
aI0
aI0
aI0
aI0
aI0
aI0
aI0
aI0
aI0
aI0
aa(lp23
I3
aI17927
aI5
aI5
aI5
aI5
aI5
aI5
aI5
aI10
aI5
aI10
aI9
aI9
aI18
aI27
aI27
aI4447
aI0
aI0
aI0
aI0
aI0
aI0
aI0
aI0
aI0
aI0
aI0
aI0
aI0
aI0
aI0
aI0
aI0
aa(lp24
I3
aI17922
aI5
aI5
aI5
aI5
aI5
aI5
aI5
aI10
aI5
aI10
aI10
aI9
aI18
aI27
aI27
aI4451
aI0
aI0
aI0
aI0
aI0
aI0
aI0
aI0
aI0
aI0
aI0
aI0
aI0
aI0
aI0
aI0
aI0
aa(lp25
I3
aI17917
aI5
aI5
aI5
aI5
aI5
aI5
aI5
aI10
aI5
aI10
aI10
aI10
aI18
aI27
aI27
aI4455
aI0
aI0
aI0
aI0
aI0
aI0
aI0
aI0
aI0
aI0
aI0
aI0
aI0
aI0
aI0
aI0
aI0
aa(lp26
I3
aI17912
aI5
aI5
aI5
aI5
aI5
aI5
aI5
aI10
aI5
aI10
aI10
aI10
aI19
aI27
aI27
aI4459
aI0
aI0
aI0
aI0
aI0
aI0
aI0
aI0
aI0
aI0
aI0
aI0
aI0
aI0
aI0
aI0
aI0
aa(lp27
I3
aI17907
aI5
aI5
aI5
aI5
aI5
aI5
aI5
aI10
aI5
aI10
aI10
aI10
aI20
aI27
aI27
aI54
aI4409
aI0
aI0
aI0
aI0
aI0
aI0
aI0
aI0
aI0
aI0
aI0
aI0
aI0
aI0
aI0
aI0
aa(lp28
I3
aI17902
aI5
aI5
aI5
aI5
aI5
aI5
aI5
aI10
aI5
aI10
aI10
aI10
aI20
aI28
aI27
aI54
aI4413
aI0
aI0
aI0
aI0
aI0
aI0
aI0
aI0
aI0
aI0
aI0
aI0
aI0
aI0
aI0
aI0
aa(lp29
I3
aI17897
aI5
aI5
aI5
aI5
aI5
aI5
aI5
aI10
aI5
aI10
aI10
aI10
aI20
aI29
aI27
aI54
aI4417
aI0
aI0
aI0
aI0
aI0
aI0
aI0
aI0
aI0
aI0
aI0
aI0
aI0
aI0
aI0
aI0
aa(lp30
I3
aI17892
aI5
aI5
aI5
aI5
aI5
aI5
aI5
aI10
aI5
aI10
aI10
aI10
aI20
aI30
aI27
aI54
aI4421
aI0
aI0
aI0
aI0
aI0
aI0
aI0
aI0
aI0
aI0
aI0
aI0
aI0
aI0
aI0
aI0
aa(lp31
I3
aI17887
aI5
aI5
aI5
aI5
aI5
aI5
aI5
aI10
aI5
aI10
aI10
aI10
aI20
aI30
aI28
aI54
aI4425
aI0
aI0
aI0
aI0
aI0
aI0
aI0
aI0
aI0
aI0
aI0
aI0
aI0
aI0
aI0
aI0
aa(lp32
I3
aI17882
aI5
aI5
aI5
aI5
aI5
aI5
aI5
aI10
aI5
aI10
aI10
aI10
aI20
aI30
aI29
aI54
aI4429
aI0
aI0
aI0
aI0
aI0
aI0
aI0
aI0
aI0
aI0
aI0
aI0
aI0
aI0
aI0
aI0
aa(lp33
I3
aI17877
aI5
aI5
aI5
aI5
aI5
aI5
aI5
aI10
aI5
aI10
aI10
aI10
aI20
aI30
aI30
aI54
aI4433
aI0
aI0
aI0
aI0
aI0
aI0
aI0
aI0
aI0
aI0
aI0
aI0
aI0
aI0
aI0
aI0
aa(lp34
I3
aI17872
aI5
aI5
aI5
aI5
aI5
aI5
aI5
aI10
aI5
aI10
aI10
aI10
aI20
aI30
aI30
aI55
aI63
aI4374
aI0
aI0
aI0
aI0
aI0
aI0
aI0
aI0
aI0
aI0
aI0
aI0
aI0
aI0
aI0
aa(lp35
I3
aI17867
aI5
aI5
aI5
aI5
aI5
aI5
aI5
aI10
aI5
aI10
aI10
aI10
aI20
aI30
aI30
aI56
aI63
aI4378
aI0
aI0
aI0
aI0
aI0
aI0
aI0
aI0
aI0
aI0
aI0
aI0
aI0
aI0
aI0
aa(lp36
I3
aI17862
aI5
aI5
aI5
aI5
aI5
aI5
aI5
aI10
aI5
aI10
aI10
aI10
aI20
aI30
aI30
aI57
aI63
aI4382
aI0
aI0
aI0
aI0
aI0
aI0
aI0
aI0
aI0
aI0
aI0
aI0
aI0
aI0
aI0
aa(lp37
I3
aI17857
aI5
aI5
aI5
aI5
aI5
aI5
aI5
aI10
aI5
aI10
aI10
aI10
aI20
aI30
aI30
aI58
aI63
aI4386
aI0
aI0
aI0
aI0
aI0
aI0
aI0
aI0
aI0
aI0
aI0
aI0
aI0
aI0
aI0
aa(lp38
I3
aI17852
aI5
aI5
aI5
aI5
aI5
aI5
aI5
aI10
aI5
aI10
aI10
aI10
aI20
aI30
aI30
aI59
aI63
aI4390
aI0
aI0
aI0
aI0
aI0
aI0
aI0
aI0
aI0
aI0
aI0
aI0
aI0
aI0
aI0
aa(lp39
I3
aI17847
aI5
aI5
aI5
aI5
aI5
aI5
aI5
aI10
aI5
aI10
aI10
aI10
aI20
aI30
aI30
aI60
aI63
aI4394
aI0
aI0
aI0
aI0
aI0
aI0
aI0
aI0
aI0
aI0
aI0
aI0
aI0
aI0
aI0
aa(lp40
I3
aI17842
aI5
aI5
aI5
aI5
aI5
aI5
aI5
aI10
aI5
aI10
aI10
aI10
aI20
aI30
aI30
aI60
aI64
aI4398
aI0
aI0
aI0
aI0
aI0
aI0
aI0
aI0
aI0
aI0
aI0
aI0
aI0
aI0
aI0
aa(lp41
I3
aI17837
aI5
aI5
aI5
aI5
aI5
aI5
aI5
aI10
aI5
aI10
aI10
aI10
aI20
aI30
aI30
aI60
aI65
aI4402
aI0
aI0
aI0
aI0
aI0
aI0
aI0
aI0
aI0
aI0
aI0
aI0
aI0
aI0
aI0
aa(lp42
I3
aI17832
aI5
aI5
aI5
aI5
aI5
aI5
aI5
aI10
aI5
aI10
aI10
aI10
aI20
aI30
aI30
aI60
aI66
aI4406
aI0
aI0
aI0
aI0
aI0
aI0
aI0
aI0
aI0
aI0
aI0
aI0
aI0
aI0
aI0
aa(lp43
I3
aI17827
aI5
aI5
aI5
aI5
aI5
aI5
aI5
aI10
aI5
aI10
aI10
aI10
aI20
aI30
aI30
aI60
aI67
aI4410
aI0
aI0
aI0
aI0
aI0
aI0
aI0
aI0
aI0
aI0
aI0
aI0
aI0
aI0
aI0
aa(lp44
I3
aI17822
aI5
aI5
aI5
aI5
aI5
aI5
aI5
aI10
aI5
aI10
aI10
aI10
aI20
aI30
aI30
aI60
aI68
aI4414
aI0
aI0
aI0
aI0
aI0
aI0
aI0
aI0
aI0
aI0
aI0
aI0
aI0
aI0
aI0
aa(lp45
I3
aI17817
aI5
aI5
aI5
aI5
aI5
aI5
aI5
aI10
aI5
aI10
aI10
aI10
aI20
aI30
aI30
aI60
aI69
aI99
aI4319
aI0
aI0
aI0
aI0
aI0
aI0
aI0
aI0
aI0
aI0
aI0
aI0
aI0
aI0
aa(lp46
I3
aI17812
aI5
aI5
aI5
aI5
aI5
aI5
aI5
aI10
aI5
aI10
aI10
aI10
aI20
aI30
aI30
aI60
aI70
aI99
aI4323
aI0
aI0
aI0
aI0
aI0
aI0
aI0
aI0
aI0
aI0
aI0
aI0
aI0
aI0
aa(lp47
I3
aI17807
aI5
aI5
aI5
aI5
aI5
aI5
aI5
aI10
aI5
aI10
aI10
aI10
aI20
aI30
aI30
aI60
aI70
aI100
aI4327
aI0
aI0
aI0
aI0
aI0
aI0
aI0
aI0
aI0
aI0
aI0
aI0
aI0
aI0
aa(lp48
I3
aI17802
aI5
aI5
aI5
aI5
aI5
aI5
aI5
aI10
aI5
aI10
aI10
aI10
aI20
aI30
aI30
aI60
aI70
aI101
aI4331
aI0
aI0
aI0
aI0
aI0
aI0
aI0
aI0
aI0
aI0
aI0
aI0
aI0
aI0
aa(lp49
I3
aI17797
aI5
aI5
aI5
aI5
aI5
aI5
aI5
aI10
aI5
aI10
aI10
aI10
aI20
aI30
aI30
aI60
aI70
aI102
aI4335
aI0
aI0
aI0
aI0
aI0
aI0
aI0
aI0
aI0
aI0
aI0
aI0
aI0
aI0
aa(lp50
I3
aI17792
aI5
aI5
aI5
aI5
aI5
aI5
aI5
aI10
aI5
aI10
aI10
aI10
aI20
aI30
aI30
aI60
aI70
aI103
aI4339
aI0
aI0
aI0
aI0
aI0
aI0
aI0
aI0
aI0
aI0
aI0
aI0
aI0
aI0
aa(lp51
I3
aI17787
aI5
aI5
aI5
aI5
aI5
aI5
aI5
aI10
aI5
aI10
aI10
aI10
aI20
aI30
aI30
aI60
aI70
aI104
aI4343
aI0
aI0
aI0
aI0
aI0
aI0
aI0
aI0
aI0
aI0
aI0
aI0
aI0
aI0
aa(lp52
I3
aI17782
aI5
aI5
aI5
aI5
aI5
aI5
aI5
aI10
aI5
aI10
aI10
aI10
aI20
aI30
aI30
aI60
aI70
aI105
aI4347
aI0
aI0
aI0
aI0
aI0
aI0
aI0
aI0
aI0
aI0
aI0
aI0
aI0
aI0
aa(lp53
I3
aI17777
aI5
aI5
aI5
aI5
aI5
aI5
aI5
aI10
aI5
aI10
aI10
aI10
aI20
aI30
aI30
aI60
aI70
aI106
aI4351
aI0
aI0
aI0
aI0
aI0
aI0
aI0
aI0
aI0
aI0
aI0
aI0
aI0
aI0
aa(lp54
I3
aI17772
aI5
aI5
aI5
aI5
aI5
aI5
aI5
aI10
aI5
aI10
aI10
aI10
aI20
aI30
aI30
aI60
aI70
aI107
aI4355
aI0
aI0
aI0
aI0
aI0
aI0
aI0
aI0
aI0
aI0
aI0
aI0
aI0
aI0
aa(lp55
I3
aI17767
aI5
aI5
aI5
aI5
aI5
aI5
aI5
aI10
aI5
aI10
aI10
aI10
aI20
aI30
aI30
aI60
aI70
aI108
aI4359
aI0
aI0
aI0
aI0
aI0
aI0
aI0
aI0
aI0
aI0
aI0
aI0
aI0
aI0
aa(lp56
I3
aI17762
aI5
aI5
aI5
aI5
aI5
aI5
aI5
aI10
aI5
aI10
aI10
aI10
aI20
aI30
aI30
aI60
aI70
aI109
aI4363
aI0
aI0
aI0
aI0
aI0
aI0
aI0
aI0
aI0
aI0
aI0
aI0
aI0
aI0
aa(lp57
I3
aI17757
aI5
aI5
aI5
aI5
aI5
aI5
aI5
aI10
aI5
aI10
aI10
aI10
aI20
aI30
aI30
aI60
aI70
aI110
aI4367
aI0
aI0
aI0
aI0
aI0
aI0
aI0
aI0
aI0
aI0
aI0
aI0
aI0
aI0
aa(lp58
I3
aI17752
aI5
aI5
aI5
aI5
aI5
aI5
aI5
aI10
aI5
aI10
aI10
aI10
aI20
aI30
aI30
aI60
aI70
aI110
aI4372
aI0
aI0
aI0
aI0
aI0
aI0
aI0
aI0
aI0
aI0
aI0
aI0
aI0
aI0
aa(lp59
I3
aI17747
aI5
aI5
aI5
aI5
aI5
aI5
aI5
aI10
aI5
aI10
aI10
aI10
aI20
aI30
aI30
aI60
aI70
aI110
aI4377
aI0
aI0
aI0
aI0
aI0
aI0
aI0
aI0
aI0
aI0
aI0
aI0
aI0
aI0
aa(lp60
I3
aI17742
aI5
aI5
aI5
aI5
aI5
aI5
aI5
aI10
aI5
aI10
aI10
aI10
aI20
aI30
aI30
aI60
aI70
aI110
aI138
aI4244
aI0
aI0
aI0
aI0
aI0
aI0
aI0
aI0
aI0
aI0
aI0
aI0
aI0
aa(lp61
I3
aI17737
aI5
aI5
aI5
aI5
aI5
aI5
aI5
aI10
aI5
aI10
aI10
aI10
aI20
aI30
aI30
aI60
aI70
aI110
aI139
aI4248
aI0
aI0
aI0
aI0
aI0
aI0
aI0
aI0
aI0
aI0
aI0
aI0
aI0
aa(lp62
I3
aI17732
aI5
aI5
aI5
aI5
aI5
aI5
aI5
aI10
aI5
aI10
aI10
aI10
aI20
aI30
aI30
aI60
aI70
aI110
aI140
aI4252
aI0
aI0
aI0
aI0
aI0
aI0
aI0
aI0
aI0
aI0
aI0
aI0
aI0
aa(lp63
I3
aI17727
aI5
aI5
aI5
aI5
aI5
aI5
aI5
aI10
aI5
aI10
aI10
aI10
aI20
aI30
aI30
aI60
aI70
aI110
aI141
aI4256
aI0
aI0
aI0
aI0
aI0
aI0
aI0
aI0
aI0
aI0
aI0
aI0
aI0
aa(lp64
I3
aI17722
aI5
aI5
aI5
aI5
aI5
aI5
aI5
aI10
aI5
aI10
aI10
aI10
aI20
aI30
aI30
aI60
aI70
aI110
aI142
aI4260
aI0
aI0
aI0
aI0
aI0
aI0
aI0
aI0
aI0
aI0
aI0
aI0
aI0
aa(lp65
I3
aI17717
aI5
aI5
aI5
aI5
aI5
aI5
aI5
aI10
aI5
aI10
aI10
aI10
aI20
aI30
aI30
aI60
aI70
aI110
aI143
aI4264
aI0
aI0
aI0
aI0
aI0
aI0
aI0
aI0
aI0
aI0
aI0
aI0
aI0
aa(lp66
I3
aI17712
aI5
aI5
aI5
aI5
aI5
aI5
aI5
aI10
aI5
aI10
aI10
aI10
aI20
aI30
aI30
aI60
aI70
aI110
aI144
aI4268
aI0
aI0
aI0
aI0
aI0
aI0
aI0
aI0
aI0
aI0
aI0
aI0
aI0
aa(lp67
I3
aI17707
aI5
aI5
aI5
aI5
aI5
aI5
aI5
aI10
aI5
aI10
aI10
aI10
aI20
aI30
aI30
aI60
aI70
aI110
aI145
aI4272
aI0
aI0
aI0
aI0
aI0
aI0
aI0
aI0
aI0
aI0
aI0
aI0
aI0
aa(lp68
I3
aI17702
aI5
aI5
aI5
aI5
aI5
aI5
aI5
aI10
aI5
aI10
aI10
aI10
aI20
aI30
aI30
aI60
aI70
aI110
aI146
aI4276
aI0
aI0
aI0
aI0
aI0
aI0
aI0
aI0
aI0
aI0
aI0
aI0
aI0
aa(lp69
I3
aI17697
aI5
aI5
aI5
aI5
aI5
aI5
aI5
aI10
aI5
aI10
aI10
aI10
aI20
aI30
aI30
aI60
aI70
aI110
aI147
aI4280
aI0
aI0
aI0
aI0
aI0
aI0
aI0
aI0
aI0
aI0
aI0
aI0
aI0
aa(lp70
I3
aI17692
aI5
aI5
aI5
aI5
aI5
aI5
aI5
aI10
aI5
aI10
aI10
aI10
aI20
aI30
aI30
aI60
aI70
aI110
aI148
aI4284
aI0
aI0
aI0
aI0
aI0
aI0
aI0
aI0
aI0
aI0
aI0
aI0
aI0
aa(lp71
I3
aI17687
aI5
aI5
aI5
aI5
aI5
aI5
aI5
aI10
aI5
aI10
aI10
aI10
aI20
aI30
aI30
aI60
aI70
aI110
aI149
aI4288
aI0
aI0
aI0
aI0
aI0
aI0
aI0
aI0
aI0
aI0
aI0
aI0
aI0
aa(lp72
I3
aI17682
aI5
aI5
aI5
aI5
aI5
aI5
aI5
aI10
aI5
aI10
aI10
aI10
aI20
aI30
aI30
aI60
aI70
aI110
aI150
aI4292
aI0
aI0
aI0
aI0
aI0
aI0
aI0
aI0
aI0
aI0
aI0
aI0
aI0
aa(lp73
I3
aI17677
aI5
aI5
aI5
aI5
aI5
aI5
aI5
aI10
aI5
aI10
aI10
aI10
aI20
aI30
aI30
aI60
aI70
aI110
aI150
aI4297
aI0
aI0
aI0
aI0
aI0
aI0
aI0
aI0
aI0
aI0
aI0
aI0
aI0
aa(lp74
I3
aI17672
aI5
aI5
aI5
aI5
aI5
aI5
aI5
aI10
aI5
aI10
aI10
aI10
aI20
aI30
aI30
aI60
aI70
aI110
aI150
aI4302
aI0
aI0
aI0
aI0
aI0
aI0
aI0
aI0
aI0
aI0
aI0
aI0
aI0
aa(lp75
I3
aI17667
aI5
aI5
aI5
aI5
aI5
aI5
aI5
aI10
aI5
aI10
aI10
aI10
aI20
aI30
aI30
aI60
aI70
aI110
aI150
aI4307
aI0
aI0
aI0
aI0
aI0
aI0
aI0
aI0
aI0
aI0
aI0
aI0
aI0
aa(lp76
I3
aI17662
aI5
aI5
aI5
aI5
aI5
aI5
aI5
aI10
aI5
aI10
aI10
aI10
aI20
aI30
aI30
aI60
aI70
aI110
aI150
aI4312
aI0
aI0
aI0
aI0
aI0
aI0
aI0
aI0
aI0
aI0
aI0
aI0
aI0
aa(lp77
I3
aI17657
aI5
aI5
aI5
aI5
aI5
aI5
aI5
aI10
aI5
aI10
aI10
aI10
aI20
aI30
aI30
aI60
aI70
aI110
aI150
aI4317
aI0
aI0
aI0
aI0
aI0
aI0
aI0
aI0
aI0
aI0
aI0
aI0
aI0
aa(lp78
I3
aI17652
aI5
aI5
aI5
aI5
aI5
aI5
aI5
aI10
aI5
aI10
aI10
aI10
aI20
aI30
aI30
aI60
aI70
aI110
aI150
aI4322
aI0
aI0
aI0
aI0
aI0
aI0
aI0
aI0
aI0
aI0
aI0
aI0
aI0
aa(lp79
I3
aI17647
aI5
aI5
aI5
aI5
aI5
aI5
aI5
aI10
aI5
aI10
aI10
aI10
aI20
aI30
aI30
aI60
aI70
aI110
aI150
aI4327
aI0
aI0
aI0
aI0
aI0
aI0
aI0
aI0
aI0
aI0
aI0
aI0
aI0
aa(lp80
I3
aI17642
aI5
aI5
aI5
aI5
aI5
aI5
aI5
aI10
aI5
aI10
aI10
aI10
aI20
aI30
aI30
aI60
aI70
aI110
aI150
aI4332
aI0
aI0
aI0
aI0
aI0
aI0
aI0
aI0
aI0
aI0
aI0
aI0
aI0
aa(lp81
I3
aI17637
aI5
aI5
aI5
aI5
aI5
aI5
aI5
aI10
aI5
aI10
aI10
aI10
aI20
aI30
aI30
aI60
aI70
aI110
aI150
aI198
aI4139
aI0
aI0
aI0
aI0
aI0
aI0
aI0
aI0
aI0
aI0
aI0
aI0
aa(lp82
I3
aI17632
aI5
aI5
aI5
aI5
aI5
aI5
aI5
aI10
aI5
aI10
aI10
aI10
aI20
aI30
aI30
aI60
aI70
aI110
aI150
aI199
aI4143
aI0
aI0
aI0
aI0
aI0
aI0
aI0
aI0
aI0
aI0
aI0
aI0
aa(lp83
I3
aI17627
aI5
aI5
aI5
aI5
aI5
aI5
aI5
aI10
aI5
aI10
aI10
aI10
aI20
aI30
aI30
aI60
aI70
aI110
aI150
aI200
aI4147
aI0
aI0
aI0
aI0
aI0
aI0
aI0
aI0
aI0
aI0
aI0
aI0
aa(lp84
I3
aI17622
aI5
aI5
aI5
aI5
aI5
aI5
aI5
aI10
aI5
aI10
aI10
aI10
aI20
aI30
aI30
aI60
aI70
aI110
aI150
aI201
aI4151
aI0
aI0
aI0
aI0
aI0
aI0
aI0
aI0
aI0
aI0
aI0
aI0
aa(lp85
I3
aI17617
aI5
aI5
aI5
aI5
aI5
aI5
aI5
aI10
aI5
aI10
aI10
aI10
aI20
aI30
aI30
aI60
aI70
aI110
aI150
aI202
aI4155
aI0
aI0
aI0
aI0
aI0
aI0
aI0
aI0
aI0
aI0
aI0
aI0
aa(lp86
I3
aI17612
aI5
aI5
aI5
aI5
aI5
aI5
aI5
aI10
aI5
aI10
aI10
aI10
aI20
aI30
aI30
aI60
aI70
aI110
aI150
aI203
aI4159
aI0
aI0
aI0
aI0
aI0
aI0
aI0
aI0
aI0
aI0
aI0
aI0
aa(lp87
I3
aI17607
aI5
aI5
aI5
aI5
aI5
aI5
aI5
aI10
aI5
aI10
aI10
aI10
aI20
aI30
aI30
aI60
aI70
aI110
aI150
aI204
aI4163
aI0
aI0
aI0
aI0
aI0
aI0
aI0
aI0
aI0
aI0
aI0
aI0
aa(lp88
I3
aI17602
aI5
aI5
aI5
aI5
aI5
aI5
aI5
aI10
aI5
aI10
aI10
aI10
aI20
aI30
aI30
aI60
aI70
aI110
aI150
aI205
aI4167
aI0
aI0
aI0
aI0
aI0
aI0
aI0
aI0
aI0
aI0
aI0
aI0
aa(lp89
I3
aI17597
aI5
aI5
aI5
aI5
aI5
aI5
aI5
aI10
aI5
aI10
aI10
aI10
aI20
aI30
aI30
aI60
aI70
aI110
aI150
aI206
aI4171
aI0
aI0
aI0
aI0
aI0
aI0
aI0
aI0
aI0
aI0
aI0
aI0
aa(lp90
I3
aI17592
aI5
aI5
aI5
aI5
aI5
aI5
aI5
aI10
aI5
aI10
aI10
aI10
aI20
aI30
aI30
aI60
aI70
aI110
aI150
aI207
aI4175
aI0
aI0
aI0
aI0
aI0
aI0
aI0
aI0
aI0
aI0
aI0
aI0
aa(lp91
I3
aI17587
aI5
aI5
aI5
aI5
aI5
aI5
aI5
aI10
aI5
aI10
aI10
aI10
aI20
aI30
aI30
aI60
aI70
aI110
aI150
aI208
aI4179
aI0
aI0
aI0
aI0
aI0
aI0
aI0
aI0
aI0
aI0
aI0
aI0
aa(lp92
I3
aI17582
aI5
aI5
aI5
aI5
aI5
aI5
aI5
aI10
aI5
aI10
aI10
aI10
aI20
aI30
aI30
aI60
aI70
aI110
aI150
aI209
aI4183
aI0
aI0
aI0
aI0
aI0
aI0
aI0
aI0
aI0
aI0
aI0
aI0
aa(lp93
I3
aI17577
aI5
aI5
aI5
aI5
aI5
aI5
aI5
aI10
aI5
aI10
aI10
aI10
aI20
aI30
aI30
aI60
aI70
aI110
aI150
aI210
aI4187
aI0
aI0
aI0
aI0
aI0
aI0
aI0
aI0
aI0
aI0
aI0
aI0
aa(lp94
I3
aI17572
aI5
aI5
aI5
aI5
aI5
aI5
aI5
aI10
aI5
aI10
aI10
aI10
aI20
aI30
aI30
aI60
aI70
aI110
aI150
aI210
aI4192
aI0
aI0
aI0
aI0
aI0
aI0
aI0
aI0
aI0
aI0
aI0
aI0
aa(lp95
I3
aI17567
aI5
aI5
aI5
aI5
aI5
aI5
aI5
aI10
aI5
aI10
aI10
aI10
aI20
aI30
aI30
aI60
aI70
aI110
aI150
aI210
aI4197
aI0
aI0
aI0
aI0
aI0
aI0
aI0
aI0
aI0
aI0
aI0
aI0
aa(lp96
I3
aI17562
aI5
aI5
aI5
aI5
aI5
aI5
aI5
aI10
aI5
aI10
aI10
aI10
aI20
aI30
aI30
aI60
aI70
aI110
aI150
aI210
aI4202
aI0
aI0
aI0
aI0
aI0
aI0
aI0
aI0
aI0
aI0
aI0
aI0
aa(lp97
I3
aI17557
aI5
aI5
aI5
aI5
aI5
aI5
aI5
aI10
aI5
aI10
aI10
aI10
aI20
aI30
aI30
aI60
aI70
aI110
aI150
aI210
aI4207
aI0
aI0
aI0
aI0
aI0
aI0
aI0
aI0
aI0
aI0
aI0
aI0
aa(lp98
I3
aI17552
aI5
aI5
aI5
aI5
aI5
aI5
aI5
aI10
aI5
aI10
aI10
aI10
aI20
aI30
aI30
aI60
aI70
aI110
aI150
aI210
aI4212
aI0
aI0
aI0
aI0
aI0
aI0
aI0
aI0
aI0
aI0
aI0
aI0
aa(lp99
I3
aI17547
aI5
aI5
aI5
aI5
aI5
aI5
aI5
aI10
aI5
aI10
aI10
aI10
aI20
aI30
aI30
aI60
aI70
aI110
aI150
aI210
aI4217
aI0
aI0
aI0
aI0
aI0
aI0
aI0
aI0
aI0
aI0
aI0
aI0
aa(lp100
I3
aI17542
aI5
aI5
aI5
aI5
aI5
aI5
aI5
aI10
aI5
aI10
aI10
aI10
aI20
aI30
aI30
aI60
aI70
aI110
aI150
aI210
aI4222
aI0
aI0
aI0
aI0
aI0
aI0
aI0
aI0
aI0
aI0
aI0
aI0
aa(lp101
I3
aI17537
aI5
aI5
aI5
aI5
aI5
aI5
aI5
aI10
aI5
aI10
aI10
aI10
aI20
aI30
aI30
aI60
aI70
aI110
aI150
aI210
aI4227
aI0
aI0
aI0
aI0
aI0
aI0
aI0
aI0
aI0
aI0
aI0
aI0
aa(lp102
I3
aI17532
aI5
aI5
aI5
aI5
aI5
aI5
aI5
aI10
aI5
aI10
aI10
aI10
aI20
aI30
aI30
aI60
aI70
aI110
aI150
aI210
aI4232
aI0
aI0
aI0
aI0
aI0
aI0
aI0
aI0
aI0
aI0
aI0
aI0
aa(lp103
I3
aI17527
aI5
aI5
aI5
aI5
aI5
aI5
aI5
aI10
aI5
aI10
aI10
aI10
aI20
aI30
aI30
aI60
aI70
aI110
aI150
aI210
aI4237
aI0
aI0
aI0
aI0
aI0
aI0
aI0
aI0
aI0
aI0
aI0
aI0
aa(lp104
I3
aI17522
aI5
aI5
aI5
aI5
aI5
aI5
aI5
aI10
aI5
aI10
aI10
aI10
aI20
aI30
aI30
aI60
aI70
aI110
aI150
aI210
aI4242
aI0
aI0
aI0
aI0
aI0
aI0
aI0
aI0
aI0
aI0
aI0
aI0
aa(lp105
I3
aI17517
aI5
aI5
aI5
aI5
aI5
aI5
aI5
aI10
aI5
aI10
aI10
aI10
aI20
aI30
aI30
aI60
aI70
aI110
aI150
aI210
aI4247
aI0
aI0
aI0
aI0
aI0
aI0
aI0
aI0
aI0
aI0
aI0
aI0
aa(lp106
I3
aI17512
aI5
aI5
aI5
aI5
aI5
aI5
aI5
aI10
aI5
aI10
aI10
aI10
aI20
aI30
aI30
aI60
aI70
aI110
aI150
aI210
aI4252
aI0
aI0
aI0
aI0
aI0
aI0
aI0
aI0
aI0
aI0
aI0
aI0
aa(lp107
I3
aI17507
aI5
aI5
aI5
aI5
aI5
aI5
aI5
aI10
aI5
aI10
aI10
aI10
aI20
aI30
aI30
aI60
aI70
aI110
aI150
aI210
aI4257
aI0
aI0
aI0
aI0
aI0
aI0
aI0
aI0
aI0
aI0
aI0
aI0
aa(lp108
I3
aI17502
aI5
aI5
aI5
aI5
aI5
aI5
aI5
aI10
aI5
aI10
aI10
aI10
aI20
aI30
aI30
aI60
aI70
aI110
aI150
aI210
aI4262
aI0
aI0
aI0
aI0
aI0
aI0
aI0
aI0
aI0
aI0
aI0
aI0
aa(lp109
I3
aI17497
aI5
aI5
aI5
aI5
aI5
aI5
aI5
aI10
aI5
aI10
aI10
aI10
aI20
aI30
aI30
aI60
aI70
aI110
aI150
aI210
aI4267
aI0
aI0
aI0
aI0
aI0
aI0
aI0
aI0
aI0
aI0
aI0
aI0
aa(lp110
I3
aI17492
aI5
aI5
aI5
aI5
aI5
aI5
aI5
aI10
aI5
aI10
aI10
aI10
aI20
aI30
aI30
aI60
aI70
aI110
aI150
aI210
aI4272
aI0
aI0
aI0
aI0
aI0
aI0
aI0
aI0
aI0
aI0
aI0
aI0
aa(lp111
I3
aI17487
aI5
aI5
aI5
aI5
aI5
aI5
aI5
aI10
aI5
aI10
aI10
aI10
aI20
aI30
aI30
aI60
aI70
aI110
aI150
aI210
aI288
aI3989
aI0
aI0
aI0
aI0
aI0
aI0
aI0
aI0
aI0
aI0
aI0
aa(lp112
I3
aI17482
aI5
aI5
aI5
aI5
aI5
aI5
aI5
aI10
aI5
aI10
aI10
aI10
aI20
aI30
aI30
aI60
aI70
aI110
aI150
aI210
aI289
aI3993
aI0
aI0
aI0
aI0
aI0
aI0
aI0
aI0
aI0
aI0
aI0
aa(lp113
I3
aI17477
aI5
aI5
aI5
aI5
aI5
aI5
aI5
aI10
aI5
aI10
aI10
aI10
aI20
aI30
aI30
aI60
aI70
aI110
aI150
aI210
aI290
aI3997
aI0
aI0
aI0
aI0
aI0
aI0
aI0
aI0
aI0
aI0
aI0
aa(lp114
I3
aI17472
aI5
aI5
aI5
aI5
aI5
aI5
aI5
aI10
aI5
aI10
aI10
aI10
aI20
aI30
aI30
aI60
aI70
aI110
aI150
aI210
aI291
aI4001
aI0
aI0
aI0
aI0
aI0
aI0
aI0
aI0
aI0
aI0
aI0
aa(lp115
I3
aI17467
aI5
aI5
aI5
aI5
aI5
aI5
aI5
aI10
aI5
aI10
aI10
aI10
aI20
aI30
aI30
aI60
aI70
aI110
aI150
aI210
aI292
aI4005
aI0
aI0
aI0
aI0
aI0
aI0
aI0
aI0
aI0
aI0
aI0
aa(lp116
I3
aI17462
aI5
aI5
aI5
aI5
aI5
aI5
aI5
aI10
aI5
aI10
aI10
aI10
aI20
aI30
aI30
aI60
aI70
aI110
aI150
aI210
aI293
aI4009
aI0
aI0
aI0
aI0
aI0
aI0
aI0
aI0
aI0
aI0
aI0
aa(lp117
I3
aI17457
aI5
aI5
aI5
aI5
aI5
aI5
aI5
aI10
aI5
aI10
aI10
aI10
aI20
aI30
aI30
aI60
aI70
aI110
aI150
aI210
aI294
aI4013
aI0
aI0
aI0
aI0
aI0
aI0
aI0
aI0
aI0
aI0
aI0
aa(lp118
I3
aI17452
aI5
aI5
aI5
aI5
aI5
aI5
aI5
aI10
aI5
aI10
aI10
aI10
aI20
aI30
aI30
aI60
aI70
aI110
aI150
aI210
aI295
aI4017
aI0
aI0
aI0
aI0
aI0
aI0
aI0
aI0
aI0
aI0
aI0
aa(lp119
I3
aI17447
aI5
aI5
aI5
aI5
aI5
aI5
aI5
aI10
aI5
aI10
aI10
aI10
aI20
aI30
aI30
aI60
aI70
aI110
aI150
aI210
aI296
aI4021
aI0
aI0
aI0
aI0
aI0
aI0
aI0
aI0
aI0
aI0
aI0
aa(lp120
I3
aI17442
aI5
aI5
aI5
aI5
aI5
aI5
aI5
aI10
aI5
aI10
aI10
aI10
aI20
aI30
aI30
aI60
aI70
aI110
aI150
aI210
aI297
aI4025
aI0
aI0
aI0
aI0
aI0
aI0
aI0
aI0
aI0
aI0
aI0
aa(lp121
I3
aI17437
aI5
aI5
aI5
aI5
aI5
aI5
aI5
aI10
aI5
aI10
aI10
aI10
aI20
aI30
aI30
aI60
aI70
aI110
aI150
aI210
aI298
aI4029
aI0
aI0
aI0
aI0
aI0
aI0
aI0
aI0
aI0
aI0
aI0
aa(lp122
I3
aI17432
aI5
aI5
aI5
aI5
aI5
aI5
aI5
aI10
aI5
aI10
aI10
aI10
aI20
aI30
aI30
aI60
aI70
aI110
aI150
aI210
aI299
aI4033
aI0
aI0
aI0
aI0
aI0
aI0
aI0
aI0
aI0
aI0
aI0
aa(lp123
I3
aI17427
aI5
aI5
aI5
aI5
aI5
aI5
aI5
aI10
aI5
aI10
aI10
aI10
aI20
aI30
aI30
aI60
aI70
aI110
aI150
aI210
aI300
aI4037
aI0
aI0
aI0
aI0
aI0
aI0
aI0
aI0
aI0
aI0
aI0
aa(lp124
I3
aI17422
aI5
aI5
aI5
aI5
aI5
aI5
aI5
aI10
aI5
aI10
aI10
aI10
aI20
aI30
aI30
aI60
aI70
aI110
aI150
aI210
aI300
aI4042
aI0
aI0
aI0
aI0
aI0
aI0
aI0
aI0
aI0
aI0
aI0
aa(lp125
I3
aI17417
aI5
aI5
aI5
aI5
aI5
aI5
aI5
aI10
aI5
aI10
aI10
aI10
aI20
aI30
aI30
aI60
aI70
aI110
aI150
aI210
aI300
aI4047
aI0
aI0
aI0
aI0
aI0
aI0
aI0
aI0
aI0
aI0
aI0
aa(lp126
I3
aI17412
aI5
aI5
aI5
aI5
aI5
aI5
aI5
aI10
aI5
aI10
aI10
aI10
aI20
aI30
aI30
aI60
aI70
aI110
aI150
aI210
aI300
aI4052
aI0
aI0
aI0
aI0
aI0
aI0
aI0
aI0
aI0
aI0
aI0
aa(lp127
I3
aI17407
aI5
aI5
aI5
aI5
aI5
aI5
aI5
aI10
aI5
aI10
aI10
aI10
aI20
aI30
aI30
aI60
aI70
aI110
aI150
aI210
aI300
aI4057
aI0
aI0
aI0
aI0
aI0
aI0
aI0
aI0
aI0
aI0
aI0
aa(lp128
I3
aI17402
aI5
aI5
aI5
aI5
aI5
aI5
aI5
aI10
aI5
aI10
aI10
aI10
aI20
aI30
aI30
aI60
aI70
aI110
aI150
aI210
aI300
aI4062
aI0
aI0
aI0
aI0
aI0
aI0
aI0
aI0
aI0
aI0
aI0
aa(lp129
I3
aI17397
aI5
aI5
aI5
aI5
aI5
aI5
aI5
aI10
aI5
aI10
aI10
aI10
aI20
aI30
aI30
aI60
aI70
aI110
aI150
aI210
aI300
aI4067
aI0
aI0
aI0
aI0
aI0
aI0
aI0
aI0
aI0
aI0
aI0
aa(lp130
I3
aI17392
aI5
aI5
aI5
aI5
aI5
aI5
aI5
aI10
aI5
aI10
aI10
aI10
aI20
aI30
aI30
aI60
aI70
aI110
aI150
aI210
aI300
aI4072
aI0
aI0
aI0
aI0
aI0
aI0
aI0
aI0
aI0
aI0
aI0
aa(lp131
I3
aI17387
aI5
aI5
aI5
aI5
aI5
aI5
aI5
aI10
aI5
aI10
aI10
aI10
aI20
aI30
aI30
aI60
aI70
aI110
aI150
aI210
aI300
aI4077
aI0
aI0
aI0
aI0
aI0
aI0
aI0
aI0
aI0
aI0
aI0
aa(lp132
I3
aI17382
aI5
aI5
aI5
aI5
aI5
aI5
aI5
aI10
aI5
aI10
aI10
aI10
aI20
aI30
aI30
aI60
aI70
aI110
aI150
aI210
aI300
aI4082
aI0
aI0
aI0
aI0
aI0
aI0
aI0
aI0
aI0
aI0
aI0
aa(lp133
I3
aI17377
aI5
aI5
aI5
aI5
aI5
aI5
aI5
aI10
aI5
aI10
aI10
aI10
aI20
aI30
aI30
aI60
aI70
aI110
aI150
aI210
aI300
aI4087
aI0
aI0
aI0
aI0
aI0
aI0
aI0
aI0
aI0
aI0
aI0
aa(lp134
I3
aI17372
aI5
aI5
aI5
aI5
aI5
aI5
aI5
aI10
aI5
aI10
aI10
aI10
aI20
aI30
aI30
aI60
aI70
aI110
aI150
aI210
aI300
aI4092
aI0
aI0
aI0
aI0
aI0
aI0
aI0
aI0
aI0
aI0
aI0
aa(lp135
I3
aI17367
aI5
aI5
aI5
aI5
aI5
aI5
aI5
aI10
aI5
aI10
aI10
aI10
aI20
aI30
aI30
aI60
aI70
aI110
aI150
aI210
aI300
aI4097
aI0
aI0
aI0
aI0
aI0
aI0
aI0
aI0
aI0
aI0
aI0
aa(lp136
I3
aI17362
aI5
aI5
aI5
aI5
aI5
aI5
aI5
aI10
aI5
aI10
aI10
aI10
aI20
aI30
aI30
aI60
aI70
aI110
aI150
aI210
aI300
aI4102
aI0
aI0
aI0
aI0
aI0
aI0
aI0
aI0
aI0
aI0
aI0
aa(lp137
I3
aI17357
aI5
aI5
aI5
aI5
aI5
aI5
aI5
aI10
aI5
aI10
aI10
aI10
aI20
aI30
aI30
aI60
aI70
aI110
aI150
aI210
aI300
aI4107
aI0
aI0
aI0
aI0
aI0
aI0
aI0
aI0
aI0
aI0
aI0
aa(lp138
I3
aI17352
aI5
aI5
aI5
aI5
aI5
aI5
aI5
aI10
aI5
aI10
aI10
aI10
aI20
aI30
aI30
aI60
aI70
aI110
aI150
aI210
aI300
aI4112
aI0
aI0
aI0
aI0
aI0
aI0
aI0
aI0
aI0
aI0
aI0
aa(lp139
I3
aI17347
aI5
aI5
aI5
aI5
aI5
aI5
aI5
aI10
aI5
aI10
aI10
aI10
aI20
aI30
aI30
aI60
aI70
aI110
aI150
aI210
aI300
aI4117
aI0
aI0
aI0
aI0
aI0
aI0
aI0
aI0
aI0
aI0
aI0
aa(lp140
I3
aI17342
aI5
aI5
aI5
aI5
aI5
aI5
aI5
aI10
aI5
aI10
aI10
aI10
aI20
aI30
aI30
aI60
aI70
aI110
aI150
aI210
aI300
aI4122
aI0
aI0
aI0
aI0
aI0
aI0
aI0
aI0
aI0
aI0
aI0
aa(lp141
I3
aI17337
aI5
aI5
aI5
aI5
aI5
aI5
aI5
aI10
aI5
aI10
aI10
aI10
aI20
aI30
aI30
aI60
aI70
aI110
aI150
aI210
aI300
aI4127
aI0
aI0
aI0
aI0
aI0
aI0
aI0
aI0
aI0
aI0
aI0
aa(lp142
I3
aI17332
aI5
aI5
aI5
aI5
aI5
aI5
aI5
aI10
aI5
aI10
aI10
aI10
aI20
aI30
aI30
aI60
aI70
aI110
aI150
aI210
aI300
aI4132
aI0
aI0
aI0
aI0
aI0
aI0
aI0
aI0
aI0
aI0
aI0
aa(lp143
I3
aI17327
aI5
aI5
aI5
aI5
aI5
aI5
aI5
aI10
aI5
aI10
aI10
aI10
aI20
aI30
aI30
aI60
aI70
aI110
aI150
aI210
aI300
aI4137
aI0
aI0
aI0
aI0
aI0
aI0
aI0
aI0
aI0
aI0
aI0
aa(lp144
I3
aI17322
aI5
aI5
aI5
aI5
aI5
aI5
aI5
aI10
aI5
aI10
aI10
aI10
aI20
aI30
aI30
aI60
aI70
aI110
aI150
aI210
aI300
aI4142
aI0
aI0
aI0
aI0
aI0
aI0
aI0
aI0
aI0
aI0
aI0
aa(lp145
I3
aI17317
aI5
aI5
aI5
aI5
aI5
aI5
aI5
aI10
aI5
aI10
aI10
aI10
aI20
aI30
aI30
aI60
aI70
aI110
aI150
aI210
aI300
aI4147
aI0
aI0
aI0
aI0
aI0
aI0
aI0
aI0
aI0
aI0
aI0
aa(lp146
I3
aI17312
aI5
aI5
aI5
aI5
aI5
aI5
aI5
aI10
aI5
aI10
aI10
aI10
aI20
aI30
aI30
aI60
aI70
aI110
aI150
aI210
aI300
aI4152
aI0
aI0
aI0
aI0
aI0
aI0
aI0
aI0
aI0
aI0
aI0
aa(lp147
I3
aI17307
aI5
aI5
aI5
aI5
aI5
aI5
aI5
aI10
aI5
aI10
aI10
aI10
aI20
aI30
aI30
aI60
aI70
aI110
aI150
aI210
aI300
aI4157
aI0
aI0
aI0
aI0
aI0
aI0
aI0
aI0
aI0
aI0
aI0
aa(lp148
I3
aI17302
aI5
aI5
aI5
aI5
aI5
aI5
aI5
aI10
aI5
aI10
aI10
aI10
aI20
aI30
aI30
aI60
aI70
aI110
aI150
aI210
aI300
aI4162
aI0
aI0
aI0
aI0
aI0
aI0
aI0
aI0
aI0
aI0
aI0
aa(lp149
I3
aI17297
aI5
aI5
aI5
aI5
aI5
aI5
aI5
aI10
aI5
aI10
aI10
aI10
aI20
aI30
aI30
aI60
aI70
aI110
aI150
aI210
aI300
aI4167
aI0
aI0
aI0
aI0
aI0
aI0
aI0
aI0
aI0
aI0
aI0
aa(lp150
I3
aI17292
aI5
aI5
aI5
aI5
aI5
aI5
aI5
aI10
aI5
aI10
aI10
aI10
aI20
aI30
aI30
aI60
aI70
aI110
aI150
aI210
aI300
aI4172
aI0
aI0
aI0
aI0
aI0
aI0
aI0
aI0
aI0
aI0
aI0
aa(lp151
I3
aI17287
aI5
aI5
aI5
aI5
aI5
aI5
aI5
aI10
aI5
aI10
aI10
aI10
aI20
aI30
aI30
aI60
aI70
aI110
aI150
aI210
aI300
aI4177
aI0
aI0
aI0
aI0
aI0
aI0
aI0
aI0
aI0
aI0
aI0
aa(lp152
I3
aI17282
aI5
aI5
aI5
aI5
aI5
aI5
aI5
aI10
aI5
aI10
aI10
aI10
aI20
aI30
aI30
aI60
aI70
aI110
aI150
aI210
aI300
aI4182
aI0
aI0
aI0
aI0
aI0
aI0
aI0
aI0
aI0
aI0
aI0
aa(lp153
I3
aI17277
aI5
aI5
aI5
aI5
aI5
aI5
aI5
aI10
aI5
aI10
aI10
aI10
aI20
aI30
aI30
aI60
aI70
aI110
aI150
aI210
aI300
aI408
aI3779
aI0
aI0
aI0
aI0
aI0
aI0
aI0
aI0
aI0
aI0
aa(lp154
I3
aI17272
aI5
aI5
aI5
aI5
aI5
aI5
aI5
aI10
aI5
aI10
aI10
aI10
aI20
aI30
aI30
aI60
aI70
aI110
aI150
aI210
aI300
aI409
aI3783
aI0
aI0
aI0
aI0
aI0
aI0
aI0
aI0
aI0
aI0
aa(lp155
I3
aI17267
aI5
aI5
aI5
aI5
aI5
aI5
aI5
aI10
aI5
aI10
aI10
aI10
aI20
aI30
aI30
aI60
aI70
aI110
aI150
aI210
aI300
aI410
aI3787
aI0
aI0
aI0
aI0
aI0
aI0
aI0
aI0
aI0
aI0
aa(lp156
I3
aI17262
aI5
aI5
aI5
aI5
aI5
aI5
aI5
aI10
aI5
aI10
aI10
aI10
aI20
aI30
aI30
aI60
aI70
aI110
aI150
aI210
aI300
aI411
aI3791
aI0
aI0
aI0
aI0
aI0
aI0
aI0
aI0
aI0
aI0
aa(lp157
I3
aI17257
aI5
aI5
aI5
aI5
aI5
aI5
aI5
aI10
aI5
aI10
aI10
aI10
aI20
aI30
aI30
aI60
aI70
aI110
aI150
aI210
aI300
aI412
aI3795
aI0
aI0
aI0
aI0
aI0
aI0
aI0
aI0
aI0
aI0
aa(lp158
I3
aI17252
aI5
aI5
aI5
aI5
aI5
aI5
aI5
aI10
aI5
aI10
aI10
aI10
aI20
aI30
aI30
aI60
aI70
aI110
aI150
aI210
aI300
aI413
aI3799
aI0
aI0
aI0
aI0
aI0
aI0
aI0
aI0
aI0
aI0
aa(lp159
I3
aI17247
aI5
aI5
aI5
aI5
aI5
aI5
aI5
aI10
aI5
aI10
aI10
aI10
aI20
aI30
aI30
aI60
aI70
aI110
aI150
aI210
aI300
aI414
aI3803
aI0
aI0
aI0
aI0
aI0
aI0
aI0
aI0
aI0
aI0
aa(lp160
I3
aI17242
aI5
aI5
aI5
aI5
aI5
aI5
aI5
aI10
aI5
aI10
aI10
aI10
aI20
aI30
aI30
aI60
aI70
aI110
aI150
aI210
aI300
aI415
aI3807
aI0
aI0
aI0
aI0
aI0
aI0
aI0
aI0
aI0
aI0
aa(lp161
I3
aI17237
aI5
aI5
aI5
aI5
aI5
aI5
aI5
aI10
aI5
aI10
aI10
aI10
aI20
aI30
aI30
aI60
aI70
aI110
aI150
aI210
aI300
aI416
aI3811
aI0
aI0
aI0
aI0
aI0
aI0
aI0
aI0
aI0
aI0
aa(lp162
I3
aI17232
aI5
aI5
aI5
aI5
aI5
aI5
aI5
aI10
aI5
aI10
aI10
aI10
aI20
aI30
aI30
aI60
aI70
aI110
aI150
aI210
aI300
aI417
aI3815
aI0
aI0
aI0
aI0
aI0
aI0
aI0
aI0
aI0
aI0
aa(lp163
I3
aI17227
aI5
aI5
aI5
aI5
aI5
aI5
aI5
aI10
aI5
aI10
aI10
aI10
aI20
aI30
aI30
aI60
aI70
aI110
aI150
aI210
aI300
aI418
aI3819
aI0
aI0
aI0
aI0
aI0
aI0
aI0
aI0
aI0
aI0
aa(lp164
I3
aI17222
aI5
aI5
aI5
aI5
aI5
aI5
aI5
aI10
aI5
aI10
aI10
aI10
aI20
aI30
aI30
aI60
aI70
aI110
aI150
aI210
aI300
aI419
aI3823
aI0
aI0
aI0
aI0
aI0
aI0
aI0
aI0
aI0
aI0
aa(lp165
I3
aI17217
aI5
aI5
aI5
aI5
aI5
aI5
aI5
aI10
aI5
aI10
aI10
aI10
aI20
aI30
aI30
aI60
aI70
aI110
aI150
aI210
aI300
aI420
aI3827
aI0
aI0
aI0
aI0
aI0
aI0
aI0
aI0
aI0
aI0
aa(lp166
I3
aI17212
aI5
aI5
aI5
aI5
aI5
aI5
aI5
aI10
aI5
aI10
aI10
aI10
aI20
aI30
aI30
aI60
aI70
aI110
aI150
aI210
aI300
aI420
aI3832
aI0
aI0
aI0
aI0
aI0
aI0
aI0
aI0
aI0
aI0
aa(lp167
I3
aI17207
aI5
aI5
aI5
aI5
aI5
aI5
aI5
aI10
aI5
aI10
aI10
aI10
aI20
aI30
aI30
aI60
aI70
aI110
aI150
aI210
aI300
aI420
aI3837
aI0
aI0
aI0
aI0
aI0
aI0
aI0
aI0
aI0
aI0
aa(lp168
I3
aI17202
aI5
aI5
aI5
aI5
aI5
aI5
aI5
aI10
aI5
aI10
aI10
aI10
aI20
aI30
aI30
aI60
aI70
aI110
aI150
aI210
aI300
aI420
aI3842
aI0
aI0
aI0
aI0
aI0
aI0
aI0
aI0
aI0
aI0
aa(lp169
I3
aI17197
aI5
aI5
aI5
aI5
aI5
aI5
aI5
aI10
aI5
aI10
aI10
aI10
aI20
aI30
aI30
aI60
aI70
aI110
aI150
aI210
aI300
aI420
aI3847
aI0
aI0
aI0
aI0
aI0
aI0
aI0
aI0
aI0
aI0
aa(lp170
I3
aI17192
aI5
aI5
aI5
aI5
aI5
aI5
aI5
aI10
aI5
aI10
aI10
aI10
aI20
aI30
aI30
aI60
aI70
aI110
aI150
aI210
aI300
aI420
aI3852
aI0
aI0
aI0
aI0
aI0
aI0
aI0
aI0
aI0
aI0
aa(lp171
I3
aI17187
aI5
aI5
aI5
aI5
aI5
aI5
aI5
aI10
aI5
aI10
aI10
aI10
aI20
aI30
aI30
aI60
aI70
aI110
aI150
aI210
aI300
aI420
aI3857
aI0
aI0
aI0
aI0
aI0
aI0
aI0
aI0
aI0
aI0
aa(lp172
I3
aI17182
aI5
aI5
aI5
aI5
aI5
aI5
aI5
aI10
aI5
aI10
aI10
aI10
aI20
aI30
aI30
aI60
aI70
aI110
aI150
aI210
aI300
aI420
aI3862
aI0
aI0
aI0
aI0
aI0
aI0
aI0
aI0
aI0
aI0
aa(lp173
I3
aI17177
aI5
aI5
aI5
aI5
aI5
aI5
aI5
aI10
aI5
aI10
aI10
aI10
aI20
aI30
aI30
aI60
aI70
aI110
aI150
aI210
aI300
aI420
aI3867
aI0
aI0
aI0
aI0
aI0
aI0
aI0
aI0
aI0
aI0
aa(lp174
I3
aI17172
aI5
aI5
aI5
aI5
aI5
aI5
aI5
aI10
aI5
aI10
aI10
aI10
aI20
aI30
aI30
aI60
aI70
aI110
aI150
aI210
aI300
aI420
aI3872
aI0
aI0
aI0
aI0
aI0
aI0
aI0
aI0
aI0
aI0
aa(lp175
I3
aI17167
aI5
aI5
aI5
aI5
aI5
aI5
aI5
aI10
aI5
aI10
aI10
aI10
aI20
aI30
aI30
aI60
aI70
aI110
aI150
aI210
aI300
aI420
aI3877
aI0
aI0
aI0
aI0
aI0
aI0
aI0
aI0
aI0
aI0
aa(lp176
I3
aI17162
aI5
aI5
aI5
aI5
aI5
aI5
aI5
aI10
aI5
aI10
aI10
aI10
aI20
aI30
aI30
aI60
aI70
aI110
aI150
aI210
aI300
aI420
aI3882
aI0
aI0
aI0
aI0
aI0
aI0
aI0
aI0
aI0
aI0
aa(lp177
I3
aI17157
aI5
aI5
aI5
aI5
aI5
aI5
aI5
aI10
aI5
aI10
aI10
aI10
aI20
aI30
aI30
aI60
aI70
aI110
aI150
aI210
aI300
aI420
aI3887
aI0
aI0
aI0
aI0
aI0
aI0
aI0
aI0
aI0
aI0
aa(lp178
I3
aI17152
aI5
aI5
aI5
aI5
aI5
aI5
aI5
aI10
aI5
aI10
aI10
aI10
aI20
aI30
aI30
aI60
aI70
aI110
aI150
aI210
aI300
aI420
aI3892
aI0
aI0
aI0
aI0
aI0
aI0
aI0
aI0
aI0
aI0
aa(lp179
I3
aI17147
aI5
aI5
aI5
aI5
aI5
aI5
aI5
aI10
aI5
aI10
aI10
aI10
aI20
aI30
aI30
aI60
aI70
aI110
aI150
aI210
aI300
aI420
aI3897
aI0
aI0
aI0
aI0
aI0
aI0
aI0
aI0
aI0
aI0
aa(lp180
I3
aI17142
aI5
aI5
aI5
aI5
aI5
aI5
aI5
aI10
aI5
aI10
aI10
aI10
aI20
aI30
aI30
aI60
aI70
aI110
aI150
aI210
aI300
aI420
aI3902
aI0
aI0
aI0
aI0
aI0
aI0
aI0
aI0
aI0
aI0
aa(lp181
I3
aI17137
aI5
aI5
aI5
aI5
aI5
aI5
aI5
aI10
aI5
aI10
aI10
aI10
aI20
aI30
aI30
aI60
aI70
aI110
aI150
aI210
aI300
aI420
aI3907
aI0
aI0
aI0
aI0
aI0
aI0
aI0
aI0
aI0
aI0
aa(lp182
I3
aI17132
aI5
aI5
aI5
aI5
aI5
aI5
aI5
aI10
aI5
aI10
aI10
aI10
aI20
aI30
aI30
aI60
aI70
aI110
aI150
aI210
aI300
aI420
aI3912
aI0
aI0
aI0
aI0
aI0
aI0
aI0
aI0
aI0
aI0
aa(lp183
I3
aI17127
aI5
aI5
aI5
aI5
aI5
aI5
aI5
aI10
aI5
aI10
aI10
aI10
aI20
aI30
aI30
aI60
aI70
aI110
aI150
aI210
aI300
aI420
aI3917
aI0
aI0
aI0
aI0
aI0
aI0
aI0
aI0
aI0
aI0
aa(lp184
I3
aI17122
aI5
aI5
aI5
aI5
aI5
aI5
aI5
aI10
aI5
aI10
aI10
aI10
aI20
aI30
aI30
aI60
aI70
aI110
aI150
aI210
aI300
aI420
aI3922
aI0
aI0
aI0
aI0
aI0
aI0
aI0
aI0
aI0
aI0
aa(lp185
I3
aI17117
aI5
aI5
aI5
aI5
aI5
aI5
aI5
aI10
aI5
aI10
aI10
aI10
aI20
aI30
aI30
aI60
aI70
aI110
aI150
aI210
aI300
aI420
aI3927
aI0
aI0
aI0
aI0
aI0
aI0
aI0
aI0
aI0
aI0
aa(lp186
I3
aI17112
aI5
aI5
aI5
aI5
aI5
aI5
aI5
aI10
aI5
aI10
aI10
aI10
aI20
aI30
aI30
aI60
aI70
aI110
aI150
aI210
aI300
aI420
aI3932
aI0
aI0
aI0
aI0
aI0
aI0
aI0
aI0
aI0
aI0
aa(lp187
I3
aI17107
aI5
aI5
aI5
aI5
aI5
aI5
aI5
aI10
aI5
aI10
aI10
aI10
aI20
aI30
aI30
aI60
aI70
aI110
aI150
aI210
aI300
aI420
aI3937
aI0
aI0
aI0
aI0
aI0
aI0
aI0
aI0
aI0
aI0
aa(lp188
I3
aI17102
aI5
aI5
aI5
aI5
aI5
aI5
aI5
aI10
aI5
aI10
aI10
aI10
aI20
aI30
aI30
aI60
aI70
aI110
aI150
aI210
aI300
aI420
aI3942
aI0
aI0
aI0
aI0
aI0
aI0
aI0
aI0
aI0
aI0
aa(lp189
I3
aI17097
aI5
aI5
aI5
aI5
aI5
aI5
aI5
aI10
aI5
aI10
aI10
aI10
aI20
aI30
aI30
aI60
aI70
aI110
aI150
aI210
aI300
aI420
aI3947
aI0
aI0
aI0
aI0
aI0
aI0
aI0
aI0
aI0
aI0
aa(lp190
I3
aI17092
aI5
aI5
aI5
aI5
aI5
aI5
aI5
aI10
aI5
aI10
aI10
aI10
aI20
aI30
aI30
aI60
aI70
aI110
aI150
aI210
aI300
aI420
aI3952
aI0
aI0
aI0
aI0
aI0
aI0
aI0
aI0
aI0
aI0
aa(lp191
I3
aI17087
aI5
aI5
aI5
aI5
aI5
aI5
aI5
aI10
aI5
aI10
aI10
aI10
aI20
aI30
aI30
aI60
aI70
aI110
aI150
aI210
aI300
aI420
aI3957
aI0
aI0
aI0
aI0
aI0
aI0
aI0
aI0
aI0
aI0
aa(lp192
I3
aI17082
aI5
aI5
aI5
aI5
aI5
aI5
aI5
aI10
aI5
aI10
aI10
aI10
aI20
aI30
aI30
aI60
aI70
aI110
aI150
aI210
aI300
aI420
aI3962
aI0
aI0
aI0
aI0
aI0
aI0
aI0
aI0
aI0
aI0
aa(lp193
I3
aI17077
aI5
aI5
aI5
aI5
aI5
aI5
aI5
aI10
aI5
aI10
aI10
aI10
aI20
aI30
aI30
aI60
aI70
aI110
aI150
aI210
aI300
aI420
aI3967
aI0
aI0
aI0
aI0
aI0
aI0
aI0
aI0
aI0
aI0
aa(lp194
I3
aI17072
aI5
aI5
aI5
aI5
aI5
aI5
aI5
aI10
aI5
aI10
aI10
aI10
aI20
aI30
aI30
aI60
aI70
aI110
aI150
aI210
aI300
aI420
aI3972
aI0
aI0
aI0
aI0
aI0
aI0
aI0
aI0
aI0
aI0
aa(lp195
I3
aI17067
aI5
aI5
aI5
aI5
aI5
aI5
aI5
aI10
aI5
aI10
aI10
aI10
aI20
aI30
aI30
aI60
aI70
aI110
aI150
aI210
aI300
aI420
aI3977
aI0
aI0
aI0
aI0
aI0
aI0
aI0
aI0
aI0
aI0
aa(lp196
I3
aI17062
aI5
aI5
aI5
aI5
aI5
aI5
aI5
aI10
aI5
aI10
aI10
aI10
aI20
aI30
aI30
aI60
aI70
aI110
aI150
aI210
aI300
aI420
aI3982
aI0
aI0
aI0
aI0
aI0
aI0
aI0
aI0
aI0
aI0
aa(lp197
I3
aI17057
aI5
aI5
aI5
aI5
aI5
aI5
aI5
aI10
aI5
aI10
aI10
aI10
aI20
aI30
aI30
aI60
aI70
aI110
aI150
aI210
aI300
aI420
aI3987
aI0
aI0
aI0
aI0
aI0
aI0
aI0
aI0
aI0
aI0
aa(lp198
I3
aI17052
aI5
aI5
aI5
aI5
aI5
aI5
aI5
aI10
aI5
aI10
aI10
aI10
aI20
aI30
aI30
aI60
aI70
aI110
aI150
aI210
aI300
aI420
aI3992
aI0
aI0
aI0
aI0
aI0
aI0
aI0
aI0
aI0
aI0
aa(lp199
I3
aI17047
aI5
aI5
aI5
aI5
aI5
aI5
aI5
aI10
aI5
aI10
aI10
aI10
aI20
aI30
aI30
aI60
aI70
aI110
aI150
aI210
aI300
aI420
aI3997
aI0
aI0
aI0
aI0
aI0
aI0
aI0
aI0
aI0
aI0
aa(lp200
I3
aI17042
aI5
aI5
aI5
aI5
aI5
aI5
aI5
aI10
aI5
aI10
aI10
aI10
aI20
aI30
aI30
aI60
aI70
aI110
aI150
aI210
aI300
aI420
aI4002
aI0
aI0
aI0
aI0
aI0
aI0
aI0
aI0
aI0
aI0
aa(lp201
I3
aI17037
aI5
aI5
aI5
aI5
aI5
aI5
aI5
aI10
aI5
aI10
aI10
aI10
aI20
aI30
aI30
aI60
aI70
aI110
aI150
aI210
aI300
aI420
aI4007
aI0
aI0
aI0
aI0
aI0
aI0
aI0
aI0
aI0
aI0
aa(lp202
I3
aI17032
aI5
aI5
aI5
aI5
aI5
aI5
aI5
aI10
aI5
aI10
aI10
aI10
aI20
aI30
aI30
aI60
aI70
aI110
aI150
aI210
aI300
aI420
aI4012
aI0
aI0
aI0
aI0
aI0
aI0
aI0
aI0
aI0
aI0
aa(lp203
I3
aI17027
aI5
aI5
aI5
aI5
aI5
aI5
aI5
aI10
aI5
aI10
aI10
aI10
aI20
aI30
aI30
aI60
aI70
aI110
aI150
aI210
aI300
aI420
aI4017
aI0
aI0
aI0
aI0
aI0
aI0
aI0
aI0
aI0
aI0
aa(lp204
I3
aI17022
aI5
aI5
aI5
aI5
aI5
aI5
aI5
aI10
aI5
aI10
aI10
aI10
aI20
aI30
aI30
aI60
aI70
aI110
aI150
aI210
aI300
aI420
aI4022
aI0
aI0
aI0
aI0
aI0
aI0
aI0
aI0
aI0
aI0
aa(lp205
I3
aI17017
aI5
aI5
aI5
aI5
aI5
aI5
aI5
aI10
aI5
aI10
aI10
aI10
aI20
aI30
aI30
aI60
aI70
aI110
aI150
aI210
aI300
aI420
aI4027
aI0
aI0
aI0
aI0
aI0
aI0
aI0
aI0
aI0
aI0
aa(lp206
I3
aI17012
aI5
aI5
aI5
aI5
aI5
aI5
aI5
aI10
aI5
aI10
aI10
aI10
aI20
aI30
aI30
aI60
aI70
aI110
aI150
aI210
aI300
aI420
aI4032
aI0
aI0
aI0
aI0
aI0
aI0
aI0
aI0
aI0
aI0
aa(lp207
I3
aI17007
aI5
aI5
aI5
aI5
aI5
aI5
aI5
aI10
aI5
aI10
aI10
aI10
aI20
aI30
aI30
aI60
aI70
aI110
aI150
aI210
aI300
aI420
aI4037
aI0
aI0
aI0
aI0
aI0
aI0
aI0
aI0
aI0
aI0
aa(lp208
I3
aI17002
aI5
aI5
aI5
aI5
aI5
aI5
aI5
aI10
aI5
aI10
aI10
aI10
aI20
aI30
aI30
aI60
aI70
aI110
aI150
aI210
aI300
aI420
aI4042
aI0
aI0
aI0
aI0
aI0
aI0
aI0
aI0
aI0
aI0
aa(lp209
I3
aI16997
aI5
aI5
aI5
aI5
aI5
aI5
aI5
aI10
aI5
aI10
aI10
aI10
aI20
aI30
aI30
aI60
aI70
aI110
aI150
aI210
aI300
aI420
aI4047
aI0
aI0
aI0
aI0
aI0
aI0
aI0
aI0
aI0
aI0
aa(lp210
I3
aI16992
aI5
aI5
aI5
aI5
aI5
aI5
aI5
aI10
aI5
aI10
aI10
aI10
aI20
aI30
aI30
aI60
aI70
aI110
aI150
aI210
aI300
aI420
aI4052
aI0
aI0
aI0
aI0
aI0
aI0
aI0
aI0
aI0
aI0
aa(lp211
I3
aI16987
aI5
aI5
aI5
aI5
aI5
aI5
aI5
aI10
aI5
aI10
aI10
aI10
aI20
aI30
aI30
aI60
aI70
aI110
aI150
aI210
aI300
aI420
aI4057
aI0
aI0
aI0
aI0
aI0
aI0
aI0
aI0
aI0
aI0
aa(lp212
I3
aI16982
aI5
aI5
aI5
aI5
aI5
aI5
aI5
aI10
aI5
aI10
aI10
aI10
aI20
aI30
aI30
aI60
aI70
aI110
aI150
aI210
aI300
aI420
aI4062
aI0
aI0
aI0
aI0
aI0
aI0
aI0
aI0
aI0
aI0
aa(lp213
I3
aI16977
aI5
aI5
aI5
aI5
aI5
aI5
aI5
aI10
aI5
aI10
aI10
aI10
aI20
aI30
aI30
aI60
aI70
aI110
aI150
aI210
aI300
aI420
aI588
aI3479
aI0
aI0
aI0
aI0
aI0
aI0
aI0
aI0
aI0
aa(lp214
I3
aI16972
aI5
aI5
aI5
aI5
aI5
aI5
aI5
aI10
aI5
aI10
aI10
aI10
aI20
aI30
aI30
aI60
aI70
aI110
aI150
aI210
aI300
aI420
aI589
aI3483
aI0
aI0
aI0
aI0
aI0
aI0
aI0
aI0
aI0
aa(lp215
I3
aI16967
aI5
aI5
aI5
aI5
aI5
aI5
aI5
aI10
aI5
aI10
aI10
aI10
aI20
aI30
aI30
aI60
aI70
aI110
aI150
aI210
aI300
aI420
aI590
aI3487
aI0
aI0
aI0
aI0
aI0
aI0
aI0
aI0
aI0
aa(lp216
I3
aI16962
aI5
aI5
aI5
aI5
aI5
aI5
aI5
aI10
aI5
aI10
aI10
aI10
aI20
aI30
aI30
aI60
aI70
aI110
aI150
aI210
aI300
aI420
aI591
aI3491
aI0
aI0
aI0
aI0
aI0
aI0
aI0
aI0
aI0
aa(lp217
I3
aI16957
aI5
aI5
aI5
aI5
aI5
aI5
aI5
aI10
aI5
aI10
aI10
aI10
aI20
aI30
aI30
aI60
aI70
aI110
aI150
aI210
aI300
aI420
aI592
aI3495
aI0
aI0
aI0
aI0
aI0
aI0
aI0
aI0
aI0
aa(lp218
I3
aI16952
aI5
aI5
aI5
aI5
aI5
aI5
aI5
aI10
aI5
aI10
aI10
aI10
aI20
aI30
aI30
aI60
aI70
aI110
aI150
aI210
aI300
aI420
aI593
aI3499
aI0
aI0
aI0
aI0
aI0
aI0
aI0
aI0
aI0
aa(lp219
I3
aI16947
aI5
aI5
aI5
aI5
aI5
aI5
aI5
aI10
aI5
aI10
aI10
aI10
aI20
aI30
aI30
aI60
aI70
aI110
aI150
aI210
aI300
aI420
aI594
aI3503
aI0
aI0
aI0
aI0
aI0
aI0
aI0
aI0
aI0
aa(lp220
I3
aI16942
aI5
aI5
aI5
aI5
aI5
aI5
aI5
aI10
aI5
aI10
aI10
aI10
aI20
aI30
aI30
aI60
aI70
aI110
aI150
aI210
aI300
aI420
aI595
aI3507
aI0
aI0
aI0
aI0
aI0
aI0
aI0
aI0
aI0
aa(lp221
I3
aI16937
aI5
aI5
aI5
aI5
aI5
aI5
aI5
aI10
aI5
aI10
aI10
aI10
aI20
aI30
aI30
aI60
aI70
aI110
aI150
aI210
aI300
aI420
aI596
aI3511
aI0
aI0
aI0
aI0
aI0
aI0
aI0
aI0
aI0
aa(lp222
I3
aI16932
aI5
aI5
aI5
aI5
aI5
aI5
aI5
aI10
aI5
aI10
aI10
aI10
aI20
aI30
aI30
aI60
aI70
aI110
aI150
aI210
aI300
aI420
aI597
aI3515
aI0
aI0
aI0
aI0
aI0
aI0
aI0
aI0
aI0
aa(lp223
I3
aI16927
aI5
aI5
aI5
aI5
aI5
aI5
aI5
aI10
aI5
aI10
aI10
aI10
aI20
aI30
aI30
aI60
aI70
aI110
aI150
aI210
aI300
aI420
aI598
aI3519
aI0
aI0
aI0
aI0
aI0
aI0
aI0
aI0
aI0
aa(lp224
I3
aI16922
aI5
aI5
aI5
aI5
aI5
aI5
aI5
aI10
aI5
aI10
aI10
aI10
aI20
aI30
aI30
aI60
aI70
aI110
aI150
aI210
aI300
aI420
aI599
aI3523
aI0
aI0
aI0
aI0
aI0
aI0
aI0
aI0
aI0
aa(lp225
I3
aI16917
aI5
aI5
aI5
aI5
aI5
aI5
aI5
aI10
aI5
aI10
aI10
aI10
aI20
aI30
aI30
aI60
aI70
aI110
aI150
aI210
aI300
aI420
aI600
aI3527
aI0
aI0
aI0
aI0
aI0
aI0
aI0
aI0
aI0
aa(lp226
I3
aI16912
aI5
aI5
aI5
aI5
aI5
aI5
aI5
aI10
aI5
aI10
aI10
aI10
aI20
aI30
aI30
aI60
aI70
aI110
aI150
aI210
aI300
aI420
aI600
aI3532
aI0
aI0
aI0
aI0
aI0
aI0
aI0
aI0
aI0
aa(lp227
I3
aI16907
aI5
aI5
aI5
aI5
aI5
aI5
aI5
aI10
aI5
aI10
aI10
aI10
aI20
aI30
aI30
aI60
aI70
aI110
aI150
aI210
aI300
aI420
aI600
aI3537
aI0
aI0
aI0
aI0
aI0
aI0
aI0
aI0
aI0
aa(lp228
I3
aI16902
aI5
aI5
aI5
aI5
aI5
aI5
aI5
aI10
aI5
aI10
aI10
aI10
aI20
aI30
aI30
aI60
aI70
aI110
aI150
aI210
aI300
aI420
aI600
aI3542
aI0
aI0
aI0
aI0
aI0
aI0
aI0
aI0
aI0
aa(lp229
I3
aI16897
aI5
aI5
aI5
aI5
aI5
aI5
aI5
aI10
aI5
aI10
aI10
aI10
aI20
aI30
aI30
aI60
aI70
aI110
aI150
aI210
aI300
aI420
aI600
aI3547
aI0
aI0
aI0
aI0
aI0
aI0
aI0
aI0
aI0
aa(lp230
I3
aI16892
aI5
aI5
aI5
aI5
aI5
aI5
aI5
aI10
aI5
aI10
aI10
aI10
aI20
aI30
aI30
aI60
aI70
aI110
aI150
aI210
aI300
aI420
aI600
aI3552
aI0
aI0
aI0
aI0
aI0
aI0
aI0
aI0
aI0
aa(lp231
I3
aI16887
aI5
aI5
aI5
aI5
aI5
aI5
aI5
aI10
aI5
aI10
aI10
aI10
aI20
aI30
aI30
aI60
aI70
aI110
aI150
aI210
aI300
aI420
aI600
aI3557
aI0
aI0
aI0
aI0
aI0
aI0
aI0
aI0
aI0
aa(lp232
I3
aI16882
aI5
aI5
aI5
aI5
aI5
aI5
aI5
aI10
aI5
aI10
aI10
aI10
aI20
aI30
aI30
aI60
aI70
aI110
aI150
aI210
aI300
aI420
aI600
aI3562
aI0
aI0
aI0
aI0
aI0
aI0
aI0
aI0
aI0
aa(lp233
I3
aI16877
aI5
aI5
aI5
aI5
aI5
aI5
aI5
aI10
aI5
aI10
aI10
aI10
aI20
aI30
aI30
aI60
aI70
aI110
aI150
aI210
aI300
aI420
aI600
aI3567
aI0
aI0
aI0
aI0
aI0
aI0
aI0
aI0
aI0
aa(lp234
I3
aI16872
aI5
aI5
aI5
aI5
aI5
aI5
aI5
aI10
aI5
aI10
aI10
aI10
aI20
aI30
aI30
aI60
aI70
aI110
aI150
aI210
aI300
aI420
aI600
aI3572
aI0
aI0
aI0
aI0
aI0
aI0
aI0
aI0
aI0
aa(lp235
I3
aI16867
aI5
aI5
aI5
aI5
aI5
aI5
aI5
aI10
aI5
aI10
aI10
aI10
aI20
aI30
aI30
aI60
aI70
aI110
aI150
aI210
aI300
aI420
aI600
aI3577
aI0
aI0
aI0
aI0
aI0
aI0
aI0
aI0
aI0
aa(lp236
I3
aI16862
aI5
aI5
aI5
aI5
aI5
aI5
aI5
aI10
aI5
aI10
aI10
aI10
aI20
aI30
aI30
aI60
aI70
aI110
aI150
aI210
aI300
aI420
aI600
aI3582
aI0
aI0
aI0
aI0
aI0
aI0
aI0
aI0
aI0
aa(lp237
I3
aI16857
aI5
aI5
aI5
aI5
aI5
aI5
aI5
aI10
aI5
aI10
aI10
aI10
aI20
aI30
aI30
aI60
aI70
aI110
aI150
aI210
aI300
aI420
aI600
aI3587
aI0
aI0
aI0
aI0
aI0
aI0
aI0
aI0
aI0
aa(lp238
I3
aI16852
aI5
aI5
aI5
aI5
aI5
aI5
aI5
aI10
aI5
aI10
aI10
aI10
aI20
aI30
aI30
aI60
aI70
aI110
aI150
aI210
aI300
aI420
aI600
aI3592
aI0
aI0
aI0
aI0
aI0
aI0
aI0
aI0
aI0
aa(lp239
I3
aI16847
aI5
aI5
aI5
aI5
aI5
aI5
aI5
aI10
aI5
aI10
aI10
aI10
aI20
aI30
aI30
aI60
aI70
aI110
aI150
aI210
aI300
aI420
aI600
aI3597
aI0
aI0
aI0
aI0
aI0
aI0
aI0
aI0
aI0
aa(lp240
I3
aI16842
aI5
aI5
aI5
aI5
aI5
aI5
aI5
aI10
aI5
aI10
aI10
aI10
aI20
aI30
aI30
aI60
aI70
aI110
aI150
aI210
aI300
aI420
aI600
aI3602
aI0
aI0
aI0
aI0
aI0
aI0
aI0
aI0
aI0
aa(lp241
I3
aI16837
aI5
aI5
aI5
aI5
aI5
aI5
aI5
aI10
aI5
aI10
aI10
aI10
aI20
aI30
aI30
aI60
aI70
aI110
aI150
aI210
aI300
aI420
aI600
aI3607
aI0
aI0
aI0
aI0
aI0
aI0
aI0
aI0
aI0
aa(lp242
I3
aI16832
aI5
aI5
aI5
aI5
aI5
aI5
aI5
aI10
aI5
aI10
aI10
aI10
aI20
aI30
aI30
aI60
aI70
aI110
aI150
aI210
aI300
aI420
aI600
aI3612
aI0
aI0
aI0
aI0
aI0
aI0
aI0
aI0
aI0
aa(lp243
I3
aI16827
aI5
aI5
aI5
aI5
aI5
aI5
aI5
aI10
aI5
aI10
aI10
aI10
aI20
aI30
aI30
aI60
aI70
aI110
aI150
aI210
aI300
aI420
aI600
aI3617
aI0
aI0
aI0
aI0
aI0
aI0
aI0
aI0
aI0
aa(lp244
I3
aI16822
aI5
aI5
aI5
aI5
aI5
aI5
aI5
aI10
aI5
aI10
aI10
aI10
aI20
aI30
aI30
aI60
aI70
aI110
aI150
aI210
aI300
aI420
aI600
aI3622
aI0
aI0
aI0
aI0
aI0
aI0
aI0
aI0
aI0
aa(lp245
I3
aI16817
aI5
aI5
aI5
aI5
aI5
aI5
aI5
aI10
aI5
aI10
aI10
aI10
aI20
aI30
aI30
aI60
aI70
aI110
aI150
aI210
aI300
aI420
aI600
aI3627
aI0
aI0
aI0
aI0
aI0
aI0
aI0
aI0
aI0
aa(lp246
I3
aI16812
aI5
aI5
aI5
aI5
aI5
aI5
aI5
aI10
aI5
aI10
aI10
aI10
aI20
aI30
aI30
aI60
aI70
aI110
aI150
aI210
aI300
aI420
aI600
aI3632
aI0
aI0
aI0
aI0
aI0
aI0
aI0
aI0
aI0
aa(lp247
I3
aI16807
aI5
aI5
aI5
aI5
aI5
aI5
aI5
aI10
aI5
aI10
aI10
aI10
aI20
aI30
aI30
aI60
aI70
aI110
aI150
aI210
aI300
aI420
aI600
aI3637
aI0
aI0
aI0
aI0
aI0
aI0
aI0
aI0
aI0
aa(lp248
I3
aI16802
aI5
aI5
aI5
aI5
aI5
aI5
aI5
aI10
aI5
aI10
aI10
aI10
aI20
aI30
aI30
aI60
aI70
aI110
aI150
aI210
aI300
aI420
aI600
aI3642
aI0
aI0
aI0
aI0
aI0
aI0
aI0
aI0
aI0
aa(lp249
I3
aI16797
aI5
aI5
aI5
aI5
aI5
aI5
aI5
aI10
aI5
aI10
aI10
aI10
aI20
aI30
aI30
aI60
aI70
aI110
aI150
aI210
aI300
aI420
aI600
aI3647
aI0
aI0
aI0
aI0
aI0
aI0
aI0
aI0
aI0
aa(lp250
I3
aI16792
aI5
aI5
aI5
aI5
aI5
aI5
aI5
aI10
aI5
aI10
aI10
aI10
aI20
aI30
aI30
aI60
aI70
aI110
aI150
aI210
aI300
aI420
aI600
aI3652
aI0
aI0
aI0
aI0
aI0
aI0
aI0
aI0
aI0
aa(lp251
I3
aI16787
aI5
aI5
aI5
aI5
aI5
aI5
aI5
aI10
aI5
aI10
aI10
aI10
aI20
aI30
aI30
aI60
aI70
aI110
aI150
aI210
aI300
aI420
aI600
aI3657
aI0
aI0
aI0
aI0
aI0
aI0
aI0
aI0
aI0
aa(lp252
I3
aI16782
aI5
aI5
aI5
aI5
aI5
aI5
aI5
aI10
aI5
aI10
aI10
aI10
aI20
aI30
aI30
aI60
aI70
aI110
aI150
aI210
aI300
aI420
aI600
aI3662
aI0
aI0
aI0
aI0
aI0
aI0
aI0
aI0
aI0
aa(lp253
I3
aI16777
aI5
aI5
aI5
aI5
aI5
aI5
aI5
aI10
aI5
aI10
aI10
aI10
aI20
aI30
aI30
aI60
aI70
aI110
aI150
aI210
aI300
aI420
aI600
aI3667
aI0
aI0
aI0
aI0
aI0
aI0
aI0
aI0
aI0
aa(lp254
I3
aI16772
aI5
aI5
aI5
aI5
aI5
aI5
aI5
aI10
aI5
aI10
aI10
aI10
aI20
aI30
aI30
aI60
aI70
aI110
aI150
aI210
aI300
aI420
aI600
aI3672
aI0
aI0
aI0
aI0
aI0
aI0
aI0
aI0
aI0
aa(lp255
I3
aI16767
aI5
aI5
aI5
aI5
aI5
aI5
aI5
aI10
aI5
aI10
aI10
aI10
aI20
aI30
aI30
aI60
aI70
aI110
aI150
aI210
aI300
aI420
aI600
aI3677
aI0
aI0
aI0
aI0
aI0
aI0
aI0
aI0
aI0
aa(lp256
I3
aI16762
aI5
aI5
aI5
aI5
aI5
aI5
aI5
aI10
aI5
aI10
aI10
aI10
aI20
aI30
aI30
aI60
aI70
aI110
aI150
aI210
aI300
aI420
aI600
aI3682
aI0
aI0
aI0
aI0
aI0
aI0
aI0
aI0
aI0
aa(lp257
I3
aI16757
aI5
aI5
aI5
aI5
aI5
aI5
aI5
aI10
aI5
aI10
aI10
aI10
aI20
aI30
aI30
aI60
aI70
aI110
aI150
aI210
aI300
aI420
aI600
aI3687
aI0
aI0
aI0
aI0
aI0
aI0
aI0
aI0
aI0
aa(lp258
I3
aI16752
aI5
aI5
aI5
aI5
aI5
aI5
aI5
aI10
aI5
aI10
aI10
aI10
aI20
aI30
aI30
aI60
aI70
aI110
aI150
aI210
aI300
aI420
aI600
aI3692
aI0
aI0
aI0
aI0
aI0
aI0
aI0
aI0
aI0
aa(lp259
I3
aI16747
aI5
aI5
aI5
aI5
aI5
aI5
aI5
aI10
aI5
aI10
aI10
aI10
aI20
aI30
aI30
aI60
aI70
aI110
aI150
aI210
aI300
aI420
aI600
aI3697
aI0
aI0
aI0
aI0
aI0
aI0
aI0
aI0
aI0
aa(lp260
I3
aI16742
aI5
aI5
aI5
aI5
aI5
aI5
aI5
aI10
aI5
aI10
aI10
aI10
aI20
aI30
aI30
aI60
aI70
aI110
aI150
aI210
aI300
aI420
aI600
aI3702
aI0
aI0
aI0
aI0
aI0
aI0
aI0
aI0
aI0
aa(lp261
I3
aI16737
aI5
aI5
aI5
aI5
aI5
aI5
aI5
aI10
aI5
aI10
aI10
aI10
aI20
aI30
aI30
aI60
aI70
aI110
aI150
aI210
aI300
aI420
aI600
aI3707
aI0
aI0
aI0
aI0
aI0
aI0
aI0
aI0
aI0
aa(lp262
I3
aI16732
aI5
aI5
aI5
aI5
aI5
aI5
aI5
aI10
aI5
aI10
aI10
aI10
aI20
aI30
aI30
aI60
aI70
aI110
aI150
aI210
aI300
aI420
aI600
aI3712
aI0
aI0
aI0
aI0
aI0
aI0
aI0
aI0
aI0
aa(lp263
I3
aI16727
aI5
aI5
aI5
aI5
aI5
aI5
aI5
aI10
aI5
aI10
aI10
aI10
aI20
aI30
aI30
aI60
aI70
aI110
aI150
aI210
aI300
aI420
aI600
aI3717
aI0
aI0
aI0
aI0
aI0
aI0
aI0
aI0
aI0
aa(lp264
I3
aI16722
aI5
aI5
aI5
aI5
aI5
aI5
aI5
aI10
aI5
aI10
aI10
aI10
aI20
aI30
aI30
aI60
aI70
aI110
aI150
aI210
aI300
aI420
aI600
aI3722
aI0
aI0
aI0
aI0
aI0
aI0
aI0
aI0
aI0
aa(lp265
I3
aI16717
aI5
aI5
aI5
aI5
aI5
aI5
aI5
aI10
aI5
aI10
aI10
aI10
aI20
aI30
aI30
aI60
aI70
aI110
aI150
aI210
aI300
aI420
aI600
aI3727
aI0
aI0
aI0
aI0
aI0
aI0
aI0
aI0
aI0
aa(lp266
I3
aI16712
aI5
aI5
aI5
aI5
aI5
aI5
aI5
aI10
aI5
aI10
aI10
aI10
aI20
aI30
aI30
aI60
aI70
aI110
aI150
aI210
aI300
aI420
aI600
aI3732
aI0
aI0
aI0
aI0
aI0
aI0
aI0
aI0
aI0
aa(lp267
I3
aI16707
aI5
aI5
aI5
aI5
aI5
aI5
aI5
aI10
aI5
aI10
aI10
aI10
aI20
aI30
aI30
aI60
aI70
aI110
aI150
aI210
aI300
aI420
aI600
aI3737
aI0
aI0
aI0
aI0
aI0
aI0
aI0
aI0
aI0
aa(lp268
I3
aI16702
aI5
aI5
aI5
aI5
aI5
aI5
aI5
aI10
aI5
aI10
aI10
aI10
aI20
aI30
aI30
aI60
aI70
aI110
aI150
aI210
aI300
aI420
aI600
aI3742
aI0
aI0
aI0
aI0
aI0
aI0
aI0
aI0
aI0
aa(lp269
I3
aI16697
aI5
aI5
aI5
aI5
aI5
aI5
aI5
aI10
aI5
aI10
aI10
aI10
aI20
aI30
aI30
aI60
aI70
aI110
aI150
aI210
aI300
aI420
aI600
aI3747
aI0
aI0
aI0
aI0
aI0
aI0
aI0
aI0
aI0
aa(lp270
I3
aI16692
aI5
aI5
aI5
aI5
aI5
aI5
aI5
aI10
aI5
aI10
aI10
aI10
aI20
aI30
aI30
aI60
aI70
aI110
aI150
aI210
aI300
aI420
aI600
aI3752
aI0
aI0
aI0
aI0
aI0
aI0
aI0
aI0
aI0
aa(lp271
I3
aI16687
aI5
aI5
aI5
aI5
aI5
aI5
aI5
aI10
aI5
aI10
aI10
aI10
aI20
aI30
aI30
aI60
aI70
aI110
aI150
aI210
aI300
aI420
aI600
aI3757
aI0
aI0
aI0
aI0
aI0
aI0
aI0
aI0
aI0
aa(lp272
I3
aI16682
aI5
aI5
aI5
aI5
aI5
aI5
aI5
aI10
aI5
aI10
aI10
aI10
aI20
aI30
aI30
aI60
aI70
aI110
aI150
aI210
aI300
aI420
aI600
aI3762
aI0
aI0
aI0
aI0
aI0
aI0
aI0
aI0
aI0
aa(lp273
I3
aI16677
aI5
aI5
aI5
aI5
aI5
aI5
aI5
aI10
aI5
aI10
aI10
aI10
aI20
aI30
aI30
aI60
aI70
aI110
aI150
aI210
aI300
aI420
aI600
aI3767
aI0
aI0
aI0
aI0
aI0
aI0
aI0
aI0
aI0
aa(lp274
I3
aI16672
aI5
aI5
aI5
aI5
aI5
aI5
aI5
aI10
aI5
aI10
aI10
aI10
aI20
aI30
aI30
aI60
aI70
aI110
aI150
aI210
aI300
aI420
aI600
aI3772
aI0
aI0
aI0
aI0
aI0
aI0
aI0
aI0
aI0
aa(lp275
I3
aI16667
aI5
aI5
aI5
aI5
aI5
aI5
aI5
aI10
aI5
aI10
aI10
aI10
aI20
aI30
aI30
aI60
aI70
aI110
aI150
aI210
aI300
aI420
aI600
aI3777
aI0
aI0
aI0
aI0
aI0
aI0
aI0
aI0
aI0
aa(lp276
I3
aI16662
aI5
aI5
aI5
aI5
aI5
aI5
aI5
aI10
aI5
aI10
aI10
aI10
aI20
aI30
aI30
aI60
aI70
aI110
aI150
aI210
aI300
aI420
aI600
aI3782
aI0
aI0
aI0
aI0
aI0
aI0
aI0
aI0
aI0
aa(lp277
I3
aI16657
aI5
aI5
aI5
aI5
aI5
aI5
aI5
aI10
aI5
aI10
aI10
aI10
aI20
aI30
aI30
aI60
aI70
aI110
aI150
aI210
aI300
aI420
aI600
aI3787
aI0
aI0
aI0
aI0
aI0
aI0
aI0
aI0
aI0
aa(lp278
I3
aI16652
aI5
aI5
aI5
aI5
aI5
aI5
aI5
aI10
aI5
aI10
aI10
aI10
aI20
aI30
aI30
aI60
aI70
aI110
aI150
aI210
aI300
aI420
aI600
aI3792
aI0
aI0
aI0
aI0
aI0
aI0
aI0
aI0
aI0
aa(lp279
I3
aI16647
aI5
aI5
aI5
aI5
aI5
aI5
aI5
aI10
aI5
aI10
aI10
aI10
aI20
aI30
aI30
aI60
aI70
aI110
aI150
aI210
aI300
aI420
aI600
aI3797
aI0
aI0
aI0
aI0
aI0
aI0
aI0
aI0
aI0
aa(lp280
I3
aI16642
aI5
aI5
aI5
aI5
aI5
aI5
aI5
aI10
aI5
aI10
aI10
aI10
aI20
aI30
aI30
aI60
aI70
aI110
aI150
aI210
aI300
aI420
aI600
aI3802
aI0
aI0
aI0
aI0
aI0
aI0
aI0
aI0
aI0
aa(lp281
I3
aI16637
aI5
aI5
aI5
aI5
aI5
aI5
aI5
aI10
aI5
aI10
aI10
aI10
aI20
aI30
aI30
aI60
aI70
aI110
aI150
aI210
aI300
aI420
aI600
aI3807
aI0
aI0
aI0
aI0
aI0
aI0
aI0
aI0
aI0
aa(lp282
I3
aI16632
aI5
aI5
aI5
aI5
aI5
aI5
aI5
aI10
aI5
aI10
aI10
aI10
aI20
aI30
aI30
aI60
aI70
aI110
aI150
aI210
aI300
aI420
aI600
aI3812
aI0
aI0
aI0
aI0
aI0
aI0
aI0
aI0
aI0
aa(lp283
I3
aI16627
aI5
aI5
aI5
aI5
aI5
aI5
aI5
aI10
aI5
aI10
aI10
aI10
aI20
aI30
aI30
aI60
aI70
aI110
aI150
aI210
aI300
aI420
aI600
aI3817
aI0
aI0
aI0
aI0
aI0
aI0
aI0
aI0
aI0
aa(lp284
I3
aI16622
aI5
aI5
aI5
aI5
aI5
aI5
aI5
aI10
aI5
aI10
aI10
aI10
aI20
aI30
aI30
aI60
aI70
aI110
aI150
aI210
aI300
aI420
aI600
aI3822
aI0
aI0
aI0
aI0
aI0
aI0
aI0
aI0
aI0
aa(lp285
I3
aI16617
aI5
aI5
aI5
aI5
aI5
aI5
aI5
aI10
aI5
aI10
aI10
aI10
aI20
aI30
aI30
aI60
aI70
aI110
aI150
aI210
aI300
aI420
aI600
aI3827
aI0
aI0
aI0
aI0
aI0
aI0
aI0
aI0
aI0
aa(lp286
I3
aI16612
aI5
aI5
aI5
aI5
aI5
aI5
aI5
aI10
aI5
aI10
aI10
aI10
aI20
aI30
aI30
aI60
aI70
aI110
aI150
aI210
aI300
aI420
aI600
aI3832
aI0
aI0
aI0
aI0
aI0
aI0
aI0
aI0
aI0
aa(lp287
I3
aI16607
aI5
aI5
aI5
aI5
aI5
aI5
aI5
aI10
aI5
aI10
aI10
aI10
aI20
aI30
aI30
aI60
aI70
aI110
aI150
aI210
aI300
aI420
aI600
aI3837
aI0
aI0
aI0
aI0
aI0
aI0
aI0
aI0
aI0
aa(lp288
I3
aI16602
aI5
aI5
aI5
aI5
aI5
aI5
aI5
aI10
aI5
aI10
aI10
aI10
aI20
aI30
aI30
aI60
aI70
aI110
aI150
aI210
aI300
aI420
aI600
aI3842
aI0
aI0
aI0
aI0
aI0
aI0
aI0
aI0
aI0
aa(lp289
I3
aI16597
aI5
aI5
aI5
aI5
aI5
aI5
aI5
aI10
aI5
aI10
aI10
aI10
aI20
aI30
aI30
aI60
aI70
aI110
aI150
aI210
aI300
aI420
aI600
aI3847
aI0
aI0
aI0
aI0
aI0
aI0
aI0
aI0
aI0
aa(lp290
I3
aI16592
aI5
aI5
aI5
aI5
aI5
aI5
aI5
aI10
aI5
aI10
aI10
aI10
aI20
aI30
aI30
aI60
aI70
aI110
aI150
aI210
aI300
aI420
aI600
aI3852
aI0
aI0
aI0
aI0
aI0
aI0
aI0
aI0
aI0
aa(lp291
I3
aI16587
aI5
aI5
aI5
aI5
aI5
aI5
aI5
aI10
aI5
aI10
aI10
aI10
aI20
aI30
aI30
aI60
aI70
aI110
aI150
aI210
aI300
aI420
aI600
aI3857
aI0
aI0
aI0
aI0
aI0
aI0
aI0
aI0
aI0
aa(lp292
I3
aI16582
aI5
aI5
aI5
aI5
aI5
aI5
aI5
aI10
aI5
aI10
aI10
aI10
aI20
aI30
aI30
aI60
aI70
aI110
aI150
aI210
aI300
aI420
aI600
aI3862
aI0
aI0
aI0
aI0
aI0
aI0
aI0
aI0
aI0
aa(lp293
I3
aI16577
aI5
aI5
aI5
aI5
aI5
aI5
aI5
aI10
aI5
aI10
aI10
aI10
aI20
aI30
aI30
aI60
aI70
aI110
aI150
aI210
aI300
aI420
aI600
aI3867
aI0
aI0
aI0
aI0
aI0
aI0
aI0
aI0
aI0
aa(lp294
I3
aI16572
aI5
aI5
aI5
aI5
aI5
aI5
aI5
aI10
aI5
aI10
aI10
aI10
aI20
aI30
aI30
aI60
aI70
aI110
aI150
aI210
aI300
aI420
aI600
aI3872
aI0
aI0
aI0
aI0
aI0
aI0
aI0
aI0
aI0
aa(lp295
I3
aI16567
aI5
aI5
aI5
aI5
aI5
aI5
aI5
aI10
aI5
aI10
aI10
aI10
aI20
aI30
aI30
aI60
aI70
aI110
aI150
aI210
aI300
aI420
aI600
aI3877
aI0
aI0
aI0
aI0
aI0
aI0
aI0
aI0
aI0
aa(lp296
I3
aI16562
aI5
aI5
aI5
aI5
aI5
aI5
aI5
aI10
aI5
aI10
aI10
aI10
aI20
aI30
aI30
aI60
aI70
aI110
aI150
aI210
aI300
aI420
aI600
aI3882
aI0
aI0
aI0
aI0
aI0
aI0
aI0
aI0
aI0
aa(lp297
I3
aI16557
aI5
aI5
aI5
aI5
aI5
aI5
aI5
aI10
aI5
aI10
aI10
aI10
aI20
aI30
aI30
aI60
aI70
aI110
aI150
aI210
aI300
aI420
aI600
aI3887
aI0
aI0
aI0
aI0
aI0
aI0
aI0
aI0
aI0
aa(lp298
I3
aI16552
aI5
aI5
aI5
aI5
aI5
aI5
aI5
aI10
aI5
aI10
aI10
aI10
aI20
aI30
aI30
aI60
aI70
aI110
aI150
aI210
aI300
aI420
aI600
aI838
aI3054
aI0
aI0
aI0
aI0
aI0
aI0
aI0
aI0
aa(lp299
I3
aI16547
aI5
aI5
aI5
aI5
aI5
aI5
aI5
aI10
aI5
aI10
aI10
aI10
aI20
aI30
aI30
aI60
aI70
aI110
aI150
aI210
aI300
aI420
aI600
aI839
aI3058
aI0
aI0
aI0
aI0
aI0
aI0
aI0
aI0
aa(lp300
I3
aI16542
aI5
aI5
aI5
aI5
aI5
aI5
aI5
aI10
aI5
aI10
aI10
aI10
aI20
aI30
aI30
aI60
aI70
aI110
aI150
aI210
aI300
aI420
aI600
aI840
aI3062
aI0
aI0
aI0
aI0
aI0
aI0
aI0
aI0
aa(lp301
I3
aI16537
aI5
aI5
aI5
aI5
aI5
aI5
aI5
aI10
aI5
aI10
aI10
aI10
aI20
aI30
aI30
aI60
aI70
aI110
aI150
aI210
aI300
aI420
aI600
aI841
aI3066
aI0
aI0
aI0
aI0
aI0
aI0
aI0
aI0
aa(lp302
I3
aI16532
aI5
aI5
aI5
aI5
aI5
aI5
aI5
aI10
aI5
aI10
aI10
aI10
aI20
aI30
aI30
aI60
aI70
aI110
aI150
aI210
aI300
aI420
aI600
aI842
aI3070
aI0
aI0
aI0
aI0
aI0
aI0
aI0
aI0
aa(lp303
I3
aI16527
aI5
aI5
aI5
aI5
aI5
aI5
aI5
aI10
aI5
aI10
aI10
aI10
aI20
aI30
aI30
aI60
aI70
aI110
aI150
aI210
aI300
aI420
aI600
aI843
aI3074
aI0
aI0
aI0
aI0
aI0
aI0
aI0
aI0
aa(lp304
I3
aI16522
aI5
aI5
aI5
aI5
aI5
aI5
aI5
aI10
aI5
aI10
aI10
aI10
aI20
aI30
aI30
aI60
aI70
aI110
aI150
aI210
aI300
aI420
aI600
aI844
aI3078
aI0
aI0
aI0
aI0
aI0
aI0
aI0
aI0
aa(lp305
I3
aI16517
aI5
aI5
aI5
aI5
aI5
aI5
aI5
aI10
aI5
aI10
aI10
aI10
aI20
aI30
aI30
aI60
aI70
aI110
aI150
aI210
aI300
aI420
aI600
aI845
aI3082
aI0
aI0
aI0
aI0
aI0
aI0
aI0
aI0
aa(lp306
I3
aI16512
aI5
aI5
aI5
aI5
aI5
aI5
aI5
aI10
aI5
aI10
aI10
aI10
aI20
aI30
aI30
aI60
aI70
aI110
aI150
aI210
aI300
aI420
aI600
aI846
aI3086
aI0
aI0
aI0
aI0
aI0
aI0
aI0
aI0
aa(lp307
I3
aI16507
aI5
aI5
aI5
aI5
aI5
aI5
aI5
aI10
aI5
aI10
aI10
aI10
aI20
aI30
aI30
aI60
aI70
aI110
aI150
aI210
aI300
aI420
aI600
aI847
aI3090
aI0
aI0
aI0
aI0
aI0
aI0
aI0
aI0
aa(lp308
I3
aI16502
aI5
aI5
aI5
aI5
aI5
aI5
aI5
aI10
aI5
aI10
aI10
aI10
aI20
aI30
aI30
aI60
aI70
aI110
aI150
aI210
aI300
aI420
aI600
aI848
aI3094
aI0
aI0
aI0
aI0
aI0
aI0
aI0
aI0
aa(lp309
I3
aI16497
aI5
aI5
aI5
aI5
aI5
aI5
aI5
aI10
aI5
aI10
aI10
aI10
aI20
aI30
aI30
aI60
aI70
aI110
aI150
aI210
aI300
aI420
aI600
aI849
aI3098
aI0
aI0
aI0
aI0
aI0
aI0
aI0
aI0
aa(lp310
I3
aI16492
aI5
aI5
aI5
aI5
aI5
aI5
aI5
aI10
aI5
aI10
aI10
aI10
aI20
aI30
aI30
aI60
aI70
aI110
aI150
aI210
aI300
aI420
aI600
aI850
aI3102
aI0
aI0
aI0
aI0
aI0
aI0
aI0
aI0
aa(lp311
I3
aI16487
aI5
aI5
aI5
aI5
aI5
aI5
aI5
aI10
aI5
aI10
aI10
aI10
aI20
aI30
aI30
aI60
aI70
aI110
aI150
aI210
aI300
aI420
aI600
aI850
aI3107
aI0
aI0
aI0
aI0
aI0
aI0
aI0
aI0
aa(lp312
I3
aI16482
aI5
aI5
aI5
aI5
aI5
aI5
aI5
aI10
aI5
aI10
aI10
aI10
aI20
aI30
aI30
aI60
aI70
aI110
aI150
aI210
aI300
aI420
aI600
aI850
aI3112
aI0
aI0
aI0
aI0
aI0
aI0
aI0
aI0
aa(lp313
I3
aI16477
aI5
aI5
aI5
aI5
aI5
aI5
aI5
aI10
aI5
aI10
aI10
aI10
aI20
aI30
aI30
aI60
aI70
aI110
aI150
aI210
aI300
aI420
aI600
aI850
aI3117
aI0
aI0
aI0
aI0
aI0
aI0
aI0
aI0
aa(lp314
I3
aI16472
aI5
aI5
aI5
aI5
aI5
aI5
aI5
aI10
aI5
aI10
aI10
aI10
aI20
aI30
aI30
aI60
aI70
aI110
aI150
aI210
aI300
aI420
aI600
aI850
aI3122
aI0
aI0
aI0
aI0
aI0
aI0
aI0
aI0
aa(lp315
I3
aI16467
aI5
aI5
aI5
aI5
aI5
aI5
aI5
aI10
aI5
aI10
aI10
aI10
aI20
aI30
aI30
aI60
aI70
aI110
aI150
aI210
aI300
aI420
aI600
aI850
aI3127
aI0
aI0
aI0
aI0
aI0
aI0
aI0
aI0
aa(lp316
I3
aI16462
aI5
aI5
aI5
aI5
aI5
aI5
aI5
aI10
aI5
aI10
aI10
aI10
aI20
aI30
aI30
aI60
aI70
aI110
aI150
aI210
aI300
aI420
aI600
aI850
aI3132
aI0
aI0
aI0
aI0
aI0
aI0
aI0
aI0
aa(lp317
I3
aI16457
aI5
aI5
aI5
aI5
aI5
aI5
aI5
aI10
aI5
aI10
aI10
aI10
aI20
aI30
aI30
aI60
aI70
aI110
aI150
aI210
aI300
aI420
aI600
aI850
aI3137
aI0
aI0
aI0
aI0
aI0
aI0
aI0
aI0
aa(lp318
I3
aI16452
aI5
aI5
aI5
aI5
aI5
aI5
aI5
aI10
aI5
aI10
aI10
aI10
aI20
aI30
aI30
aI60
aI70
aI110
aI150
aI210
aI300
aI420
aI600
aI850
aI3142
aI0
aI0
aI0
aI0
aI0
aI0
aI0
aI0
aa(lp319
I3
aI16447
aI5
aI5
aI5
aI5
aI5
aI5
aI5
aI10
aI5
aI10
aI10
aI10
aI20
aI30
aI30
aI60
aI70
aI110
aI150
aI210
aI300
aI420
aI600
aI850
aI3147
aI0
aI0
aI0
aI0
aI0
aI0
aI0
aI0
aa(lp320
I3
aI16442
aI5
aI5
aI5
aI5
aI5
aI5
aI5
aI10
aI5
aI10
aI10
aI10
aI20
aI30
aI30
aI60
aI70
aI110
aI150
aI210
aI300
aI420
aI600
aI850
aI3152
aI0
aI0
aI0
aI0
aI0
aI0
aI0
aI0
aa(lp321
I3
aI16437
aI5
aI5
aI5
aI5
aI5
aI5
aI5
aI10
aI5
aI10
aI10
aI10
aI20
aI30
aI30
aI60
aI70
aI110
aI150
aI210
aI300
aI420
aI600
aI850
aI3157
aI0
aI0
aI0
aI0
aI0
aI0
aI0
aI0
aa(lp322
I3
aI16432
aI5
aI5
aI5
aI5
aI5
aI5
aI5
aI10
aI5
aI10
aI10
aI10
aI20
aI30
aI30
aI60
aI70
aI110
aI150
aI210
aI300
aI420
aI600
aI850
aI3162
aI0
aI0
aI0
aI0
aI0
aI0
aI0
aI0
aa(lp323
I3
aI16427
aI5
aI5
aI5
aI5
aI5
aI5
aI5
aI10
aI5
aI10
aI10
aI10
aI20
aI30
aI30
aI60
aI70
aI110
aI150
aI210
aI300
aI420
aI600
aI850
aI3167
aI0
aI0
aI0
aI0
aI0
aI0
aI0
aI0
aa(lp324
I3
aI16422
aI5
aI5
aI5
aI5
aI5
aI5
aI5
aI10
aI5
aI10
aI10
aI10
aI20
aI30
aI30
aI60
aI70
aI110
aI150
aI210
aI300
aI420
aI600
aI850
aI3172
aI0
aI0
aI0
aI0
aI0
aI0
aI0
aI0
aa(lp325
I3
aI16417
aI5
aI5
aI5
aI5
aI5
aI5
aI5
aI10
aI5
aI10
aI10
aI10
aI20
aI30
aI30
aI60
aI70
aI110
aI150
aI210
aI300
aI420
aI600
aI850
aI3177
aI0
aI0
aI0
aI0
aI0
aI0
aI0
aI0
aa(lp326
I3
aI16412
aI5
aI5
aI5
aI5
aI5
aI5
aI5
aI10
aI5
aI10
aI10
aI10
aI20
aI30
aI30
aI60
aI70
aI110
aI150
aI210
aI300
aI420
aI600
aI850
aI3182
aI0
aI0
aI0
aI0
aI0
aI0
aI0
aI0
aa(lp327
I3
aI16407
aI5
aI5
aI5
aI5
aI5
aI5
aI5
aI10
aI5
aI10
aI10
aI10
aI20
aI30
aI30
aI60
aI70
aI110
aI150
aI210
aI300
aI420
aI600
aI850
aI3187
aI0
aI0
aI0
aI0
aI0
aI0
aI0
aI0
aa(lp328
I3
aI16402
aI5
aI5
aI5
aI5
aI5
aI5
aI5
aI10
aI5
aI10
aI10
aI10
aI20
aI30
aI30
aI60
aI70
aI110
aI150
aI210
aI300
aI420
aI600
aI850
aI3192
aI0
aI0
aI0
aI0
aI0
aI0
aI0
aI0
aa(lp329
I3
aI16397
aI5
aI5
aI5
aI5
aI5
aI5
aI5
aI10
aI5
aI10
aI10
aI10
aI20
aI30
aI30
aI60
aI70
aI110
aI150
aI210
aI300
aI420
aI600
aI850
aI3197
aI0
aI0
aI0
aI0
aI0
aI0
aI0
aI0
aa(lp330
I3
aI16392
aI5
aI5
aI5
aI5
aI5
aI5
aI5
aI10
aI5
aI10
aI10
aI10
aI20
aI30
aI30
aI60
aI70
aI110
aI150
aI210
aI300
aI420
aI600
aI850
aI3202
aI0
aI0
aI0
aI0
aI0
aI0
aI0
aI0
aa(lp331
I3
aI16387
aI5
aI5
aI5
aI5
aI5
aI5
aI5
aI10
aI5
aI10
aI10
aI10
aI20
aI30
aI30
aI60
aI70
aI110
aI150
aI210
aI300
aI420
aI600
aI850
aI3207
aI0
aI0
aI0
aI0
aI0
aI0
aI0
aI0
aa(lp332
I3
aI16382
aI5
aI5
aI5
aI5
aI5
aI5
aI5
aI10
aI5
aI10
aI10
aI10
aI20
aI30
aI30
aI60
aI70
aI110
aI150
aI210
aI300
aI420
aI600
aI850
aI3212
aI0
aI0
aI0
aI0
aI0
aI0
aI0
aI0
aa(lp333
I3
aI16377
aI5
aI5
aI5
aI5
aI5
aI5
aI5
aI10
aI5
aI10
aI10
aI10
aI20
aI30
aI30
aI60
aI70
aI110
aI150
aI210
aI300
aI420
aI600
aI850
aI3217
aI0
aI0
aI0
aI0
aI0
aI0
aI0
aI0
aa(lp334
I3
aI16372
aI5
aI5
aI5
aI5
aI5
aI5
aI5
aI10
aI5
aI10
aI10
aI10
aI20
aI30
aI30
aI60
aI70
aI110
aI150
aI210
aI300
aI420
aI600
aI850
aI3222
aI0
aI0
aI0
aI0
aI0
aI0
aI0
aI0
aa(lp335
I3
aI16367
aI5
aI5
aI5
aI5
aI5
aI5
aI5
aI10
aI5
aI10
aI10
aI10
aI20
aI30
aI30
aI60
aI70
aI110
aI150
aI210
aI300
aI420
aI600
aI850
aI3227
aI0
aI0
aI0
aI0
aI0
aI0
aI0
aI0
aa(lp336
I3
aI16362
aI5
aI5
aI5
aI5
aI5
aI5
aI5
aI10
aI5
aI10
aI10
aI10
aI20
aI30
aI30
aI60
aI70
aI110
aI150
aI210
aI300
aI420
aI600
aI850
aI3232
aI0
aI0
aI0
aI0
aI0
aI0
aI0
aI0
aa(lp337
I3
aI16357
aI5
aI5
aI5
aI5
aI5
aI5
aI5
aI10
aI5
aI10
aI10
aI10
aI20
aI30
aI30
aI60
aI70
aI110
aI150
aI210
aI300
aI420
aI600
aI850
aI3237
aI0
aI0
aI0
aI0
aI0
aI0
aI0
aI0
aa(lp338
I3
aI16352
aI5
aI5
aI5
aI5
aI5
aI5
aI5
aI10
aI5
aI10
aI10
aI10
aI20
aI30
aI30
aI60
aI70
aI110
aI150
aI210
aI300
aI420
aI600
aI850
aI3242
aI0
aI0
aI0
aI0
aI0
aI0
aI0
aI0
aa(lp339
I3
aI16347
aI5
aI5
aI5
aI5
aI5
aI5
aI5
aI10
aI5
aI10
aI10
aI10
aI20
aI30
aI30
aI60
aI70
aI110
aI150
aI210
aI300
aI420
aI600
aI850
aI3247
aI0
aI0
aI0
aI0
aI0
aI0
aI0
aI0
aa(lp340
I3
aI16342
aI5
aI5
aI5
aI5
aI5
aI5
aI5
aI10
aI5
aI10
aI10
aI10
aI20
aI30
aI30
aI60
aI70
aI110
aI150
aI210
aI300
aI420
aI600
aI850
aI3252
aI0
aI0
aI0
aI0
aI0
aI0
aI0
aI0
aa(lp341
I3
aI16337
aI5
aI5
aI5
aI5
aI5
aI5
aI5
aI10
aI5
aI10
aI10
aI10
aI20
aI30
aI30
aI60
aI70
aI110
aI150
aI210
aI300
aI420
aI600
aI850
aI3257
aI0
aI0
aI0
aI0
aI0
aI0
aI0
aI0
aa(lp342
I3
aI16332
aI5
aI5
aI5
aI5
aI5
aI5
aI5
aI10
aI5
aI10
aI10
aI10
aI20
aI30
aI30
aI60
aI70
aI110
aI150
aI210
aI300
aI420
aI600
aI850
aI3262
aI0
aI0
aI0
aI0
aI0
aI0
aI0
aI0
aa(lp343
I3
aI16327
aI5
aI5
aI5
aI5
aI5
aI5
aI5
aI10
aI5
aI10
aI10
aI10
aI20
aI30
aI30
aI60
aI70
aI110
aI150
aI210
aI300
aI420
aI600
aI850
aI3267
aI0
aI0
aI0
aI0
aI0
aI0
aI0
aI0
aa(lp344
I3
aI16322
aI5
aI5
aI5
aI5
aI5
aI5
aI5
aI10
aI5
aI10
aI10
aI10
aI20
aI30
aI30
aI60
aI70
aI110
aI150
aI210
aI300
aI420
aI600
aI850
aI3272
aI0
aI0
aI0
aI0
aI0
aI0
aI0
aI0
aa(lp345
I3
aI16317
aI5
aI5
aI5
aI5
aI5
aI5
aI5
aI10
aI5
aI10
aI10
aI10
aI20
aI30
aI30
aI60
aI70
aI110
aI150
aI210
aI300
aI420
aI600
aI850
aI3277
aI0
aI0
aI0
aI0
aI0
aI0
aI0
aI0
aa(lp346
I3
aI16312
aI5
aI5
aI5
aI5
aI5
aI5
aI5
aI10
aI5
aI10
aI10
aI10
aI20
aI30
aI30
aI60
aI70
aI110
aI150
aI210
aI300
aI420
aI600
aI850
aI3282
aI0
aI0
aI0
aI0
aI0
aI0
aI0
aI0
aa(lp347
I3
aI16307
aI5
aI5
aI5
aI5
aI5
aI5
aI5
aI10
aI5
aI10
aI10
aI10
aI20
aI30
aI30
aI60
aI70
aI110
aI150
aI210
aI300
aI420
aI600
aI850
aI3287
aI0
aI0
aI0
aI0
aI0
aI0
aI0
aI0
aa(lp348
I3
aI16302
aI5
aI5
aI5
aI5
aI5
aI5
aI5
aI10
aI5
aI10
aI10
aI10
aI20
aI30
aI30
aI60
aI70
aI110
aI150
aI210
aI300
aI420
aI600
aI850
aI3292
aI0
aI0
aI0
aI0
aI0
aI0
aI0
aI0
aa(lp349
I3
aI16297
aI5
aI5
aI5
aI5
aI5
aI5
aI5
aI10
aI5
aI10
aI10
aI10
aI20
aI30
aI30
aI60
aI70
aI110
aI150
aI210
aI300
aI420
aI600
aI850
aI3297
aI0
aI0
aI0
aI0
aI0
aI0
aI0
aI0
aa(lp350
I3
aI16292
aI5
aI5
aI5
aI5
aI5
aI5
aI5
aI10
aI5
aI10
aI10
aI10
aI20
aI30
aI30
aI60
aI70
aI110
aI150
aI210
aI300
aI420
aI600
aI850
aI3302
aI0
aI0
aI0
aI0
aI0
aI0
aI0
aI0
aa(lp351
I3
aI16287
aI5
aI5
aI5
aI5
aI5
aI5
aI5
aI10
aI5
aI10
aI10
aI10
aI20
aI30
aI30
aI60
aI70
aI110
aI150
aI210
aI300
aI420
aI600
aI850
aI3307
aI0
aI0
aI0
aI0
aI0
aI0
aI0
aI0
aa(lp352
I3
aI16282
aI5
aI5
aI5
aI5
aI5
aI5
aI5
aI10
aI5
aI10
aI10
aI10
aI20
aI30
aI30
aI60
aI70
aI110
aI150
aI210
aI300
aI420
aI600
aI850
aI3312
aI0
aI0
aI0
aI0
aI0
aI0
aI0
aI0
aa(lp353
I3
aI16277
aI5
aI5
aI5
aI5
aI5
aI5
aI5
aI10
aI5
aI10
aI10
aI10
aI20
aI30
aI30
aI60
aI70
aI110
aI150
aI210
aI300
aI420
aI600
aI850
aI3317
aI0
aI0
aI0
aI0
aI0
aI0
aI0
aI0
aa(lp354
I3
aI16272
aI5
aI5
aI5
aI5
aI5
aI5
aI5
aI10
aI5
aI10
aI10
aI10
aI20
aI30
aI30
aI60
aI70
aI110
aI150
aI210
aI300
aI420
aI600
aI850
aI3322
aI0
aI0
aI0
aI0
aI0
aI0
aI0
aI0
aa(lp355
I3
aI16267
aI5
aI5
aI5
aI5
aI5
aI5
aI5
aI10
aI5
aI10
aI10
aI10
aI20
aI30
aI30
aI60
aI70
aI110
aI150
aI210
aI300
aI420
aI600
aI850
aI3327
aI0
aI0
aI0
aI0
aI0
aI0
aI0
aI0
aa(lp356
I3
aI16262
aI5
aI5
aI5
aI5
aI5
aI5
aI5
aI10
aI5
aI10
aI10
aI10
aI20
aI30
aI30
aI60
aI70
aI110
aI150
aI210
aI300
aI420
aI600
aI850
aI3332
aI0
aI0
aI0
aI0
aI0
aI0
aI0
aI0
aa(lp357
I3
aI16257
aI5
aI5
aI5
aI5
aI5
aI5
aI5
aI10
aI5
aI10
aI10
aI10
aI20
aI30
aI30
aI60
aI70
aI110
aI150
aI210
aI300
aI420
aI600
aI850
aI3337
aI0
aI0
aI0
aI0
aI0
aI0
aI0
aI0
aa(lp358
I3
aI16252
aI5
aI5
aI5
aI5
aI5
aI5
aI5
aI10
aI5
aI10
aI10
aI10
aI20
aI30
aI30
aI60
aI70
aI110
aI150
aI210
aI300
aI420
aI600
aI850
aI3342
aI0
aI0
aI0
aI0
aI0
aI0
aI0
aI0
aa(lp359
I3
aI16247
aI5
aI5
aI5
aI5
aI5
aI5
aI5
aI10
aI5
aI10
aI10
aI10
aI20
aI30
aI30
aI60
aI70
aI110
aI150
aI210
aI300
aI420
aI600
aI850
aI3347
aI0
aI0
aI0
aI0
aI0
aI0
aI0
aI0
aa(lp360
I3
aI16242
aI5
aI5
aI5
aI5
aI5
aI5
aI5
aI10
aI5
aI10
aI10
aI10
aI20
aI30
aI30
aI60
aI70
aI110
aI150
aI210
aI300
aI420
aI600
aI850
aI3352
aI0
aI0
aI0
aI0
aI0
aI0
aI0
aI0
aa(lp361
I3
aI16237
aI5
aI5
aI5
aI5
aI5
aI5
aI5
aI10
aI5
aI10
aI10
aI10
aI20
aI30
aI30
aI60
aI70
aI110
aI150
aI210
aI300
aI420
aI600
aI850
aI3357
aI0
aI0
aI0
aI0
aI0
aI0
aI0
aI0
aa(lp362
I3
aI16232
aI5
aI5
aI5
aI5
aI5
aI5
aI5
aI10
aI5
aI10
aI10
aI10
aI20
aI30
aI30
aI60
aI70
aI110
aI150
aI210
aI300
aI420
aI600
aI850
aI3362
aI0
aI0
aI0
aI0
aI0
aI0
aI0
aI0
aa(lp363
I3
aI16227
aI5
aI5
aI5
aI5
aI5
aI5
aI5
aI10
aI5
aI10
aI10
aI10
aI20
aI30
aI30
aI60
aI70
aI110
aI150
aI210
aI300
aI420
aI600
aI850
aI3367
aI0
aI0
aI0
aI0
aI0
aI0
aI0
aI0
aa(lp364
I3
aI16222
aI5
aI5
aI5
aI5
aI5
aI5
aI5
aI10
aI5
aI10
aI10
aI10
aI20
aI30
aI30
aI60
aI70
aI110
aI150
aI210
aI300
aI420
aI600
aI850
aI3372
aI0
aI0
aI0
aI0
aI0
aI0
aI0
aI0
aa(lp365
I3
aI16217
aI5
aI5
aI5
aI5
aI5
aI5
aI5
aI10
aI5
aI10
aI10
aI10
aI20
aI30
aI30
aI60
aI70
aI110
aI150
aI210
aI300
aI420
aI600
aI850
aI3377
aI0
aI0
aI0
aI0
aI0
aI0
aI0
aI0
aa(lp366
I3
aI16212
aI5
aI5
aI5
aI5
aI5
aI5
aI5
aI10
aI5
aI10
aI10
aI10
aI20
aI30
aI30
aI60
aI70
aI110
aI150
aI210
aI300
aI420
aI600
aI850
aI3382
aI0
aI0
aI0
aI0
aI0
aI0
aI0
aI0
aa(lp367
I3
aI16207
aI5
aI5
aI5
aI5
aI5
aI5
aI5
aI10
aI5
aI10
aI10
aI10
aI20
aI30
aI30
aI60
aI70
aI110
aI150
aI210
aI300
aI420
aI600
aI850
aI3387
aI0
aI0
aI0
aI0
aI0
aI0
aI0
aI0
aa(lp368
I3
aI16202
aI5
aI5
aI5
aI5
aI5
aI5
aI5
aI10
aI5
aI10
aI10
aI10
aI20
aI30
aI30
aI60
aI70
aI110
aI150
aI210
aI300
aI420
aI600
aI850
aI3392
aI0
aI0
aI0
aI0
aI0
aI0
aI0
aI0
aa(lp369
I3
aI16197
aI5
aI5
aI5
aI5
aI5
aI5
aI5
aI10
aI5
aI10
aI10
aI10
aI20
aI30
aI30
aI60
aI70
aI110
aI150
aI210
aI300
aI420
aI600
aI850
aI3397
aI0
aI0
aI0
aI0
aI0
aI0
aI0
aI0
aa(lp370
I3
aI16192
aI5
aI5
aI5
aI5
aI5
aI5
aI5
aI10
aI5
aI10
aI10
aI10
aI20
aI30
aI30
aI60
aI70
aI110
aI150
aI210
aI300
aI420
aI600
aI850
aI3402
aI0
aI0
aI0
aI0
aI0
aI0
aI0
aI0
aa(lp371
I3
aI16187
aI5
aI5
aI5
aI5
aI5
aI5
aI5
aI10
aI5
aI10
aI10
aI10
aI20
aI30
aI30
aI60
aI70
aI110
aI150
aI210
aI300
aI420
aI600
aI850
aI3407
aI0
aI0
aI0
aI0
aI0
aI0
aI0
aI0
aa(lp372
I3
aI16182
aI5
aI5
aI5
aI5
aI5
aI5
aI5
aI10
aI5
aI10
aI10
aI10
aI20
aI30
aI30
aI60
aI70
aI110
aI150
aI210
aI300
aI420
aI600
aI850
aI3412
aI0
aI0
aI0
aI0
aI0
aI0
aI0
aI0
aa(lp373
I3
aI16177
aI5
aI5
aI5
aI5
aI5
aI5
aI5
aI10
aI5
aI10
aI10
aI10
aI20
aI30
aI30
aI60
aI70
aI110
aI150
aI210
aI300
aI420
aI600
aI850
aI3417
aI0
aI0
aI0
aI0
aI0
aI0
aI0
aI0
aa(lp374
I3
aI16172
aI5
aI5
aI5
aI5
aI5
aI5
aI5
aI10
aI5
aI10
aI10
aI10
aI20
aI30
aI30
aI60
aI70
aI110
aI150
aI210
aI300
aI420
aI600
aI850
aI3422
aI0
aI0
aI0
aI0
aI0
aI0
aI0
aI0
aa(lp375
I3
aI16167
aI5
aI5
aI5
aI5
aI5
aI5
aI5
aI10
aI5
aI10
aI10
aI10
aI20
aI30
aI30
aI60
aI70
aI110
aI150
aI210
aI300
aI420
aI600
aI850
aI3427
aI0
aI0
aI0
aI0
aI0
aI0
aI0
aI0
aa(lp376
I3
aI16162
aI5
aI5
aI5
aI5
aI5
aI5
aI5
aI10
aI5
aI10
aI10
aI10
aI20
aI30
aI30
aI60
aI70
aI110
aI150
aI210
aI300
aI420
aI600
aI850
aI3432
aI0
aI0
aI0
aI0
aI0
aI0
aI0
aI0
aa(lp377
I3
aI16157
aI5
aI5
aI5
aI5
aI5
aI5
aI5
aI10
aI5
aI10
aI10
aI10
aI20
aI30
aI30
aI60
aI70
aI110
aI150
aI210
aI300
aI420
aI600
aI850
aI3437
aI0
aI0
aI0
aI0
aI0
aI0
aI0
aI0
aa(lp378
I3
aI16152
aI5
aI5
aI5
aI5
aI5
aI5
aI5
aI10
aI5
aI10
aI10
aI10
aI20
aI30
aI30
aI60
aI70
aI110
aI150
aI210
aI300
aI420
aI600
aI850
aI3442
aI0
aI0
aI0
aI0
aI0
aI0
aI0
aI0
aa(lp379
I3
aI16147
aI5
aI5
aI5
aI5
aI5
aI5
aI5
aI10
aI5
aI10
aI10
aI10
aI20
aI30
aI30
aI60
aI70
aI110
aI150
aI210
aI300
aI420
aI600
aI850
aI3447
aI0
aI0
aI0
aI0
aI0
aI0
aI0
aI0
aa(lp380
I3
aI16142
aI5
aI5
aI5
aI5
aI5
aI5
aI5
aI10
aI5
aI10
aI10
aI10
aI20
aI30
aI30
aI60
aI70
aI110
aI150
aI210
aI300
aI420
aI600
aI850
aI3452
aI0
aI0
aI0
aI0
aI0
aI0
aI0
aI0
aa(lp381
I3
aI16137
aI5
aI5
aI5
aI5
aI5
aI5
aI5
aI10
aI5
aI10
aI10
aI10
aI20
aI30
aI30
aI60
aI70
aI110
aI150
aI210
aI300
aI420
aI600
aI850
aI3457
aI0
aI0
aI0
aI0
aI0
aI0
aI0
aI0
aa(lp382
I3
aI16132
aI5
aI5
aI5
aI5
aI5
aI5
aI5
aI10
aI5
aI10
aI10
aI10
aI20
aI30
aI30
aI60
aI70
aI110
aI150
aI210
aI300
aI420
aI600
aI850
aI3462
aI0
aI0
aI0
aI0
aI0
aI0
aI0
aI0
aa(lp383
I3
aI16127
aI5
aI5
aI5
aI5
aI5
aI5
aI5
aI10
aI5
aI10
aI10
aI10
aI20
aI30
aI30
aI60
aI70
aI110
aI150
aI210
aI300
aI420
aI600
aI850
aI3467
aI0
aI0
aI0
aI0
aI0
aI0
aI0
aI0
aa(lp384
I3
aI16122
aI5
aI5
aI5
aI5
aI5
aI5
aI5
aI10
aI5
aI10
aI10
aI10
aI20
aI30
aI30
aI60
aI70
aI110
aI150
aI210
aI300
aI420
aI600
aI850
aI3472
aI0
aI0
aI0
aI0
aI0
aI0
aI0
aI0
aa(lp385
I3
aI16117
aI5
aI5
aI5
aI5
aI5
aI5
aI5
aI10
aI5
aI10
aI10
aI10
aI20
aI30
aI30
aI60
aI70
aI110
aI150
aI210
aI300
aI420
aI600
aI850
aI3477
aI0
aI0
aI0
aI0
aI0
aI0
aI0
aI0
aa(lp386
I3
aI16112
aI5
aI5
aI5
aI5
aI5
aI5
aI5
aI10
aI5
aI10
aI10
aI10
aI20
aI30
aI30
aI60
aI70
aI110
aI150
aI210
aI300
aI420
aI600
aI850
aI3482
aI0
aI0
aI0
aI0
aI0
aI0
aI0
aI0
aa(lp387
I3
aI16107
aI5
aI5
aI5
aI5
aI5
aI5
aI5
aI10
aI5
aI10
aI10
aI10
aI20
aI30
aI30
aI60
aI70
aI110
aI150
aI210
aI300
aI420
aI600
aI850
aI3487
aI0
aI0
aI0
aI0
aI0
aI0
aI0
aI0
aa(lp388
I3
aI16102
aI5
aI5
aI5
aI5
aI5
aI5
aI5
aI10
aI5
aI10
aI10
aI10
aI20
aI30
aI30
aI60
aI70
aI110
aI150
aI210
aI300
aI420
aI600
aI850
aI3492
aI0
aI0
aI0
aI0
aI0
aI0
aI0
aI0
aa(lp389
I3
aI16097
aI5
aI5
aI5
aI5
aI5
aI5
aI5
aI10
aI5
aI10
aI10
aI10
aI20
aI30
aI30
aI60
aI70
aI110
aI150
aI210
aI300
aI420
aI600
aI850
aI3497
aI0
aI0
aI0
aI0
aI0
aI0
aI0
aI0
aa(lp390
I3
aI16092
aI5
aI5
aI5
aI5
aI5
aI5
aI5
aI10
aI5
aI10
aI10
aI10
aI20
aI30
aI30
aI60
aI70
aI110
aI150
aI210
aI300
aI420
aI600
aI850
aI3502
aI0
aI0
aI0
aI0
aI0
aI0
aI0
aI0
aa(lp391
I3
aI16087
aI5
aI5
aI5
aI5
aI5
aI5
aI5
aI10
aI5
aI10
aI10
aI10
aI20
aI30
aI30
aI60
aI70
aI110
aI150
aI210
aI300
aI420
aI600
aI850
aI3507
aI0
aI0
aI0
aI0
aI0
aI0
aI0
aI0
aa(lp392
I3
aI16082
aI5
aI5
aI5
aI5
aI5
aI5
aI5
aI10
aI5
aI10
aI10
aI10
aI20
aI30
aI30
aI60
aI70
aI110
aI150
aI210
aI300
aI420
aI600
aI850
aI3512
aI0
aI0
aI0
aI0
aI0
aI0
aI0
aI0
aa(lp393
I3
aI16077
aI5
aI5
aI5
aI5
aI5
aI5
aI5
aI10
aI5
aI10
aI10
aI10
aI20
aI30
aI30
aI60
aI70
aI110
aI150
aI210
aI300
aI420
aI600
aI850
aI3517
aI0
aI0
aI0
aI0
aI0
aI0
aI0
aI0
aa(lp394
I3
aI16072
aI5
aI5
aI5
aI5
aI5
aI5
aI5
aI10
aI5
aI10
aI10
aI10
aI20
aI30
aI30
aI60
aI70
aI110
aI150
aI210
aI300
aI420
aI600
aI850
aI3522
aI0
aI0
aI0
aI0
aI0
aI0
aI0
aI0
aa(lp395
I3
aI16067
aI5
aI5
aI5
aI5
aI5
aI5
aI5
aI10
aI5
aI10
aI10
aI10
aI20
aI30
aI30
aI60
aI70
aI110
aI150
aI210
aI300
aI420
aI600
aI850
aI3527
aI0
aI0
aI0
aI0
aI0
aI0
aI0
aI0
aa(lp396
I3
aI16062
aI5
aI5
aI5
aI5
aI5
aI5
aI5
aI10
aI5
aI10
aI10
aI10
aI20
aI30
aI30
aI60
aI70
aI110
aI150
aI210
aI300
aI420
aI600
aI850
aI3532
aI0
aI0
aI0
aI0
aI0
aI0
aI0
aI0
aa(lp397
I3
aI16057
aI5
aI5
aI5
aI5
aI5
aI5
aI5
aI10
aI5
aI10
aI10
aI10
aI20
aI30
aI30
aI60
aI70
aI110
aI150
aI210
aI300
aI420
aI600
aI850
aI3537
aI0
aI0
aI0
aI0
aI0
aI0
aI0
aI0
aa(lp398
I3
aI16052
aI5
aI5
aI5
aI5
aI5
aI5
aI5
aI10
aI5
aI10
aI10
aI10
aI20
aI30
aI30
aI60
aI70
aI110
aI150
aI210
aI300
aI420
aI600
aI850
aI3542
aI0
aI0
aI0
aI0
aI0
aI0
aI0
aI0
aa(lp399
I3
aI16047
aI5
aI5
aI5
aI5
aI5
aI5
aI5
aI10
aI5
aI10
aI10
aI10
aI20
aI30
aI30
aI60
aI70
aI110
aI150
aI210
aI300
aI420
aI600
aI850
aI3547
aI0
aI0
aI0
aI0
aI0
aI0
aI0
aI0
aa(lp400
I3
aI16042
aI5
aI5
aI5
aI5
aI5
aI5
aI5
aI10
aI5
aI10
aI10
aI10
aI20
aI30
aI30
aI60
aI70
aI110
aI150
aI210
aI300
aI420
aI600
aI850
aI3552
aI0
aI0
aI0
aI0
aI0
aI0
aI0
aI0
aa(lp401
I3
aI16037
aI5
aI5
aI5
aI5
aI5
aI5
aI5
aI10
aI5
aI10
aI10
aI10
aI20
aI30
aI30
aI60
aI70
aI110
aI150
aI210
aI300
aI420
aI600
aI850
aI3557
aI0
aI0
aI0
aI0
aI0
aI0
aI0
aI0
aa(lp402
I3
aI16032
aI5
aI5
aI5
aI5
aI5
aI5
aI5
aI10
aI5
aI10
aI10
aI10
aI20
aI30
aI30
aI60
aI70
aI110
aI150
aI210
aI300
aI420
aI600
aI850
aI3562
aI0
aI0
aI0
aI0
aI0
aI0
aI0
aI0
aa(lp403
I3
aI16027
aI5
aI5
aI5
aI5
aI5
aI5
aI5
aI10
aI5
aI10
aI10
aI10
aI20
aI30
aI30
aI60
aI70
aI110
aI150
aI210
aI300
aI420
aI600
aI850
aI3567
aI0
aI0
aI0
aI0
aI0
aI0
aI0
aI0
aa(lp404
I3
aI16022
aI5
aI5
aI5
aI5
aI5
aI5
aI5
aI10
aI5
aI10
aI10
aI10
aI20
aI30
aI30
aI60
aI70
aI110
aI150
aI210
aI300
aI420
aI600
aI850
aI3572
aI0
aI0
aI0
aI0
aI0
aI0
aI0
aI0
aa(lp405
I3
aI16017
aI5
aI5
aI5
aI5
aI5
aI5
aI5
aI10
aI5
aI10
aI10
aI10
aI20
aI30
aI30
aI60
aI70
aI110
aI150
aI210
aI300
aI420
aI600
aI850
aI3577
aI0
aI0
aI0
aI0
aI0
aI0
aI0
aI0
aa(lp406
I3
aI16012
aI5
aI5
aI5
aI5
aI5
aI5
aI5
aI10
aI5
aI10
aI10
aI10
aI20
aI30
aI30
aI60
aI70
aI110
aI150
aI210
aI300
aI420
aI600
aI850
aI3582
aI0
aI0
aI0
aI0
aI0
aI0
aI0
aI0
aa(lp407
I3
aI16007
aI5
aI5
aI5
aI5
aI5
aI5
aI5
aI10
aI5
aI10
aI10
aI10
aI20
aI30
aI30
aI60
aI70
aI110
aI150
aI210
aI300
aI420
aI600
aI850
aI3587
aI0
aI0
aI0
aI0
aI0
aI0
aI0
aI0
aa(lp408
I3
aI16002
aI5
aI5
aI5
aI5
aI5
aI5
aI5
aI10
aI5
aI10
aI10
aI10
aI20
aI30
aI30
aI60
aI70
aI110
aI150
aI210
aI300
aI420
aI600
aI850
aI3592
aI0
aI0
aI0
aI0
aI0
aI0
aI0
aI0
aa(lp409
I3
aI15997
aI5
aI5
aI5
aI5
aI5
aI5
aI5
aI10
aI5
aI10
aI10
aI10
aI20
aI30
aI30
aI60
aI70
aI110
aI150
aI210
aI300
aI420
aI600
aI850
aI3597
aI0
aI0
aI0
aI0
aI0
aI0
aI0
aI0
aa(lp410
I3
aI15992
aI5
aI5
aI5
aI5
aI5
aI5
aI5
aI10
aI5
aI10
aI10
aI10
aI20
aI30
aI30
aI60
aI70
aI110
aI150
aI210
aI300
aI420
aI600
aI850
aI3602
aI0
aI0
aI0
aI0
aI0
aI0
aI0
aI0
aa(lp411
I3
aI15987
aI5
aI5
aI5
aI5
aI5
aI5
aI5
aI10
aI5
aI10
aI10
aI10
aI20
aI30
aI30
aI60
aI70
aI110
aI150
aI210
aI300
aI420
aI600
aI850
aI3607
aI0
aI0
aI0
aI0
aI0
aI0
aI0
aI0
aa(lp412
I3
aI15982
aI5
aI5
aI5
aI5
aI5
aI5
aI5
aI10
aI5
aI10
aI10
aI10
aI20
aI30
aI30
aI60
aI70
aI110
aI150
aI210
aI300
aI420
aI600
aI850
aI3612
aI0
aI0
aI0
aI0
aI0
aI0
aI0
aI0
aa(lp413
I3
aI15977
aI5
aI5
aI5
aI5
aI5
aI5
aI5
aI10
aI5
aI10
aI10
aI10
aI20
aI30
aI30
aI60
aI70
aI110
aI150
aI210
aI300
aI420
aI600
aI850
aI3617
aI0
aI0
aI0
aI0
aI0
aI0
aI0
aI0
aa(lp414
I3
aI15972
aI5
aI5
aI5
aI5
aI5
aI5
aI5
aI10
aI5
aI10
aI10
aI10
aI20
aI30
aI30
aI60
aI70
aI110
aI150
aI210
aI300
aI420
aI600
aI850
aI3622
aI0
aI0
aI0
aI0
aI0
aI0
aI0
aI0
aa(lp415
I3
aI15967
aI5
aI5
aI5
aI5
aI5
aI5
aI5
aI10
aI5
aI10
aI10
aI10
aI20
aI30
aI30
aI60
aI70
aI110
aI150
aI210
aI300
aI420
aI600
aI850
aI3627
aI0
aI0
aI0
aI0
aI0
aI0
aI0
aI0
aa(lp416
I3
aI15962
aI5
aI5
aI5
aI5
aI5
aI5
aI5
aI10
aI5
aI10
aI10
aI10
aI20
aI30
aI30
aI60
aI70
aI110
aI150
aI210
aI300
aI420
aI600
aI850
aI3632
aI0
aI0
aI0
aI0
aI0
aI0
aI0
aI0
aa(lp417
I3
aI15957
aI5
aI5
aI5
aI5
aI5
aI5
aI5
aI10
aI5
aI10
aI10
aI10
aI20
aI30
aI30
aI60
aI70
aI110
aI150
aI210
aI300
aI420
aI600
aI850
aI3637
aI0
aI0
aI0
aI0
aI0
aI0
aI0
aI0
aa(lp418
I3
aI15952
aI5
aI5
aI5
aI5
aI5
aI5
aI5
aI10
aI5
aI10
aI10
aI10
aI20
aI30
aI30
aI60
aI70
aI110
aI150
aI210
aI300
aI420
aI600
aI850
aI1188
aI2454
aI0
aI0
aI0
aI0
aI0
aI0
aI0
aa(lp419
I3
aI15947
aI5
aI5
aI5
aI5
aI5
aI5
aI5
aI10
aI5
aI10
aI10
aI10
aI20
aI30
aI30
aI60
aI70
aI110
aI150
aI210
aI300
aI420
aI600
aI850
aI1189
aI2458
aI0
aI0
aI0
aI0
aI0
aI0
aI0
aa(lp420
I3
aI15942
aI5
aI5
aI5
aI5
aI5
aI5
aI5
aI10
aI5
aI10
aI10
aI10
aI20
aI30
aI30
aI60
aI70
aI110
aI150
aI210
aI300
aI420
aI600
aI850
aI1190
aI2462
aI0
aI0
aI0
aI0
aI0
aI0
aI0
aa(lp421
I3
aI15937
aI5
aI5
aI5
aI5
aI5
aI5
aI5
aI10
aI5
aI10
aI10
aI10
aI20
aI30
aI30
aI60
aI70
aI110
aI150
aI210
aI300
aI420
aI600
aI850
aI1191
aI2466
aI0
aI0
aI0
aI0
aI0
aI0
aI0
aa(lp422
I3
aI15932
aI5
aI5
aI5
aI5
aI5
aI5
aI5
aI10
aI5
aI10
aI10
aI10
aI20
aI30
aI30
aI60
aI70
aI110
aI150
aI210
aI300
aI420
aI600
aI850
aI1192
aI2470
aI0
aI0
aI0
aI0
aI0
aI0
aI0
aa(lp423
I3
aI15927
aI5
aI5
aI5
aI5
aI5
aI5
aI5
aI10
aI5
aI10
aI10
aI10
aI20
aI30
aI30
aI60
aI70
aI110
aI150
aI210
aI300
aI420
aI600
aI850
aI1193
aI2474
aI0
aI0
aI0
aI0
aI0
aI0
aI0
aa(lp424
I3
aI15922
aI5
aI5
aI5
aI5
aI5
aI5
aI5
aI10
aI5
aI10
aI10
aI10
aI20
aI30
aI30
aI60
aI70
aI110
aI150
aI210
aI300
aI420
aI600
aI850
aI1194
aI2478
aI0
aI0
aI0
aI0
aI0
aI0
aI0
aa(lp425
I3
aI15917
aI5
aI5
aI5
aI5
aI5
aI5
aI5
aI10
aI5
aI10
aI10
aI10
aI20
aI30
aI30
aI60
aI70
aI110
aI150
aI210
aI300
aI420
aI600
aI850
aI1195
aI2482
aI0
aI0
aI0
aI0
aI0
aI0
aI0
aa(lp426
I3
aI15912
aI5
aI5
aI5
aI5
aI5
aI5
aI5
aI10
aI5
aI10
aI10
aI10
aI20
aI30
aI30
aI60
aI70
aI110
aI150
aI210
aI300
aI420
aI600
aI850
aI1196
aI2486
aI0
aI0
aI0
aI0
aI0
aI0
aI0
aa(lp427
I3
aI15907
aI5
aI5
aI5
aI5
aI5
aI5
aI5
aI10
aI5
aI10
aI10
aI10
aI20
aI30
aI30
aI60
aI70
aI110
aI150
aI210
aI300
aI420
aI600
aI850
aI1197
aI2490
aI0
aI0
aI0
aI0
aI0
aI0
aI0
aa(lp428
I3
aI15902
aI5
aI5
aI5
aI5
aI5
aI5
aI5
aI10
aI5
aI10
aI10
aI10
aI20
aI30
aI30
aI60
aI70
aI110
aI150
aI210
aI300
aI420
aI600
aI850
aI1198
aI2494
aI0
aI0
aI0
aI0
aI0
aI0
aI0
aa(lp429
I3
aI15897
aI5
aI5
aI5
aI5
aI5
aI5
aI5
aI10
aI5
aI10
aI10
aI10
aI20
aI30
aI30
aI60
aI70
aI110
aI150
aI210
aI300
aI420
aI600
aI850
aI1199
aI2498
aI0
aI0
aI0
aI0
aI0
aI0
aI0
aa(lp430
I3
aI15892
aI5
aI5
aI5
aI5
aI5
aI5
aI5
aI10
aI5
aI10
aI10
aI10
aI20
aI30
aI30
aI60
aI70
aI110
aI150
aI210
aI300
aI420
aI600
aI850
aI1200
aI2502
aI0
aI0
aI0
aI0
aI0
aI0
aI0
aa(lp431
I3
aI15887
aI5
aI5
aI5
aI5
aI5
aI5
aI5
aI10
aI5
aI10
aI10
aI10
aI20
aI30
aI30
aI60
aI70
aI110
aI150
aI210
aI300
aI420
aI600
aI850
aI1200
aI2507
aI0
aI0
aI0
aI0
aI0
aI0
aI0
aa(lp432
I3
aI15882
aI5
aI5
aI5
aI5
aI5
aI5
aI5
aI10
aI5
aI10
aI10
aI10
aI20
aI30
aI30
aI60
aI70
aI110
aI150
aI210
aI300
aI420
aI600
aI850
aI1200
aI2512
aI0
aI0
aI0
aI0
aI0
aI0
aI0
aa(lp433
I3
aI15877
aI5
aI5
aI5
aI5
aI5
aI5
aI5
aI10
aI5
aI10
aI10
aI10
aI20
aI30
aI30
aI60
aI70
aI110
aI150
aI210
aI300
aI420
aI600
aI850
aI1200
aI2517
aI0
aI0
aI0
aI0
aI0
aI0
aI0
aa(lp434
I3
aI15872
aI5
aI5
aI5
aI5
aI5
aI5
aI5
aI10
aI5
aI10
aI10
aI10
aI20
aI30
aI30
aI60
aI70
aI110
aI150
aI210
aI300
aI420
aI600
aI850
aI1200
aI2522
aI0
aI0
aI0
aI0
aI0
aI0
aI0
aa(lp435
I3
aI15867
aI5
aI5
aI5
aI5
aI5
aI5
aI5
aI10
aI5
aI10
aI10
aI10
aI20
aI30
aI30
aI60
aI70
aI110
aI150
aI210
aI300
aI420
aI600
aI850
aI1200
aI2527
aI0
aI0
aI0
aI0
aI0
aI0
aI0
aa(lp436
I3
aI15862
aI5
aI5
aI5
aI5
aI5
aI5
aI5
aI10
aI5
aI10
aI10
aI10
aI20
aI30
aI30
aI60
aI70
aI110
aI150
aI210
aI300
aI420
aI600
aI850
aI1200
aI2532
aI0
aI0
aI0
aI0
aI0
aI0
aI0
aa(lp437
I3
aI15857
aI5
aI5
aI5
aI5
aI5
aI5
aI5
aI10
aI5
aI10
aI10
aI10
aI20
aI30
aI30
aI60
aI70
aI110
aI150
aI210
aI300
aI420
aI600
aI850
aI1200
aI2537
aI0
aI0
aI0
aI0
aI0
aI0
aI0
aa(lp438
I3
aI15852
aI5
aI5
aI5
aI5
aI5
aI5
aI5
aI10
aI5
aI10
aI10
aI10
aI20
aI30
aI30
aI60
aI70
aI110
aI150
aI210
aI300
aI420
aI600
aI850
aI1200
aI2542
aI0
aI0
aI0
aI0
aI0
aI0
aI0
aa(lp439
I3
aI15847
aI5
aI5
aI5
aI5
aI5
aI5
aI5
aI10
aI5
aI10
aI10
aI10
aI20
aI30
aI30
aI60
aI70
aI110
aI150
aI210
aI300
aI420
aI600
aI850
aI1200
aI2547
aI0
aI0
aI0
aI0
aI0
aI0
aI0
aa(lp440
I3
aI15842
aI5
aI5
aI5
aI5
aI5
aI5
aI5
aI10
aI5
aI10
aI10
aI10
aI20
aI30
aI30
aI60
aI70
aI110
aI150
aI210
aI300
aI420
aI600
aI850
aI1200
aI2552
aI0
aI0
aI0
aI0
aI0
aI0
aI0
aa(lp441
I3
aI15837
aI5
aI5
aI5
aI5
aI5
aI5
aI5
aI10
aI5
aI10
aI10
aI10
aI20
aI30
aI30
aI60
aI70
aI110
aI150
aI210
aI300
aI420
aI600
aI850
aI1200
aI2557
aI0
aI0
aI0
aI0
aI0
aI0
aI0
aa(lp442
I3
aI15832
aI5
aI5
aI5
aI5
aI5
aI5
aI5
aI10
aI5
aI10
aI10
aI10
aI20
aI30
aI30
aI60
aI70
aI110
aI150
aI210
aI300
aI420
aI600
aI850
aI1200
aI2562
aI0
aI0
aI0
aI0
aI0
aI0
aI0
aa(lp443
I3
aI15827
aI5
aI5
aI5
aI5
aI5
aI5
aI5
aI10
aI5
aI10
aI10
aI10
aI20
aI30
aI30
aI60
aI70
aI110
aI150
aI210
aI300
aI420
aI600
aI850
aI1200
aI2567
aI0
aI0
aI0
aI0
aI0
aI0
aI0
aa(lp444
I3
aI15822
aI5
aI5
aI5
aI5
aI5
aI5
aI5
aI10
aI5
aI10
aI10
aI10
aI20
aI30
aI30
aI60
aI70
aI110
aI150
aI210
aI300
aI420
aI600
aI850
aI1200
aI2572
aI0
aI0
aI0
aI0
aI0
aI0
aI0
aa(lp445
I3
aI15817
aI5
aI5
aI5
aI5
aI5
aI5
aI5
aI10
aI5
aI10
aI10
aI10
aI20
aI30
aI30
aI60
aI70
aI110
aI150
aI210
aI300
aI420
aI600
aI850
aI1200
aI2577
aI0
aI0
aI0
aI0
aI0
aI0
aI0
aa(lp446
I3
aI15812
aI5
aI5
aI5
aI5
aI5
aI5
aI5
aI10
aI5
aI10
aI10
aI10
aI20
aI30
aI30
aI60
aI70
aI110
aI150
aI210
aI300
aI420
aI600
aI850
aI1200
aI2582
aI0
aI0
aI0
aI0
aI0
aI0
aI0
aa(lp447
I3
aI15807
aI5
aI5
aI5
aI5
aI5
aI5
aI5
aI10
aI5
aI10
aI10
aI10
aI20
aI30
aI30
aI60
aI70
aI110
aI150
aI210
aI300
aI420
aI600
aI850
aI1200
aI2587
aI0
aI0
aI0
aI0
aI0
aI0
aI0
aa(lp448
I3
aI15802
aI5
aI5
aI5
aI5
aI5
aI5
aI5
aI10
aI5
aI10
aI10
aI10
aI20
aI30
aI30
aI60
aI70
aI110
aI150
aI210
aI300
aI420
aI600
aI850
aI1200
aI2592
aI0
aI0
aI0
aI0
aI0
aI0
aI0
aa(lp449
I3
aI15797
aI5
aI5
aI5
aI5
aI5
aI5
aI5
aI10
aI5
aI10
aI10
aI10
aI20
aI30
aI30
aI60
aI70
aI110
aI150
aI210
aI300
aI420
aI600
aI850
aI1200
aI2597
aI0
aI0
aI0
aI0
aI0
aI0
aI0
aa(lp450
I3
aI15792
aI5
aI5
aI5
aI5
aI5
aI5
aI5
aI10
aI5
aI10
aI10
aI10
aI20
aI30
aI30
aI60
aI70
aI110
aI150
aI210
aI300
aI420
aI600
aI850
aI1200
aI2602
aI0
aI0
aI0
aI0
aI0
aI0
aI0
aa(lp451
I3
aI15787
aI5
aI5
aI5
aI5
aI5
aI5
aI5
aI10
aI5
aI10
aI10
aI10
aI20
aI30
aI30
aI60
aI70
aI110
aI150
aI210
aI300
aI420
aI600
aI850
aI1200
aI2607
aI0
aI0
aI0
aI0
aI0
aI0
aI0
aa(lp452
I3
aI15782
aI5
aI5
aI5
aI5
aI5
aI5
aI5
aI10
aI5
aI10
aI10
aI10
aI20
aI30
aI30
aI60
aI70
aI110
aI150
aI210
aI300
aI420
aI600
aI850
aI1200
aI2612
aI0
aI0
aI0
aI0
aI0
aI0
aI0
aa(lp453
I3
aI15777
aI5
aI5
aI5
aI5
aI5
aI5
aI5
aI10
aI5
aI10
aI10
aI10
aI20
aI30
aI30
aI60
aI70
aI110
aI150
aI210
aI300
aI420
aI600
aI850
aI1200
aI2617
aI0
aI0
aI0
aI0
aI0
aI0
aI0
aa(lp454
I3
aI15772
aI5
aI5
aI5
aI5
aI5
aI5
aI5
aI10
aI5
aI10
aI10
aI10
aI20
aI30
aI30
aI60
aI70
aI110
aI150
aI210
aI300
aI420
aI600
aI850
aI1200
aI2622
aI0
aI0
aI0
aI0
aI0
aI0
aI0
aa(lp455
I3
aI15767
aI5
aI5
aI5
aI5
aI5
aI5
aI5
aI10
aI5
aI10
aI10
aI10
aI20
aI30
aI30
aI60
aI70
aI110
aI150
aI210
aI300
aI420
aI600
aI850
aI1200
aI2627
aI0
aI0
aI0
aI0
aI0
aI0
aI0
aa(lp456
I3
aI15762
aI5
aI5
aI5
aI5
aI5
aI5
aI5
aI10
aI5
aI10
aI10
aI10
aI20
aI30
aI30
aI60
aI70
aI110
aI150
aI210
aI300
aI420
aI600
aI850
aI1200
aI2632
aI0
aI0
aI0
aI0
aI0
aI0
aI0
aa(lp457
I3
aI15757
aI5
aI5
aI5
aI5
aI5
aI5
aI5
aI10
aI5
aI10
aI10
aI10
aI20
aI30
aI30
aI60
aI70
aI110
aI150
aI210
aI300
aI420
aI600
aI850
aI1200
aI2637
aI0
aI0
aI0
aI0
aI0
aI0
aI0
aa(lp458
I3
aI15752
aI5
aI5
aI5
aI5
aI5
aI5
aI5
aI10
aI5
aI10
aI10
aI10
aI20
aI30
aI30
aI60
aI70
aI110
aI150
aI210
aI300
aI420
aI600
aI850
aI1200
aI2642
aI0
aI0
aI0
aI0
aI0
aI0
aI0
aa(lp459
I3
aI15747
aI5
aI5
aI5
aI5
aI5
aI5
aI5
aI10
aI5
aI10
aI10
aI10
aI20
aI30
aI30
aI60
aI70
aI110
aI150
aI210
aI300
aI420
aI600
aI850
aI1200
aI2647
aI0
aI0
aI0
aI0
aI0
aI0
aI0
aa(lp460
I3
aI15742
aI5
aI5
aI5
aI5
aI5
aI5
aI5
aI10
aI5
aI10
aI10
aI10
aI20
aI30
aI30
aI60
aI70
aI110
aI150
aI210
aI300
aI420
aI600
aI850
aI1200
aI2652
aI0
aI0
aI0
aI0
aI0
aI0
aI0
aa(lp461
I3
aI15737
aI5
aI5
aI5
aI5
aI5
aI5
aI5
aI10
aI5
aI10
aI10
aI10
aI20
aI30
aI30
aI60
aI70
aI110
aI150
aI210
aI300
aI420
aI600
aI850
aI1200
aI2657
aI0
aI0
aI0
aI0
aI0
aI0
aI0
aa(lp462
I3
aI15732
aI5
aI5
aI5
aI5
aI5
aI5
aI5
aI10
aI5
aI10
aI10
aI10
aI20
aI30
aI30
aI60
aI70
aI110
aI150
aI210
aI300
aI420
aI600
aI850
aI1200
aI2662
aI0
aI0
aI0
aI0
aI0
aI0
aI0
aa(lp463
I3
aI15727
aI5
aI5
aI5
aI5
aI5
aI5
aI5
aI10
aI5
aI10
aI10
aI10
aI20
aI30
aI30
aI60
aI70
aI110
aI150
aI210
aI300
aI420
aI600
aI850
aI1200
aI2667
aI0
aI0
aI0
aI0
aI0
aI0
aI0
aa(lp464
I3
aI15722
aI5
aI5
aI5
aI5
aI5
aI5
aI5
aI10
aI5
aI10
aI10
aI10
aI20
aI30
aI30
aI60
aI70
aI110
aI150
aI210
aI300
aI420
aI600
aI850
aI1200
aI2672
aI0
aI0
aI0
aI0
aI0
aI0
aI0
aa(lp465
I3
aI15717
aI5
aI5
aI5
aI5
aI5
aI5
aI5
aI10
aI5
aI10
aI10
aI10
aI20
aI30
aI30
aI60
aI70
aI110
aI150
aI210
aI300
aI420
aI600
aI850
aI1200
aI2677
aI0
aI0
aI0
aI0
aI0
aI0
aI0
aa(lp466
I3
aI15712
aI5
aI5
aI5
aI5
aI5
aI5
aI5
aI10
aI5
aI10
aI10
aI10
aI20
aI30
aI30
aI60
aI70
aI110
aI150
aI210
aI300
aI420
aI600
aI850
aI1200
aI2682
aI0
aI0
aI0
aI0
aI0
aI0
aI0
aa(lp467
I3
aI15707
aI5
aI5
aI5
aI5
aI5
aI5
aI5
aI10
aI5
aI10
aI10
aI10
aI20
aI30
aI30
aI60
aI70
aI110
aI150
aI210
aI300
aI420
aI600
aI850
aI1200
aI2687
aI0
aI0
aI0
aI0
aI0
aI0
aI0
aa(lp468
I3
aI15702
aI5
aI5
aI5
aI5
aI5
aI5
aI5
aI10
aI5
aI10
aI10
aI10
aI20
aI30
aI30
aI60
aI70
aI110
aI150
aI210
aI300
aI420
aI600
aI850
aI1200
aI2692
aI0
aI0
aI0
aI0
aI0
aI0
aI0
aa(lp469
I3
aI15697
aI5
aI5
aI5
aI5
aI5
aI5
aI5
aI10
aI5
aI10
aI10
aI10
aI20
aI30
aI30
aI60
aI70
aI110
aI150
aI210
aI300
aI420
aI600
aI850
aI1200
aI2697
aI0
aI0
aI0
aI0
aI0
aI0
aI0
aa(lp470
I3
aI15692
aI5
aI5
aI5
aI5
aI5
aI5
aI5
aI10
aI5
aI10
aI10
aI10
aI20
aI30
aI30
aI60
aI70
aI110
aI150
aI210
aI300
aI420
aI600
aI850
aI1200
aI2702
aI0
aI0
aI0
aI0
aI0
aI0
aI0
aa(lp471
I3
aI15687
aI5
aI5
aI5
aI5
aI5
aI5
aI5
aI10
aI5
aI10
aI10
aI10
aI20
aI30
aI30
aI60
aI70
aI110
aI150
aI210
aI300
aI420
aI600
aI850
aI1200
aI2707
aI0
aI0
aI0
aI0
aI0
aI0
aI0
aa(lp472
I3
aI15682
aI5
aI5
aI5
aI5
aI5
aI5
aI5
aI10
aI5
aI10
aI10
aI10
aI20
aI30
aI30
aI60
aI70
aI110
aI150
aI210
aI300
aI420
aI600
aI850
aI1200
aI2712
aI0
aI0
aI0
aI0
aI0
aI0
aI0
aa(lp473
I3
aI15677
aI5
aI5
aI5
aI5
aI5
aI5
aI5
aI10
aI5
aI10
aI10
aI10
aI20
aI30
aI30
aI60
aI70
aI110
aI150
aI210
aI300
aI420
aI600
aI850
aI1200
aI2717
aI0
aI0
aI0
aI0
aI0
aI0
aI0
aa(lp474
I3
aI15672
aI5
aI5
aI5
aI5
aI5
aI5
aI5
aI10
aI5
aI10
aI10
aI10
aI20
aI30
aI30
aI60
aI70
aI110
aI150
aI210
aI300
aI420
aI600
aI850
aI1200
aI2722
aI0
aI0
aI0
aI0
aI0
aI0
aI0
aa(lp475
I3
aI15667
aI5
aI5
aI5
aI5
aI5
aI5
aI5
aI10
aI5
aI10
aI10
aI10
aI20
aI30
aI30
aI60
aI70
aI110
aI150
aI210
aI300
aI420
aI600
aI850
aI1200
aI2727
aI0
aI0
aI0
aI0
aI0
aI0
aI0
aa(lp476
I3
aI15662
aI5
aI5
aI5
aI5
aI5
aI5
aI5
aI10
aI5
aI10
aI10
aI10
aI20
aI30
aI30
aI60
aI70
aI110
aI150
aI210
aI300
aI420
aI600
aI850
aI1200
aI2732
aI0
aI0
aI0
aI0
aI0
aI0
aI0
aa(lp477
I3
aI15657
aI5
aI5
aI5
aI5
aI5
aI5
aI5
aI10
aI5
aI10
aI10
aI10
aI20
aI30
aI30
aI60
aI70
aI110
aI150
aI210
aI300
aI420
aI600
aI850
aI1200
aI2737
aI0
aI0
aI0
aI0
aI0
aI0
aI0
aa(lp478
I3
aI15652
aI5
aI5
aI5
aI5
aI5
aI5
aI5
aI10
aI5
aI10
aI10
aI10
aI20
aI30
aI30
aI60
aI70
aI110
aI150
aI210
aI300
aI420
aI600
aI850
aI1200
aI2742
aI0
aI0
aI0
aI0
aI0
aI0
aI0
aa(lp479
I3
aI15647
aI5
aI5
aI5
aI5
aI5
aI5
aI5
aI10
aI5
aI10
aI10
aI10
aI20
aI30
aI30
aI60
aI70
aI110
aI150
aI210
aI300
aI420
aI600
aI850
aI1200
aI2747
aI0
aI0
aI0
aI0
aI0
aI0
aI0
aa(lp480
I3
aI15642
aI5
aI5
aI5
aI5
aI5
aI5
aI5
aI10
aI5
aI10
aI10
aI10
aI20
aI30
aI30
aI60
aI70
aI110
aI150
aI210
aI300
aI420
aI600
aI850
aI1200
aI2752
aI0
aI0
aI0
aI0
aI0
aI0
aI0
aa(lp481
I3
aI15637
aI5
aI5
aI5
aI5
aI5
aI5
aI5
aI10
aI5
aI10
aI10
aI10
aI20
aI30
aI30
aI60
aI70
aI110
aI150
aI210
aI300
aI420
aI600
aI850
aI1200
aI2757
aI0
aI0
aI0
aI0
aI0
aI0
aI0
aa(lp482
I3
aI15632
aI5
aI5
aI5
aI5
aI5
aI5
aI5
aI10
aI5
aI10
aI10
aI10
aI20
aI30
aI30
aI60
aI70
aI110
aI150
aI210
aI300
aI420
aI600
aI850
aI1200
aI2762
aI0
aI0
aI0
aI0
aI0
aI0
aI0
aa(lp483
I3
aI15627
aI5
aI5
aI5
aI5
aI5
aI5
aI5
aI10
aI5
aI10
aI10
aI10
aI20
aI30
aI30
aI60
aI70
aI110
aI150
aI210
aI300
aI420
aI600
aI850
aI1200
aI2767
aI0
aI0
aI0
aI0
aI0
aI0
aI0
aa(lp484
I3
aI15622
aI5
aI5
aI5
aI5
aI5
aI5
aI5
aI10
aI5
aI10
aI10
aI10
aI20
aI30
aI30
aI60
aI70
aI110
aI150
aI210
aI300
aI420
aI600
aI850
aI1200
aI2772
aI0
aI0
aI0
aI0
aI0
aI0
aI0
aa(lp485
I3
aI15617
aI5
aI5
aI5
aI5
aI5
aI5
aI5
aI10
aI5
aI10
aI10
aI10
aI20
aI30
aI30
aI60
aI70
aI110
aI150
aI210
aI300
aI420
aI600
aI850
aI1200
aI2777
aI0
aI0
aI0
aI0
aI0
aI0
aI0
aa(lp486
I3
aI15612
aI5
aI5
aI5
aI5
aI5
aI5
aI5
aI10
aI5
aI10
aI10
aI10
aI20
aI30
aI30
aI60
aI70
aI110
aI150
aI210
aI300
aI420
aI600
aI850
aI1200
aI2782
aI0
aI0
aI0
aI0
aI0
aI0
aI0
aa(lp487
I3
aI15607
aI5
aI5
aI5
aI5
aI5
aI5
aI5
aI10
aI5
aI10
aI10
aI10
aI20
aI30
aI30
aI60
aI70
aI110
aI150
aI210
aI300
aI420
aI600
aI850
aI1200
aI2787
aI0
aI0
aI0
aI0
aI0
aI0
aI0
aa(lp488
I3
aI15602
aI5
aI5
aI5
aI5
aI5
aI5
aI5
aI10
aI5
aI10
aI10
aI10
aI20
aI30
aI30
aI60
aI70
aI110
aI150
aI210
aI300
aI420
aI600
aI850
aI1200
aI2792
aI0
aI0
aI0
aI0
aI0
aI0
aI0
aa(lp489
I3
aI15597
aI5
aI5
aI5
aI5
aI5
aI5
aI5
aI10
aI5
aI10
aI10
aI10
aI20
aI30
aI30
aI60
aI70
aI110
aI150
aI210
aI300
aI420
aI600
aI850
aI1200
aI2797
aI0
aI0
aI0
aI0
aI0
aI0
aI0
aa(lp490
I3
aI15592
aI5
aI5
aI5
aI5
aI5
aI5
aI5
aI10
aI5
aI10
aI10
aI10
aI20
aI30
aI30
aI60
aI70
aI110
aI150
aI210
aI300
aI420
aI600
aI850
aI1200
aI2802
aI0
aI0
aI0
aI0
aI0
aI0
aI0
aa(lp491
I3
aI15587
aI5
aI5
aI5
aI5
aI5
aI5
aI5
aI10
aI5
aI10
aI10
aI10
aI20
aI30
aI30
aI60
aI70
aI110
aI150
aI210
aI300
aI420
aI600
aI850
aI1200
aI2807
aI0
aI0
aI0
aI0
aI0
aI0
aI0
aa(lp492
I3
aI15582
aI5
aI5
aI5
aI5
aI5
aI5
aI5
aI10
aI5
aI10
aI10
aI10
aI20
aI30
aI30
aI60
aI70
aI110
aI150
aI210
aI300
aI420
aI600
aI850
aI1200
aI2812
aI0
aI0
aI0
aI0
aI0
aI0
aI0
aa(lp493
I3
aI15577
aI5
aI5
aI5
aI5
aI5
aI5
aI5
aI10
aI5
aI10
aI10
aI10
aI20
aI30
aI30
aI60
aI70
aI110
aI150
aI210
aI300
aI420
aI600
aI850
aI1200
aI2817
aI0
aI0
aI0
aI0
aI0
aI0
aI0
aa(lp494
I3
aI15572
aI5
aI5
aI5
aI5
aI5
aI5
aI5
aI10
aI5
aI10
aI10
aI10
aI20
aI30
aI30
aI60
aI70
aI110
aI150
aI210
aI300
aI420
aI600
aI850
aI1200
aI2822
aI0
aI0
aI0
aI0
aI0
aI0
aI0
aa(lp495
I3
aI15567
aI5
aI5
aI5
aI5
aI5
aI5
aI5
aI10
aI5
aI10
aI10
aI10
aI20
aI30
aI30
aI60
aI70
aI110
aI150
aI210
aI300
aI420
aI600
aI850
aI1200
aI2827
aI0
aI0
aI0
aI0
aI0
aI0
aI0
aa(lp496
I3
aI15562
aI5
aI5
aI5
aI5
aI5
aI5
aI5
aI10
aI5
aI10
aI10
aI10
aI20
aI30
aI30
aI60
aI70
aI110
aI150
aI210
aI300
aI420
aI600
aI850
aI1200
aI2832
aI0
aI0
aI0
aI0
aI0
aI0
aI0
aa(lp497
I3
aI15557
aI5
aI5
aI5
aI5
aI5
aI5
aI5
aI10
aI5
aI10
aI10
aI10
aI20
aI30
aI30
aI60
aI70
aI110
aI150
aI210
aI300
aI420
aI600
aI850
aI1200
aI2837
aI0
aI0
aI0
aI0
aI0
aI0
aI0
aa(lp498
I3
aI15552
aI5
aI5
aI5
aI5
aI5
aI5
aI5
aI10
aI5
aI10
aI10
aI10
aI20
aI30
aI30
aI60
aI70
aI110
aI150
aI210
aI300
aI420
aI600
aI850
aI1200
aI2842
aI0
aI0
aI0
aI0
aI0
aI0
aI0
aa(lp499
I3
aI15547
aI5
aI5
aI5
aI5
aI5
aI5
aI5
aI10
aI5
aI10
aI10
aI10
aI20
aI30
aI30
aI60
aI70
aI110
aI150
aI210
aI300
aI420
aI600
aI850
aI1200
aI2847
aI0
aI0
aI0
aI0
aI0
aI0
aI0
aa(lp500
I3
aI15542
aI5
aI5
aI5
aI5
aI5
aI5
aI5
aI10
aI5
aI10
aI10
aI10
aI20
aI30
aI30
aI60
aI70
aI110
aI150
aI210
aI300
aI420
aI600
aI850
aI1200
aI2852
aI0
aI0
aI0
aI0
aI0
aI0
aI0
aa(lp501
I3
aI15537
aI5
aI5
aI5
aI5
aI5
aI5
aI5
aI10
aI5
aI10
aI10
aI10
aI20
aI30
aI30
aI60
aI70
aI110
aI150
aI210
aI300
aI420
aI600
aI850
aI1200
aI2857
aI0
aI0
aI0
aI0
aI0
aI0
aI0
aa(lp502
I3
aI15532
aI5
aI5
aI5
aI5
aI5
aI5
aI5
aI10
aI5
aI10
aI10
aI10
aI20
aI30
aI30
aI60
aI70
aI110
aI150
aI210
aI300
aI420
aI600
aI850
aI1200
aI2862
aI0
aI0
aI0
aI0
aI0
aI0
aI0
aa(lp503
I3
aI15527
aI5
aI5
aI5
aI5
aI5
aI5
aI5
aI10
aI5
aI10
aI10
aI10
aI20
aI30
aI30
aI60
aI70
aI110
aI150
aI210
aI300
aI420
aI600
aI850
aI1200
aI2867
aI0
aI0
aI0
aI0
aI0
aI0
aI0
aa(lp504
I3
aI15522
aI5
aI5
aI5
aI5
aI5
aI5
aI5
aI10
aI5
aI10
aI10
aI10
aI20
aI30
aI30
aI60
aI70
aI110
aI150
aI210
aI300
aI420
aI600
aI850
aI1200
aI2872
aI0
aI0
aI0
aI0
aI0
aI0
aI0
aa(lp505
I3
aI15517
aI5
aI5
aI5
aI5
aI5
aI5
aI5
aI10
aI5
aI10
aI10
aI10
aI20
aI30
aI30
aI60
aI70
aI110
aI150
aI210
aI300
aI420
aI600
aI850
aI1200
aI2877
aI0
aI0
aI0
aI0
aI0
aI0
aI0
aa(lp506
I3
aI15512
aI5
aI5
aI5
aI5
aI5
aI5
aI5
aI10
aI5
aI10
aI10
aI10
aI20
aI30
aI30
aI60
aI70
aI110
aI150
aI210
aI300
aI420
aI600
aI850
aI1200
aI2882
aI0
aI0
aI0
aI0
aI0
aI0
aI0
aa(lp507
I3
aI15507
aI5
aI5
aI5
aI5
aI5
aI5
aI5
aI10
aI5
aI10
aI10
aI10
aI20
aI30
aI30
aI60
aI70
aI110
aI150
aI210
aI300
aI420
aI600
aI850
aI1200
aI2887
aI0
aI0
aI0
aI0
aI0
aI0
aI0
aa(lp508
I3
aI15502
aI5
aI5
aI5
aI5
aI5
aI5
aI5
aI10
aI5
aI10
aI10
aI10
aI20
aI30
aI30
aI60
aI70
aI110
aI150
aI210
aI300
aI420
aI600
aI850
aI1200
aI2892
aI0
aI0
aI0
aI0
aI0
aI0
aI0
aa(lp509
I3
aI15497
aI5
aI5
aI5
aI5
aI5
aI5
aI5
aI10
aI5
aI10
aI10
aI10
aI20
aI30
aI30
aI60
aI70
aI110
aI150
aI210
aI300
aI420
aI600
aI850
aI1200
aI2897
aI0
aI0
aI0
aI0
aI0
aI0
aI0
aa(lp510
I3
aI15492
aI5
aI5
aI5
aI5
aI5
aI5
aI5
aI10
aI5
aI10
aI10
aI10
aI20
aI30
aI30
aI60
aI70
aI110
aI150
aI210
aI300
aI420
aI600
aI850
aI1200
aI2902
aI0
aI0
aI0
aI0
aI0
aI0
aI0
aa(lp511
I3
aI15487
aI5
aI5
aI5
aI5
aI5
aI5
aI5
aI10
aI5
aI10
aI10
aI10
aI20
aI30
aI30
aI60
aI70
aI110
aI150
aI210
aI300
aI420
aI600
aI850
aI1200
aI2907
aI0
aI0
aI0
aI0
aI0
aI0
aI0
aa(lp512
I3
aI15482
aI5
aI5
aI5
aI5
aI5
aI5
aI5
aI10
aI5
aI10
aI10
aI10
aI20
aI30
aI30
aI60
aI70
aI110
aI150
aI210
aI300
aI420
aI600
aI850
aI1200
aI2912
aI0
aI0
aI0
aI0
aI0
aI0
aI0
aa(lp513
I3
aI15477
aI5
aI5
aI5
aI5
aI5
aI5
aI5
aI10
aI5
aI10
aI10
aI10
aI20
aI30
aI30
aI60
aI70
aI110
aI150
aI210
aI300
aI420
aI600
aI850
aI1200
aI2917
aI0
aI0
aI0
aI0
aI0
aI0
aI0
aa(lp514
I3
aI15472
aI5
aI5
aI5
aI5
aI5
aI5
aI5
aI10
aI5
aI10
aI10
aI10
aI20
aI30
aI30
aI60
aI70
aI110
aI150
aI210
aI300
aI420
aI600
aI850
aI1200
aI2922
aI0
aI0
aI0
aI0
aI0
aI0
aI0
aa(lp515
I3
aI15467
aI5
aI5
aI5
aI5
aI5
aI5
aI5
aI10
aI5
aI10
aI10
aI10
aI20
aI30
aI30
aI60
aI70
aI110
aI150
aI210
aI300
aI420
aI600
aI850
aI1200
aI2927
aI0
aI0
aI0
aI0
aI0
aI0
aI0
aa(lp516
I3
aI15462
aI5
aI5
aI5
aI5
aI5
aI5
aI5
aI10
aI5
aI10
aI10
aI10
aI20
aI30
aI30
aI60
aI70
aI110
aI150
aI210
aI300
aI420
aI600
aI850
aI1200
aI2932
aI0
aI0
aI0
aI0
aI0
aI0
aI0
aa(lp517
I3
aI15457
aI5
aI5
aI5
aI5
aI5
aI5
aI5
aI10
aI5
aI10
aI10
aI10
aI20
aI30
aI30
aI60
aI70
aI110
aI150
aI210
aI300
aI420
aI600
aI850
aI1200
aI2937
aI0
aI0
aI0
aI0
aI0
aI0
aI0
aa(lp518
I3
aI15452
aI5
aI5
aI5
aI5
aI5
aI5
aI5
aI10
aI5
aI10
aI10
aI10
aI20
aI30
aI30
aI60
aI70
aI110
aI150
aI210
aI300
aI420
aI600
aI850
aI1200
aI2942
aI0
aI0
aI0
aI0
aI0
aI0
aI0
aa(lp519
I3
aI15447
aI5
aI5
aI5
aI5
aI5
aI5
aI5
aI10
aI5
aI10
aI10
aI10
aI20
aI30
aI30
aI60
aI70
aI110
aI150
aI210
aI300
aI420
aI600
aI850
aI1200
aI2947
aI0
aI0
aI0
aI0
aI0
aI0
aI0
aa(lp520
I3
aI15442
aI5
aI5
aI5
aI5
aI5
aI5
aI5
aI10
aI5
aI10
aI10
aI10
aI20
aI30
aI30
aI60
aI70
aI110
aI150
aI210
aI300
aI420
aI600
aI850
aI1200
aI2952
aI0
aI0
aI0
aI0
aI0
aI0
aI0
aa(lp521
I3
aI15437
aI5
aI5
aI5
aI5
aI5
aI5
aI5
aI10
aI5
aI10
aI10
aI10
aI20
aI30
aI30
aI60
aI70
aI110
aI150
aI210
aI300
aI420
aI600
aI850
aI1200
aI2957
aI0
aI0
aI0
aI0
aI0
aI0
aI0
aa(lp522
I3
aI15432
aI5
aI5
aI5
aI5
aI5
aI5
aI5
aI10
aI5
aI10
aI10
aI10
aI20
aI30
aI30
aI60
aI70
aI110
aI150
aI210
aI300
aI420
aI600
aI850
aI1200
aI2962
aI0
aI0
aI0
aI0
aI0
aI0
aI0
aa(lp523
I3
aI15427
aI5
aI5
aI5
aI5
aI5
aI5
aI5
aI10
aI5
aI10
aI10
aI10
aI20
aI30
aI30
aI60
aI70
aI110
aI150
aI210
aI300
aI420
aI600
aI850
aI1200
aI2967
aI0
aI0
aI0
aI0
aI0
aI0
aI0
aa(lp524
I3
aI15422
aI5
aI5
aI5
aI5
aI5
aI5
aI5
aI10
aI5
aI10
aI10
aI10
aI20
aI30
aI30
aI60
aI70
aI110
aI150
aI210
aI300
aI420
aI600
aI850
aI1200
aI2972
aI0
aI0
aI0
aI0
aI0
aI0
aI0
aa(lp525
I3
aI15417
aI5
aI5
aI5
aI5
aI5
aI5
aI5
aI10
aI5
aI10
aI10
aI10
aI20
aI30
aI30
aI60
aI70
aI110
aI150
aI210
aI300
aI420
aI600
aI850
aI1200
aI2977
aI0
aI0
aI0
aI0
aI0
aI0
aI0
aa(lp526
I3
aI15412
aI5
aI5
aI5
aI5
aI5
aI5
aI5
aI10
aI5
aI10
aI10
aI10
aI20
aI30
aI30
aI60
aI70
aI110
aI150
aI210
aI300
aI420
aI600
aI850
aI1200
aI2982
aI0
aI0
aI0
aI0
aI0
aI0
aI0
aa(lp527
I3
aI15407
aI5
aI5
aI5
aI5
aI5
aI5
aI5
aI10
aI5
aI10
aI10
aI10
aI20
aI30
aI30
aI60
aI70
aI110
aI150
aI210
aI300
aI420
aI600
aI850
aI1200
aI2987
aI0
aI0
aI0
aI0
aI0
aI0
aI0
aa(lp528
I3
aI15402
aI5
aI5
aI5
aI5
aI5
aI5
aI5
aI10
aI5
aI10
aI10
aI10
aI20
aI30
aI30
aI60
aI70
aI110
aI150
aI210
aI300
aI420
aI600
aI850
aI1200
aI2992
aI0
aI0
aI0
aI0
aI0
aI0
aI0
aa(lp529
I3
aI15397
aI5
aI5
aI5
aI5
aI5
aI5
aI5
aI10
aI5
aI10
aI10
aI10
aI20
aI30
aI30
aI60
aI70
aI110
aI150
aI210
aI300
aI420
aI600
aI850
aI1200
aI2997
aI0
aI0
aI0
aI0
aI0
aI0
aI0
aa(lp530
I3
aI15392
aI5
aI5
aI5
aI5
aI5
aI5
aI5
aI10
aI5
aI10
aI10
aI10
aI20
aI30
aI30
aI60
aI70
aI110
aI150
aI210
aI300
aI420
aI600
aI850
aI1200
aI3002
aI0
aI0
aI0
aI0
aI0
aI0
aI0
aa(lp531
I3
aI15387
aI5
aI5
aI5
aI5
aI5
aI5
aI5
aI10
aI5
aI10
aI10
aI10
aI20
aI30
aI30
aI60
aI70
aI110
aI150
aI210
aI300
aI420
aI600
aI850
aI1200
aI3007
aI0
aI0
aI0
aI0
aI0
aI0
aI0
aa(lp532
I3
aI15382
aI5
aI5
aI5
aI5
aI5
aI5
aI5
aI10
aI5
aI10
aI10
aI10
aI20
aI30
aI30
aI60
aI70
aI110
aI150
aI210
aI300
aI420
aI600
aI850
aI1200
aI3012
aI0
aI0
aI0
aI0
aI0
aI0
aI0
aa(lp533
I3
aI15377
aI5
aI5
aI5
aI5
aI5
aI5
aI5
aI10
aI5
aI10
aI10
aI10
aI20
aI30
aI30
aI60
aI70
aI110
aI150
aI210
aI300
aI420
aI600
aI850
aI1200
aI3017
aI0
aI0
aI0
aI0
aI0
aI0
aI0
aa(lp534
I3
aI15372
aI5
aI5
aI5
aI5
aI5
aI5
aI5
aI10
aI5
aI10
aI10
aI10
aI20
aI30
aI30
aI60
aI70
aI110
aI150
aI210
aI300
aI420
aI600
aI850
aI1200
aI3022
aI0
aI0
aI0
aI0
aI0
aI0
aI0
aa(lp535
I3
aI15367
aI5
aI5
aI5
aI5
aI5
aI5
aI5
aI10
aI5
aI10
aI10
aI10
aI20
aI30
aI30
aI60
aI70
aI110
aI150
aI210
aI300
aI420
aI600
aI850
aI1200
aI3027
aI0
aI0
aI0
aI0
aI0
aI0
aI0
aa(lp536
I3
aI15362
aI5
aI5
aI5
aI5
aI5
aI5
aI5
aI10
aI5
aI10
aI10
aI10
aI20
aI30
aI30
aI60
aI70
aI110
aI150
aI210
aI300
aI420
aI600
aI850
aI1200
aI3032
aI0
aI0
aI0
aI0
aI0
aI0
aI0
aa(lp537
I3
aI15357
aI5
aI5
aI5
aI5
aI5
aI5
aI5
aI10
aI5
aI10
aI10
aI10
aI20
aI30
aI30
aI60
aI70
aI110
aI150
aI210
aI300
aI420
aI600
aI850
aI1200
aI3037
aI0
aI0
aI0
aI0
aI0
aI0
aI0
aa(lp538
I3
aI15352
aI5
aI5
aI5
aI5
aI5
aI5
aI5
aI10
aI5
aI10
aI10
aI10
aI20
aI30
aI30
aI60
aI70
aI110
aI150
aI210
aI300
aI420
aI600
aI850
aI1200
aI3042
aI0
aI0
aI0
aI0
aI0
aI0
aI0
aa(lp539
I3
aI15347
aI5
aI5
aI5
aI5
aI5
aI5
aI5
aI10
aI5
aI10
aI10
aI10
aI20
aI30
aI30
aI60
aI70
aI110
aI150
aI210
aI300
aI420
aI600
aI850
aI1200
aI3047
aI0
aI0
aI0
aI0
aI0
aI0
aI0
aa(lp540
I3
aI15342
aI5
aI5
aI5
aI5
aI5
aI5
aI5
aI10
aI5
aI10
aI10
aI10
aI20
aI30
aI30
aI60
aI70
aI110
aI150
aI210
aI300
aI420
aI600
aI850
aI1200
aI3052
aI0
aI0
aI0
aI0
aI0
aI0
aI0
aa(lp541
I3
aI15337
aI5
aI5
aI5
aI5
aI5
aI5
aI5
aI10
aI5
aI10
aI10
aI10
aI20
aI30
aI30
aI60
aI70
aI110
aI150
aI210
aI300
aI420
aI600
aI850
aI1200
aI3057
aI0
aI0
aI0
aI0
aI0
aI0
aI0
aa(lp542
I3
aI15332
aI5
aI5
aI5
aI5
aI5
aI5
aI5
aI10
aI5
aI10
aI10
aI10
aI20
aI30
aI30
aI60
aI70
aI110
aI150
aI210
aI300
aI420
aI600
aI850
aI1200
aI3062
aI0
aI0
aI0
aI0
aI0
aI0
aI0
aa(lp543
I3
aI15327
aI5
aI5
aI5
aI5
aI5
aI5
aI5
aI10
aI5
aI10
aI10
aI10
aI20
aI30
aI30
aI60
aI70
aI110
aI150
aI210
aI300
aI420
aI600
aI850
aI1200
aI3067
aI0
aI0
aI0
aI0
aI0
aI0
aI0
aa(lp544
I3
aI15322
aI5
aI5
aI5
aI5
aI5
aI5
aI5
aI10
aI5
aI10
aI10
aI10
aI20
aI30
aI30
aI60
aI70
aI110
aI150
aI210
aI300
aI420
aI600
aI850
aI1200
aI3072
aI0
aI0
aI0
aI0
aI0
aI0
aI0
aa(lp545
I3
aI15317
aI5
aI5
aI5
aI5
aI5
aI5
aI5
aI10
aI5
aI10
aI10
aI10
aI20
aI30
aI30
aI60
aI70
aI110
aI150
aI210
aI300
aI420
aI600
aI850
aI1200
aI3077
aI0
aI0
aI0
aI0
aI0
aI0
aI0
aa(lp546
I3
aI15312
aI5
aI5
aI5
aI5
aI5
aI5
aI5
aI10
aI5
aI10
aI10
aI10
aI20
aI30
aI30
aI60
aI70
aI110
aI150
aI210
aI300
aI420
aI600
aI850
aI1200
aI3082
aI0
aI0
aI0
aI0
aI0
aI0
aI0
aa(lp547
I3
aI15307
aI5
aI5
aI5
aI5
aI5
aI5
aI5
aI10
aI5
aI10
aI10
aI10
aI20
aI30
aI30
aI60
aI70
aI110
aI150
aI210
aI300
aI420
aI600
aI850
aI1200
aI3087
aI0
aI0
aI0
aI0
aI0
aI0
aI0
aa(lp548
I3
aI15302
aI5
aI5
aI5
aI5
aI5
aI5
aI5
aI10
aI5
aI10
aI10
aI10
aI20
aI30
aI30
aI60
aI70
aI110
aI150
aI210
aI300
aI420
aI600
aI850
aI1200
aI3092
aI0
aI0
aI0
aI0
aI0
aI0
aI0
aa(lp549
I3
aI15297
aI5
aI5
aI5
aI5
aI5
aI5
aI5
aI10
aI5
aI10
aI10
aI10
aI20
aI30
aI30
aI60
aI70
aI110
aI150
aI210
aI300
aI420
aI600
aI850
aI1200
aI3097
aI0
aI0
aI0
aI0
aI0
aI0
aI0
aa(lp550
I3
aI15292
aI5
aI5
aI5
aI5
aI5
aI5
aI5
aI10
aI5
aI10
aI10
aI10
aI20
aI30
aI30
aI60
aI70
aI110
aI150
aI210
aI300
aI420
aI600
aI850
aI1200
aI3102
aI0
aI0
aI0
aI0
aI0
aI0
aI0
aa(lp551
I3
aI15287
aI5
aI5
aI5
aI5
aI5
aI5
aI5
aI10
aI5
aI10
aI10
aI10
aI20
aI30
aI30
aI60
aI70
aI110
aI150
aI210
aI300
aI420
aI600
aI850
aI1200
aI3107
aI0
aI0
aI0
aI0
aI0
aI0
aI0
aa(lp552
I3
aI15282
aI5
aI5
aI5
aI5
aI5
aI5
aI5
aI10
aI5
aI10
aI10
aI10
aI20
aI30
aI30
aI60
aI70
aI110
aI150
aI210
aI300
aI420
aI600
aI850
aI1200
aI3112
aI0
aI0
aI0
aI0
aI0
aI0
aI0
aa(lp553
I3
aI15277
aI5
aI5
aI5
aI5
aI5
aI5
aI5
aI10
aI5
aI10
aI10
aI10
aI20
aI30
aI30
aI60
aI70
aI110
aI150
aI210
aI300
aI420
aI600
aI850
aI1200
aI3117
aI0
aI0
aI0
aI0
aI0
aI0
aI0
aa(lp554
I3
aI15272
aI5
aI5
aI5
aI5
aI5
aI5
aI5
aI10
aI5
aI10
aI10
aI10
aI20
aI30
aI30
aI60
aI70
aI110
aI150
aI210
aI300
aI420
aI600
aI850
aI1200
aI3122
aI0
aI0
aI0
aI0
aI0
aI0
aI0
aa(lp555
I3
aI15267
aI5
aI5
aI5
aI5
aI5
aI5
aI5
aI10
aI5
aI10
aI10
aI10
aI20
aI30
aI30
aI60
aI70
aI110
aI150
aI210
aI300
aI420
aI600
aI850
aI1200
aI3127
aI0
aI0
aI0
aI0
aI0
aI0
aI0
aa(lp556
I3
aI15262
aI5
aI5
aI5
aI5
aI5
aI5
aI5
aI10
aI5
aI10
aI10
aI10
aI20
aI30
aI30
aI60
aI70
aI110
aI150
aI210
aI300
aI420
aI600
aI850
aI1200
aI3132
aI0
aI0
aI0
aI0
aI0
aI0
aI0
aa(lp557
I3
aI15257
aI5
aI5
aI5
aI5
aI5
aI5
aI5
aI10
aI5
aI10
aI10
aI10
aI20
aI30
aI30
aI60
aI70
aI110
aI150
aI210
aI300
aI420
aI600
aI850
aI1200
aI3137
aI0
aI0
aI0
aI0
aI0
aI0
aI0
aa(lp558
I3
aI15252
aI5
aI5
aI5
aI5
aI5
aI5
aI5
aI10
aI5
aI10
aI10
aI10
aI20
aI30
aI30
aI60
aI70
aI110
aI150
aI210
aI300
aI420
aI600
aI850
aI1200
aI3142
aI0
aI0
aI0
aI0
aI0
aI0
aI0
aa(lp559
I3
aI15247
aI5
aI5
aI5
aI5
aI5
aI5
aI5
aI10
aI5
aI10
aI10
aI10
aI20
aI30
aI30
aI60
aI70
aI110
aI150
aI210
aI300
aI420
aI600
aI850
aI1200
aI3147
aI0
aI0
aI0
aI0
aI0
aI0
aI0
aa(lp560
I3
aI15242
aI5
aI5
aI5
aI5
aI5
aI5
aI5
aI10
aI5
aI10
aI10
aI10
aI20
aI30
aI30
aI60
aI70
aI110
aI150
aI210
aI300
aI420
aI600
aI850
aI1200
aI3152
aI0
aI0
aI0
aI0
aI0
aI0
aI0
aa(lp561
I3
aI15237
aI5
aI5
aI5
aI5
aI5
aI5
aI5
aI10
aI5
aI10
aI10
aI10
aI20
aI30
aI30
aI60
aI70
aI110
aI150
aI210
aI300
aI420
aI600
aI850
aI1200
aI3157
aI0
aI0
aI0
aI0
aI0
aI0
aI0
aa(lp562
I3
aI15232
aI5
aI5
aI5
aI5
aI5
aI5
aI5
aI10
aI5
aI10
aI10
aI10
aI20
aI30
aI30
aI60
aI70
aI110
aI150
aI210
aI300
aI420
aI600
aI850
aI1200
aI3162
aI0
aI0
aI0
aI0
aI0
aI0
aI0
aa(lp563
I3
aI15227
aI5
aI5
aI5
aI5
aI5
aI5
aI5
aI10
aI5
aI10
aI10
aI10
aI20
aI30
aI30
aI60
aI70
aI110
aI150
aI210
aI300
aI420
aI600
aI850
aI1200
aI3167
aI0
aI0
aI0
aI0
aI0
aI0
aI0
aa(lp564
I3
aI15222
aI5
aI5
aI5
aI5
aI5
aI5
aI5
aI10
aI5
aI10
aI10
aI10
aI20
aI30
aI30
aI60
aI70
aI110
aI150
aI210
aI300
aI420
aI600
aI850
aI1200
aI3172
aI0
aI0
aI0
aI0
aI0
aI0
aI0
aa(lp565
I3
aI15217
aI5
aI5
aI5
aI5
aI5
aI5
aI5
aI10
aI5
aI10
aI10
aI10
aI20
aI30
aI30
aI60
aI70
aI110
aI150
aI210
aI300
aI420
aI600
aI850
aI1200
aI3177
aI0
aI0
aI0
aI0
aI0
aI0
aI0
aa(lp566
I3
aI15212
aI5
aI5
aI5
aI5
aI5
aI5
aI5
aI10
aI5
aI10
aI10
aI10
aI20
aI30
aI30
aI60
aI70
aI110
aI150
aI210
aI300
aI420
aI600
aI850
aI1200
aI3182
aI0
aI0
aI0
aI0
aI0
aI0
aI0
aa(lp567
I3
aI15207
aI5
aI5
aI5
aI5
aI5
aI5
aI5
aI10
aI5
aI10
aI10
aI10
aI20
aI30
aI30
aI60
aI70
aI110
aI150
aI210
aI300
aI420
aI600
aI850
aI1200
aI3187
aI0
aI0
aI0
aI0
aI0
aI0
aI0
aa(lp568
I3
aI15202
aI5
aI5
aI5
aI5
aI5
aI5
aI5
aI10
aI5
aI10
aI10
aI10
aI20
aI30
aI30
aI60
aI70
aI110
aI150
aI210
aI300
aI420
aI600
aI850
aI1200
aI3192
aI0
aI0
aI0
aI0
aI0
aI0
aI0
aa(lp569
I3
aI15197
aI5
aI5
aI5
aI5
aI5
aI5
aI5
aI10
aI5
aI10
aI10
aI10
aI20
aI30
aI30
aI60
aI70
aI110
aI150
aI210
aI300
aI420
aI600
aI850
aI1200
aI3197
aI0
aI0
aI0
aI0
aI0
aI0
aI0
aa(lp570
I3
aI15192
aI5
aI5
aI5
aI5
aI5
aI5
aI5
aI10
aI5
aI10
aI10
aI10
aI20
aI30
aI30
aI60
aI70
aI110
aI150
aI210
aI300
aI420
aI600
aI850
aI1200
aI3202
aI0
aI0
aI0
aI0
aI0
aI0
aI0
aa(lp571
I3
aI15187
aI5
aI5
aI5
aI5
aI5
aI5
aI5
aI10
aI5
aI10
aI10
aI10
aI20
aI30
aI30
aI60
aI70
aI110
aI150
aI210
aI300
aI420
aI600
aI850
aI1200
aI3207
aI0
aI0
aI0
aI0
aI0
aI0
aI0
aa(lp572
I3
aI15182
aI5
aI5
aI5
aI5
aI5
aI5
aI5
aI10
aI5
aI10
aI10
aI10
aI20
aI30
aI30
aI60
aI70
aI110
aI150
aI210
aI300
aI420
aI600
aI850
aI1200
aI3212
aI0
aI0
aI0
aI0
aI0
aI0
aI0
aa(lp573
I3
aI15177
aI5
aI5
aI5
aI5
aI5
aI5
aI5
aI10
aI5
aI10
aI10
aI10
aI20
aI30
aI30
aI60
aI70
aI110
aI150
aI210
aI300
aI420
aI600
aI850
aI1200
aI3217
aI0
aI0
aI0
aI0
aI0
aI0
aI0
aa(lp574
I3
aI15172
aI5
aI5
aI5
aI5
aI5
aI5
aI5
aI10
aI5
aI10
aI10
aI10
aI20
aI30
aI30
aI60
aI70
aI110
aI150
aI210
aI300
aI420
aI600
aI850
aI1200
aI3222
aI0
aI0
aI0
aI0
aI0
aI0
aI0
aa(lp575
I3
aI15167
aI5
aI5
aI5
aI5
aI5
aI5
aI5
aI10
aI5
aI10
aI10
aI10
aI20
aI30
aI30
aI60
aI70
aI110
aI150
aI210
aI300
aI420
aI600
aI850
aI1200
aI3227
aI0
aI0
aI0
aI0
aI0
aI0
aI0
aa(lp576
I3
aI15162
aI5
aI5
aI5
aI5
aI5
aI5
aI5
aI10
aI5
aI10
aI10
aI10
aI20
aI30
aI30
aI60
aI70
aI110
aI150
aI210
aI300
aI420
aI600
aI850
aI1200
aI3232
aI0
aI0
aI0
aI0
aI0
aI0
aI0
aa(lp577
I3
aI15157
aI5
aI5
aI5
aI5
aI5
aI5
aI5
aI10
aI5
aI10
aI10
aI10
aI20
aI30
aI30
aI60
aI70
aI110
aI150
aI210
aI300
aI420
aI600
aI850
aI1200
aI3237
aI0
aI0
aI0
aI0
aI0
aI0
aI0
aa(lp578
I3
aI15152
aI5
aI5
aI5
aI5
aI5
aI5
aI5
aI10
aI5
aI10
aI10
aI10
aI20
aI30
aI30
aI60
aI70
aI110
aI150
aI210
aI300
aI420
aI600
aI850
aI1200
aI3242
aI0
aI0
aI0
aI0
aI0
aI0
aI0
aa(lp579
I3
aI15147
aI5
aI5
aI5
aI5
aI5
aI5
aI5
aI10
aI5
aI10
aI10
aI10
aI20
aI30
aI30
aI60
aI70
aI110
aI150
aI210
aI300
aI420
aI600
aI850
aI1200
aI3247
aI0
aI0
aI0
aI0
aI0
aI0
aI0
aa(lp580
I3
aI15142
aI5
aI5
aI5
aI5
aI5
aI5
aI5
aI10
aI5
aI10
aI10
aI10
aI20
aI30
aI30
aI60
aI70
aI110
aI150
aI210
aI300
aI420
aI600
aI850
aI1200
aI3252
aI0
aI0
aI0
aI0
aI0
aI0
aI0
aa(lp581
I3
aI15137
aI5
aI5
aI5
aI5
aI5
aI5
aI5
aI10
aI5
aI10
aI10
aI10
aI20
aI30
aI30
aI60
aI70
aI110
aI150
aI210
aI300
aI420
aI600
aI850
aI1200
aI3257
aI0
aI0
aI0
aI0
aI0
aI0
aI0
aa(lp582
I3
aI15132
aI5
aI5
aI5
aI5
aI5
aI5
aI5
aI10
aI5
aI10
aI10
aI10
aI20
aI30
aI30
aI60
aI70
aI110
aI150
aI210
aI300
aI420
aI600
aI850
aI1200
aI3262
aI0
aI0
aI0
aI0
aI0
aI0
aI0
aa(lp583
I3
aI15127
aI5
aI5
aI5
aI5
aI5
aI5
aI5
aI10
aI5
aI10
aI10
aI10
aI20
aI30
aI30
aI60
aI70
aI110
aI150
aI210
aI300
aI420
aI600
aI850
aI1200
aI3267
aI0
aI0
aI0
aI0
aI0
aI0
aI0
aa(lp584
I3
aI15122
aI5
aI5
aI5
aI5
aI5
aI5
aI5
aI10
aI5
aI10
aI10
aI10
aI20
aI30
aI30
aI60
aI70
aI110
aI150
aI210
aI300
aI420
aI600
aI850
aI1200
aI3272
aI0
aI0
aI0
aI0
aI0
aI0
aI0
aa(lp585
I3
aI15117
aI5
aI5
aI5
aI5
aI5
aI5
aI5
aI10
aI5
aI10
aI10
aI10
aI20
aI30
aI30
aI60
aI70
aI110
aI150
aI210
aI300
aI420
aI600
aI850
aI1200
aI3277
aI0
aI0
aI0
aI0
aI0
aI0
aI0
aa(lp586
I3
aI15112
aI5
aI5
aI5
aI5
aI5
aI5
aI5
aI10
aI5
aI10
aI10
aI10
aI20
aI30
aI30
aI60
aI70
aI110
aI150
aI210
aI300
aI420
aI600
aI850
aI1200
aI3282
aI0
aI0
aI0
aI0
aI0
aI0
aI0
aa(lp587
I3
aI15107
aI5
aI5
aI5
aI5
aI5
aI5
aI5
aI10
aI5
aI10
aI10
aI10
aI20
aI30
aI30
aI60
aI70
aI110
aI150
aI210
aI300
aI420
aI600
aI850
aI1200
aI3287
aI0
aI0
aI0
aI0
aI0
aI0
aI0
aa(lp588
I3
aI15102
aI5
aI5
aI5
aI5
aI5
aI5
aI5
aI10
aI5
aI10
aI10
aI10
aI20
aI30
aI30
aI60
aI70
aI110
aI150
aI210
aI300
aI420
aI600
aI850
aI1200
aI1688
aI1604
aI0
aI0
aI0
aI0
aI0
aI0
aa(lp589
I3
aI15097
aI5
aI5
aI5
aI5
aI5
aI5
aI5
aI10
aI5
aI10
aI10
aI10
aI20
aI30
aI30
aI60
aI70
aI110
aI150
aI210
aI300
aI420
aI600
aI850
aI1200
aI1689
aI1608
aI0
aI0
aI0
aI0
aI0
aI0
aa(lp590
I3
aI15092
aI5
aI5
aI5
aI5
aI5
aI5
aI5
aI10
aI5
aI10
aI10
aI10
aI20
aI30
aI30
aI60
aI70
aI110
aI150
aI210
aI300
aI420
aI600
aI850
aI1200
aI1690
aI1612
aI0
aI0
aI0
aI0
aI0
aI0
aa(lp591
I3
aI15087
aI5
aI5
aI5
aI5
aI5
aI5
aI5
aI10
aI5
aI10
aI10
aI10
aI20
aI30
aI30
aI60
aI70
aI110
aI150
aI210
aI300
aI420
aI600
aI850
aI1200
aI1691
aI1616
aI0
aI0
aI0
aI0
aI0
aI0
aa(lp592
I3
aI15082
aI5
aI5
aI5
aI5
aI5
aI5
aI5
aI10
aI5
aI10
aI10
aI10
aI20
aI30
aI30
aI60
aI70
aI110
aI150
aI210
aI300
aI420
aI600
aI850
aI1200
aI1692
aI1620
aI0
aI0
aI0
aI0
aI0
aI0
aa(lp593
I3
aI15077
aI5
aI5
aI5
aI5
aI5
aI5
aI5
aI10
aI5
aI10
aI10
aI10
aI20
aI30
aI30
aI60
aI70
aI110
aI150
aI210
aI300
aI420
aI600
aI850
aI1200
aI1693
aI1624
aI0
aI0
aI0
aI0
aI0
aI0
aa(lp594
I3
aI15072
aI5
aI5
aI5
aI5
aI5
aI5
aI5
aI10
aI5
aI10
aI10
aI10
aI20
aI30
aI30
aI60
aI70
aI110
aI150
aI210
aI300
aI420
aI600
aI850
aI1200
aI1694
aI1628
aI0
aI0
aI0
aI0
aI0
aI0
aa(lp595
I3
aI15067
aI5
aI5
aI5
aI5
aI5
aI5
aI5
aI10
aI5
aI10
aI10
aI10
aI20
aI30
aI30
aI60
aI70
aI110
aI150
aI210
aI300
aI420
aI600
aI850
aI1200
aI1695
aI1632
aI0
aI0
aI0
aI0
aI0
aI0
aa(lp596
I3
aI15062
aI5
aI5
aI5
aI5
aI5
aI5
aI5
aI10
aI5
aI10
aI10
aI10
aI20
aI30
aI30
aI60
aI70
aI110
aI150
aI210
aI300
aI420
aI600
aI850
aI1200
aI1696
aI1636
aI0
aI0
aI0
aI0
aI0
aI0
aa(lp597
I3
aI15057
aI5
aI5
aI5
aI5
aI5
aI5
aI5
aI10
aI5
aI10
aI10
aI10
aI20
aI30
aI30
aI60
aI70
aI110
aI150
aI210
aI300
aI420
aI600
aI850
aI1200
aI1697
aI1640
aI0
aI0
aI0
aI0
aI0
aI0
aa(lp598
I3
aI15052
aI5
aI5
aI5
aI5
aI5
aI5
aI5
aI10
aI5
aI10
aI10
aI10
aI20
aI30
aI30
aI60
aI70
aI110
aI150
aI210
aI300
aI420
aI600
aI850
aI1200
aI1698
aI1644
aI0
aI0
aI0
aI0
aI0
aI0
aa(lp599
I3
aI15047
aI5
aI5
aI5
aI5
aI5
aI5
aI5
aI10
aI5
aI10
aI10
aI10
aI20
aI30
aI30
aI60
aI70
aI110
aI150
aI210
aI300
aI420
aI600
aI850
aI1200
aI1699
aI1648
aI0
aI0
aI0
aI0
aI0
aI0
aa(lp600
I3
aI15042
aI5
aI5
aI5
aI5
aI5
aI5
aI5
aI10
aI5
aI10
aI10
aI10
aI20
aI30
aI30
aI60
aI70
aI110
aI150
aI210
aI300
aI420
aI600
aI850
aI1200
aI1700
aI1652
aI0
aI0
aI0
aI0
aI0
aI0
aa(lp601
I3
aI15037
aI5
aI5
aI5
aI5
aI5
aI5
aI5
aI10
aI5
aI10
aI10
aI10
aI20
aI30
aI30
aI60
aI70
aI110
aI150
aI210
aI300
aI420
aI600
aI850
aI1200
aI1700
aI1657
aI0
aI0
aI0
aI0
aI0
aI0
aa(lp602
I3
aI15032
aI5
aI5
aI5
aI5
aI5
aI5
aI5
aI10
aI5
aI10
aI10
aI10
aI20
aI30
aI30
aI60
aI70
aI110
aI150
aI210
aI300
aI420
aI600
aI850
aI1200
aI1700
aI1662
aI0
aI0
aI0
aI0
aI0
aI0
aa(lp603
I3
aI15027
aI5
aI5
aI5
aI5
aI5
aI5
aI5
aI10
aI5
aI10
aI10
aI10
aI20
aI30
aI30
aI60
aI70
aI110
aI150
aI210
aI300
aI420
aI600
aI850
aI1200
aI1700
aI1667
aI0
aI0
aI0
aI0
aI0
aI0
aa(lp604
I3
aI15022
aI5
aI5
aI5
aI5
aI5
aI5
aI5
aI10
aI5
aI10
aI10
aI10
aI20
aI30
aI30
aI60
aI70
aI110
aI150
aI210
aI300
aI420
aI600
aI850
aI1200
aI1700
aI1672
aI0
aI0
aI0
aI0
aI0
aI0
aa(lp605
I3
aI15017
aI5
aI5
aI5
aI5
aI5
aI5
aI5
aI10
aI5
aI10
aI10
aI10
aI20
aI30
aI30
aI60
aI70
aI110
aI150
aI210
aI300
aI420
aI600
aI850
aI1200
aI1700
aI1677
aI0
aI0
aI0
aI0
aI0
aI0
aa(lp606
I3
aI15012
aI5
aI5
aI5
aI5
aI5
aI5
aI5
aI10
aI5
aI10
aI10
aI10
aI20
aI30
aI30
aI60
aI70
aI110
aI150
aI210
aI300
aI420
aI600
aI850
aI1200
aI1700
aI1682
aI0
aI0
aI0
aI0
aI0
aI0
aa(lp607
I3
aI15007
aI5
aI5
aI5
aI5
aI5
aI5
aI5
aI10
aI5
aI10
aI10
aI10
aI20
aI30
aI30
aI60
aI70
aI110
aI150
aI210
aI300
aI420
aI600
aI850
aI1200
aI1700
aI1687
aI0
aI0
aI0
aI0
aI0
aI0
aa(lp608
I3
aI15002
aI5
aI5
aI5
aI5
aI5
aI5
aI5
aI10
aI5
aI10
aI10
aI10
aI20
aI30
aI30
aI60
aI70
aI110
aI150
aI210
aI300
aI420
aI600
aI850
aI1200
aI1700
aI1692
aI0
aI0
aI0
aI0
aI0
aI0
aa(lp609
I3
aI14997
aI5
aI5
aI5
aI5
aI5
aI5
aI5
aI10
aI5
aI10
aI10
aI10
aI20
aI30
aI30
aI60
aI70
aI110
aI150
aI210
aI300
aI420
aI600
aI850
aI1200
aI1700
aI1697
aI0
aI0
aI0
aI0
aI0
aI0
aa(lp610
I3
aI14992
aI5
aI5
aI5
aI5
aI5
aI5
aI5
aI10
aI5
aI10
aI10
aI10
aI20
aI30
aI30
aI60
aI70
aI110
aI150
aI210
aI300
aI420
aI600
aI850
aI1200
aI1700
aI1702
aI0
aI0
aI0
aI0
aI0
aI0
aa(lp611
I3
aI14987
aI5
aI5
aI5
aI5
aI5
aI5
aI5
aI10
aI5
aI10
aI10
aI10
aI20
aI30
aI30
aI60
aI70
aI110
aI150
aI210
aI300
aI420
aI600
aI850
aI1200
aI1700
aI1707
aI0
aI0
aI0
aI0
aI0
aI0
aa(lp612
I3
aI14982
aI5
aI5
aI5
aI5
aI5
aI5
aI5
aI10
aI5
aI10
aI10
aI10
aI20
aI30
aI30
aI60
aI70
aI110
aI150
aI210
aI300
aI420
aI600
aI850
aI1200
aI1700
aI1712
aI0
aI0
aI0
aI0
aI0
aI0
aa(lp613
I3
aI14977
aI5
aI5
aI5
aI5
aI5
aI5
aI5
aI10
aI5
aI10
aI10
aI10
aI20
aI30
aI30
aI60
aI70
aI110
aI150
aI210
aI300
aI420
aI600
aI850
aI1200
aI1700
aI1717
aI0
aI0
aI0
aI0
aI0
aI0
aa(lp614
I3
aI14972
aI5
aI5
aI5
aI5
aI5
aI5
aI5
aI10
aI5
aI10
aI10
aI10
aI20
aI30
aI30
aI60
aI70
aI110
aI150
aI210
aI300
aI420
aI600
aI850
aI1200
aI1700
aI1722
aI0
aI0
aI0
aI0
aI0
aI0
aa(lp615
I3
aI14967
aI5
aI5
aI5
aI5
aI5
aI5
aI5
aI10
aI5
aI10
aI10
aI10
aI20
aI30
aI30
aI60
aI70
aI110
aI150
aI210
aI300
aI420
aI600
aI850
aI1200
aI1700
aI1727
aI0
aI0
aI0
aI0
aI0
aI0
aa(lp616
I3
aI14962
aI5
aI5
aI5
aI5
aI5
aI5
aI5
aI10
aI5
aI10
aI10
aI10
aI20
aI30
aI30
aI60
aI70
aI110
aI150
aI210
aI300
aI420
aI600
aI850
aI1200
aI1700
aI1732
aI0
aI0
aI0
aI0
aI0
aI0
aa(lp617
I3
aI14957
aI5
aI5
aI5
aI5
aI5
aI5
aI5
aI10
aI5
aI10
aI10
aI10
aI20
aI30
aI30
aI60
aI70
aI110
aI150
aI210
aI300
aI420
aI600
aI850
aI1200
aI1700
aI1737
aI0
aI0
aI0
aI0
aI0
aI0
aa(lp618
I3
aI14952
aI5
aI5
aI5
aI5
aI5
aI5
aI5
aI10
aI5
aI10
aI10
aI10
aI20
aI30
aI30
aI60
aI70
aI110
aI150
aI210
aI300
aI420
aI600
aI850
aI1200
aI1700
aI1742
aI0
aI0
aI0
aI0
aI0
aI0
aa(lp619
I3
aI14947
aI5
aI5
aI5
aI5
aI5
aI5
aI5
aI10
aI5
aI10
aI10
aI10
aI20
aI30
aI30
aI60
aI70
aI110
aI150
aI210
aI300
aI420
aI600
aI850
aI1200
aI1700
aI1747
aI0
aI0
aI0
aI0
aI0
aI0
aa(lp620
I3
aI14942
aI5
aI5
aI5
aI5
aI5
aI5
aI5
aI10
aI5
aI10
aI10
aI10
aI20
aI30
aI30
aI60
aI70
aI110
aI150
aI210
aI300
aI420
aI600
aI850
aI1200
aI1700
aI1752
aI0
aI0
aI0
aI0
aI0
aI0
aa(lp621
I3
aI14937
aI5
aI5
aI5
aI5
aI5
aI5
aI5
aI10
aI5
aI10
aI10
aI10
aI20
aI30
aI30
aI60
aI70
aI110
aI150
aI210
aI300
aI420
aI600
aI850
aI1200
aI1700
aI1757
aI0
aI0
aI0
aI0
aI0
aI0
aa(lp622
I3
aI14932
aI5
aI5
aI5
aI5
aI5
aI5
aI5
aI10
aI5
aI10
aI10
aI10
aI20
aI30
aI30
aI60
aI70
aI110
aI150
aI210
aI300
aI420
aI600
aI850
aI1200
aI1700
aI1762
aI0
aI0
aI0
aI0
aI0
aI0
aa(lp623
I3
aI14927
aI5
aI5
aI5
aI5
aI5
aI5
aI5
aI10
aI5
aI10
aI10
aI10
aI20
aI30
aI30
aI60
aI70
aI110
aI150
aI210
aI300
aI420
aI600
aI850
aI1200
aI1700
aI1767
aI0
aI0
aI0
aI0
aI0
aI0
aa(lp624
I3
aI14922
aI5
aI5
aI5
aI5
aI5
aI5
aI5
aI10
aI5
aI10
aI10
aI10
aI20
aI30
aI30
aI60
aI70
aI110
aI150
aI210
aI300
aI420
aI600
aI850
aI1200
aI1700
aI1772
aI0
aI0
aI0
aI0
aI0
aI0
aa(lp625
I3
aI14917
aI5
aI5
aI5
aI5
aI5
aI5
aI5
aI10
aI5
aI10
aI10
aI10
aI20
aI30
aI30
aI60
aI70
aI110
aI150
aI210
aI300
aI420
aI600
aI850
aI1200
aI1700
aI1777
aI0
aI0
aI0
aI0
aI0
aI0
aa(lp626
I3
aI14912
aI5
aI5
aI5
aI5
aI5
aI5
aI5
aI10
aI5
aI10
aI10
aI10
aI20
aI30
aI30
aI60
aI70
aI110
aI150
aI210
aI300
aI420
aI600
aI850
aI1200
aI1700
aI1782
aI0
aI0
aI0
aI0
aI0
aI0
aa(lp627
I3
aI14907
aI5
aI5
aI5
aI5
aI5
aI5
aI5
aI10
aI5
aI10
aI10
aI10
aI20
aI30
aI30
aI60
aI70
aI110
aI150
aI210
aI300
aI420
aI600
aI850
aI1200
aI1700
aI1787
aI0
aI0
aI0
aI0
aI0
aI0
aa(lp628
I3
aI14902
aI5
aI5
aI5
aI5
aI5
aI5
aI5
aI10
aI5
aI10
aI10
aI10
aI20
aI30
aI30
aI60
aI70
aI110
aI150
aI210
aI300
aI420
aI600
aI850
aI1200
aI1700
aI1792
aI0
aI0
aI0
aI0
aI0
aI0
aa(lp629
I3
aI14897
aI5
aI5
aI5
aI5
aI5
aI5
aI5
aI10
aI5
aI10
aI10
aI10
aI20
aI30
aI30
aI60
aI70
aI110
aI150
aI210
aI300
aI420
aI600
aI850
aI1200
aI1700
aI1797
aI0
aI0
aI0
aI0
aI0
aI0
aa(lp630
I3
aI14892
aI5
aI5
aI5
aI5
aI5
aI5
aI5
aI10
aI5
aI10
aI10
aI10
aI20
aI30
aI30
aI60
aI70
aI110
aI150
aI210
aI300
aI420
aI600
aI850
aI1200
aI1700
aI1802
aI0
aI0
aI0
aI0
aI0
aI0
aa(lp631
I3
aI14887
aI5
aI5
aI5
aI5
aI5
aI5
aI5
aI10
aI5
aI10
aI10
aI10
aI20
aI30
aI30
aI60
aI70
aI110
aI150
aI210
aI300
aI420
aI600
aI850
aI1200
aI1700
aI1807
aI0
aI0
aI0
aI0
aI0
aI0
aa(lp632
I3
aI14882
aI5
aI5
aI5
aI5
aI5
aI5
aI5
aI10
aI5
aI10
aI10
aI10
aI20
aI30
aI30
aI60
aI70
aI110
aI150
aI210
aI300
aI420
aI600
aI850
aI1200
aI1700
aI1812
aI0
aI0
aI0
aI0
aI0
aI0
aa(lp633
I3
aI14877
aI5
aI5
aI5
aI5
aI5
aI5
aI5
aI10
aI5
aI10
aI10
aI10
aI20
aI30
aI30
aI60
aI70
aI110
aI150
aI210
aI300
aI420
aI600
aI850
aI1200
aI1700
aI1817
aI0
aI0
aI0
aI0
aI0
aI0
aa(lp634
I3
aI14872
aI5
aI5
aI5
aI5
aI5
aI5
aI5
aI10
aI5
aI10
aI10
aI10
aI20
aI30
aI30
aI60
aI70
aI110
aI150
aI210
aI300
aI420
aI600
aI850
aI1200
aI1700
aI1822
aI0
aI0
aI0
aI0
aI0
aI0
aa(lp635
I3
aI14867
aI5
aI5
aI5
aI5
aI5
aI5
aI5
aI10
aI5
aI10
aI10
aI10
aI20
aI30
aI30
aI60
aI70
aI110
aI150
aI210
aI300
aI420
aI600
aI850
aI1200
aI1700
aI1827
aI0
aI0
aI0
aI0
aI0
aI0
aa(lp636
I3
aI14862
aI5
aI5
aI5
aI5
aI5
aI5
aI5
aI10
aI5
aI10
aI10
aI10
aI20
aI30
aI30
aI60
aI70
aI110
aI150
aI210
aI300
aI420
aI600
aI850
aI1200
aI1700
aI1832
aI0
aI0
aI0
aI0
aI0
aI0
aa(lp637
I3
aI14857
aI5
aI5
aI5
aI5
aI5
aI5
aI5
aI10
aI5
aI10
aI10
aI10
aI20
aI30
aI30
aI60
aI70
aI110
aI150
aI210
aI300
aI420
aI600
aI850
aI1200
aI1700
aI1837
aI0
aI0
aI0
aI0
aI0
aI0
aa(lp638
I3
aI14852
aI5
aI5
aI5
aI5
aI5
aI5
aI5
aI10
aI5
aI10
aI10
aI10
aI20
aI30
aI30
aI60
aI70
aI110
aI150
aI210
aI300
aI420
aI600
aI850
aI1200
aI1700
aI1842
aI0
aI0
aI0
aI0
aI0
aI0
aa(lp639
I3
aI14847
aI5
aI5
aI5
aI5
aI5
aI5
aI5
aI10
aI5
aI10
aI10
aI10
aI20
aI30
aI30
aI60
aI70
aI110
aI150
aI210
aI300
aI420
aI600
aI850
aI1200
aI1700
aI1847
aI0
aI0
aI0
aI0
aI0
aI0
aa(lp640
I3
aI14842
aI5
aI5
aI5
aI5
aI5
aI5
aI5
aI10
aI5
aI10
aI10
aI10
aI20
aI30
aI30
aI60
aI70
aI110
aI150
aI210
aI300
aI420
aI600
aI850
aI1200
aI1700
aI1852
aI0
aI0
aI0
aI0
aI0
aI0
aa(lp641
I3
aI14837
aI5
aI5
aI5
aI5
aI5
aI5
aI5
aI10
aI5
aI10
aI10
aI10
aI20
aI30
aI30
aI60
aI70
aI110
aI150
aI210
aI300
aI420
aI600
aI850
aI1200
aI1700
aI1857
aI0
aI0
aI0
aI0
aI0
aI0
aa(lp642
I3
aI14832
aI5
aI5
aI5
aI5
aI5
aI5
aI5
aI10
aI5
aI10
aI10
aI10
aI20
aI30
aI30
aI60
aI70
aI110
aI150
aI210
aI300
aI420
aI600
aI850
aI1200
aI1700
aI1862
aI0
aI0
aI0
aI0
aI0
aI0
aa(lp643
I3
aI14827
aI5
aI5
aI5
aI5
aI5
aI5
aI5
aI10
aI5
aI10
aI10
aI10
aI20
aI30
aI30
aI60
aI70
aI110
aI150
aI210
aI300
aI420
aI600
aI850
aI1200
aI1700
aI1867
aI0
aI0
aI0
aI0
aI0
aI0
aa(lp644
I3
aI14822
aI5
aI5
aI5
aI5
aI5
aI5
aI5
aI10
aI5
aI10
aI10
aI10
aI20
aI30
aI30
aI60
aI70
aI110
aI150
aI210
aI300
aI420
aI600
aI850
aI1200
aI1700
aI1872
aI0
aI0
aI0
aI0
aI0
aI0
aa(lp645
I3
aI14817
aI5
aI5
aI5
aI5
aI5
aI5
aI5
aI10
aI5
aI10
aI10
aI10
aI20
aI30
aI30
aI60
aI70
aI110
aI150
aI210
aI300
aI420
aI600
aI850
aI1200
aI1700
aI1877
aI0
aI0
aI0
aI0
aI0
aI0
aa(lp646
I3
aI14812
aI5
aI5
aI5
aI5
aI5
aI5
aI5
aI10
aI5
aI10
aI10
aI10
aI20
aI30
aI30
aI60
aI70
aI110
aI150
aI210
aI300
aI420
aI600
aI850
aI1200
aI1700
aI1882
aI0
aI0
aI0
aI0
aI0
aI0
aa(lp647
I3
aI14807
aI5
aI5
aI5
aI5
aI5
aI5
aI5
aI10
aI5
aI10
aI10
aI10
aI20
aI30
aI30
aI60
aI70
aI110
aI150
aI210
aI300
aI420
aI600
aI850
aI1200
aI1700
aI1887
aI0
aI0
aI0
aI0
aI0
aI0
aa(lp648
I3
aI14802
aI5
aI5
aI5
aI5
aI5
aI5
aI5
aI10
aI5
aI10
aI10
aI10
aI20
aI30
aI30
aI60
aI70
aI110
aI150
aI210
aI300
aI420
aI600
aI850
aI1200
aI1700
aI1892
aI0
aI0
aI0
aI0
aI0
aI0
aa(lp649
I3
aI14797
aI5
aI5
aI5
aI5
aI5
aI5
aI5
aI10
aI5
aI10
aI10
aI10
aI20
aI30
aI30
aI60
aI70
aI110
aI150
aI210
aI300
aI420
aI600
aI850
aI1200
aI1700
aI1897
aI0
aI0
aI0
aI0
aI0
aI0
aa(lp650
I3
aI14792
aI5
aI5
aI5
aI5
aI5
aI5
aI5
aI10
aI5
aI10
aI10
aI10
aI20
aI30
aI30
aI60
aI70
aI110
aI150
aI210
aI300
aI420
aI600
aI850
aI1200
aI1700
aI1902
aI0
aI0
aI0
aI0
aI0
aI0
aa(lp651
I3
aI14787
aI5
aI5
aI5
aI5
aI5
aI5
aI5
aI10
aI5
aI10
aI10
aI10
aI20
aI30
aI30
aI60
aI70
aI110
aI150
aI210
aI300
aI420
aI600
aI850
aI1200
aI1700
aI1907
aI0
aI0
aI0
aI0
aI0
aI0
aa(lp652
I3
aI14782
aI5
aI5
aI5
aI5
aI5
aI5
aI5
aI10
aI5
aI10
aI10
aI10
aI20
aI30
aI30
aI60
aI70
aI110
aI150
aI210
aI300
aI420
aI600
aI850
aI1200
aI1700
aI1912
aI0
aI0
aI0
aI0
aI0
aI0
aa(lp653
I3
aI14777
aI5
aI5
aI5
aI5
aI5
aI5
aI5
aI10
aI5
aI10
aI10
aI10
aI20
aI30
aI30
aI60
aI70
aI110
aI150
aI210
aI300
aI420
aI600
aI850
aI1200
aI1700
aI1917
aI0
aI0
aI0
aI0
aI0
aI0
aa(lp654
I3
aI14772
aI5
aI5
aI5
aI5
aI5
aI5
aI5
aI10
aI5
aI10
aI10
aI10
aI20
aI30
aI30
aI60
aI70
aI110
aI150
aI210
aI300
aI420
aI600
aI850
aI1200
aI1700
aI1922
aI0
aI0
aI0
aI0
aI0
aI0
aa(lp655
I3
aI14767
aI5
aI5
aI5
aI5
aI5
aI5
aI5
aI10
aI5
aI10
aI10
aI10
aI20
aI30
aI30
aI60
aI70
aI110
aI150
aI210
aI300
aI420
aI600
aI850
aI1200
aI1700
aI1927
aI0
aI0
aI0
aI0
aI0
aI0
aa(lp656
I3
aI14762
aI5
aI5
aI5
aI5
aI5
aI5
aI5
aI10
aI5
aI10
aI10
aI10
aI20
aI30
aI30
aI60
aI70
aI110
aI150
aI210
aI300
aI420
aI600
aI850
aI1200
aI1700
aI1932
aI0
aI0
aI0
aI0
aI0
aI0
aa(lp657
I3
aI14757
aI5
aI5
aI5
aI5
aI5
aI5
aI5
aI10
aI5
aI10
aI10
aI10
aI20
aI30
aI30
aI60
aI70
aI110
aI150
aI210
aI300
aI420
aI600
aI850
aI1200
aI1700
aI1937
aI0
aI0
aI0
aI0
aI0
aI0
aa(lp658
I3
aI14752
aI5
aI5
aI5
aI5
aI5
aI5
aI5
aI10
aI5
aI10
aI10
aI10
aI20
aI30
aI30
aI60
aI70
aI110
aI150
aI210
aI300
aI420
aI600
aI850
aI1200
aI1700
aI1942
aI0
aI0
aI0
aI0
aI0
aI0
aa(lp659
I3
aI14747
aI5
aI5
aI5
aI5
aI5
aI5
aI5
aI10
aI5
aI10
aI10
aI10
aI20
aI30
aI30
aI60
aI70
aI110
aI150
aI210
aI300
aI420
aI600
aI850
aI1200
aI1700
aI1947
aI0
aI0
aI0
aI0
aI0
aI0
aa(lp660
I3
aI14742
aI5
aI5
aI5
aI5
aI5
aI5
aI5
aI10
aI5
aI10
aI10
aI10
aI20
aI30
aI30
aI60
aI70
aI110
aI150
aI210
aI300
aI420
aI600
aI850
aI1200
aI1700
aI1952
aI0
aI0
aI0
aI0
aI0
aI0
aa(lp661
I3
aI14737
aI5
aI5
aI5
aI5
aI5
aI5
aI5
aI10
aI5
aI10
aI10
aI10
aI20
aI30
aI30
aI60
aI70
aI110
aI150
aI210
aI300
aI420
aI600
aI850
aI1200
aI1700
aI1957
aI0
aI0
aI0
aI0
aI0
aI0
aa(lp662
I3
aI14732
aI5
aI5
aI5
aI5
aI5
aI5
aI5
aI10
aI5
aI10
aI10
aI10
aI20
aI30
aI30
aI60
aI70
aI110
aI150
aI210
aI300
aI420
aI600
aI850
aI1200
aI1700
aI1962
aI0
aI0
aI0
aI0
aI0
aI0
aa(lp663
I3
aI14727
aI5
aI5
aI5
aI5
aI5
aI5
aI5
aI10
aI5
aI10
aI10
aI10
aI20
aI30
aI30
aI60
aI70
aI110
aI150
aI210
aI300
aI420
aI600
aI850
aI1200
aI1700
aI1967
aI0
aI0
aI0
aI0
aI0
aI0
aa(lp664
I3
aI14722
aI5
aI5
aI5
aI5
aI5
aI5
aI5
aI10
aI5
aI10
aI10
aI10
aI20
aI30
aI30
aI60
aI70
aI110
aI150
aI210
aI300
aI420
aI600
aI850
aI1200
aI1700
aI1972
aI0
aI0
aI0
aI0
aI0
aI0
aa(lp665
I3
aI14717
aI5
aI5
aI5
aI5
aI5
aI5
aI5
aI10
aI5
aI10
aI10
aI10
aI20
aI30
aI30
aI60
aI70
aI110
aI150
aI210
aI300
aI420
aI600
aI850
aI1200
aI1700
aI1977
aI0
aI0
aI0
aI0
aI0
aI0
aa(lp666
I3
aI14712
aI5
aI5
aI5
aI5
aI5
aI5
aI5
aI10
aI5
aI10
aI10
aI10
aI20
aI30
aI30
aI60
aI70
aI110
aI150
aI210
aI300
aI420
aI600
aI850
aI1200
aI1700
aI1982
aI0
aI0
aI0
aI0
aI0
aI0
aa(lp667
I3
aI14707
aI5
aI5
aI5
aI5
aI5
aI5
aI5
aI10
aI5
aI10
aI10
aI10
aI20
aI30
aI30
aI60
aI70
aI110
aI150
aI210
aI300
aI420
aI600
aI850
aI1200
aI1700
aI1987
aI0
aI0
aI0
aI0
aI0
aI0
aa(lp668
I3
aI14702
aI5
aI5
aI5
aI5
aI5
aI5
aI5
aI10
aI5
aI10
aI10
aI10
aI20
aI30
aI30
aI60
aI70
aI110
aI150
aI210
aI300
aI420
aI600
aI850
aI1200
aI1700
aI1992
aI0
aI0
aI0
aI0
aI0
aI0
aa(lp669
I3
aI14697
aI5
aI5
aI5
aI5
aI5
aI5
aI5
aI10
aI5
aI10
aI10
aI10
aI20
aI30
aI30
aI60
aI70
aI110
aI150
aI210
aI300
aI420
aI600
aI850
aI1200
aI1700
aI1997
aI0
aI0
aI0
aI0
aI0
aI0
aa(lp670
I3
aI14692
aI5
aI5
aI5
aI5
aI5
aI5
aI5
aI10
aI5
aI10
aI10
aI10
aI20
aI30
aI30
aI60
aI70
aI110
aI150
aI210
aI300
aI420
aI600
aI850
aI1200
aI1700
aI2002
aI0
aI0
aI0
aI0
aI0
aI0
aa(lp671
I3
aI14687
aI5
aI5
aI5
aI5
aI5
aI5
aI5
aI10
aI5
aI10
aI10
aI10
aI20
aI30
aI30
aI60
aI70
aI110
aI150
aI210
aI300
aI420
aI600
aI850
aI1200
aI1700
aI2007
aI0
aI0
aI0
aI0
aI0
aI0
aa(lp672
I3
aI14682
aI5
aI5
aI5
aI5
aI5
aI5
aI5
aI10
aI5
aI10
aI10
aI10
aI20
aI30
aI30
aI60
aI70
aI110
aI150
aI210
aI300
aI420
aI600
aI850
aI1200
aI1700
aI2012
aI0
aI0
aI0
aI0
aI0
aI0
aa(lp673
I3
aI14677
aI5
aI5
aI5
aI5
aI5
aI5
aI5
aI10
aI5
aI10
aI10
aI10
aI20
aI30
aI30
aI60
aI70
aI110
aI150
aI210
aI300
aI420
aI600
aI850
aI1200
aI1700
aI2017
aI0
aI0
aI0
aI0
aI0
aI0
aa(lp674
I3
aI14672
aI5
aI5
aI5
aI5
aI5
aI5
aI5
aI10
aI5
aI10
aI10
aI10
aI20
aI30
aI30
aI60
aI70
aI110
aI150
aI210
aI300
aI420
aI600
aI850
aI1200
aI1700
aI2022
aI0
aI0
aI0
aI0
aI0
aI0
aa(lp675
I3
aI14667
aI5
aI5
aI5
aI5
aI5
aI5
aI5
aI10
aI5
aI10
aI10
aI10
aI20
aI30
aI30
aI60
aI70
aI110
aI150
aI210
aI300
aI420
aI600
aI850
aI1200
aI1700
aI2027
aI0
aI0
aI0
aI0
aI0
aI0
aa(lp676
I3
aI14662
aI5
aI5
aI5
aI5
aI5
aI5
aI5
aI10
aI5
aI10
aI10
aI10
aI20
aI30
aI30
aI60
aI70
aI110
aI150
aI210
aI300
aI420
aI600
aI850
aI1200
aI1700
aI2032
aI0
aI0
aI0
aI0
aI0
aI0
aa(lp677
I3
aI14657
aI5
aI5
aI5
aI5
aI5
aI5
aI5
aI10
aI5
aI10
aI10
aI10
aI20
aI30
aI30
aI60
aI70
aI110
aI150
aI210
aI300
aI420
aI600
aI850
aI1200
aI1700
aI2037
aI0
aI0
aI0
aI0
aI0
aI0
aa(lp678
I3
aI14652
aI5
aI5
aI5
aI5
aI5
aI5
aI5
aI10
aI5
aI10
aI10
aI10
aI20
aI30
aI30
aI60
aI70
aI110
aI150
aI210
aI300
aI420
aI600
aI850
aI1200
aI1700
aI2042
aI0
aI0
aI0
aI0
aI0
aI0
aa(lp679
I3
aI14647
aI5
aI5
aI5
aI5
aI5
aI5
aI5
aI10
aI5
aI10
aI10
aI10
aI20
aI30
aI30
aI60
aI70
aI110
aI150
aI210
aI300
aI420
aI600
aI850
aI1200
aI1700
aI2047
aI0
aI0
aI0
aI0
aI0
aI0
aa(lp680
I3
aI14642
aI5
aI5
aI5
aI5
aI5
aI5
aI5
aI10
aI5
aI10
aI10
aI10
aI20
aI30
aI30
aI60
aI70
aI110
aI150
aI210
aI300
aI420
aI600
aI850
aI1200
aI1700
aI2052
aI0
aI0
aI0
aI0
aI0
aI0
aa(lp681
I3
aI14637
aI5
aI5
aI5
aI5
aI5
aI5
aI5
aI10
aI5
aI10
aI10
aI10
aI20
aI30
aI30
aI60
aI70
aI110
aI150
aI210
aI300
aI420
aI600
aI850
aI1200
aI1700
aI2057
aI0
aI0
aI0
aI0
aI0
aI0
aa(lp682
I3
aI14632
aI5
aI5
aI5
aI5
aI5
aI5
aI5
aI10
aI5
aI10
aI10
aI10
aI20
aI30
aI30
aI60
aI70
aI110
aI150
aI210
aI300
aI420
aI600
aI850
aI1200
aI1700
aI2062
aI0
aI0
aI0
aI0
aI0
aI0
aa(lp683
I3
aI14627
aI5
aI5
aI5
aI5
aI5
aI5
aI5
aI10
aI5
aI10
aI10
aI10
aI20
aI30
aI30
aI60
aI70
aI110
aI150
aI210
aI300
aI420
aI600
aI850
aI1200
aI1700
aI2067
aI0
aI0
aI0
aI0
aI0
aI0
aa(lp684
I3
aI14622
aI5
aI5
aI5
aI5
aI5
aI5
aI5
aI10
aI5
aI10
aI10
aI10
aI20
aI30
aI30
aI60
aI70
aI110
aI150
aI210
aI300
aI420
aI600
aI850
aI1200
aI1700
aI2072
aI0
aI0
aI0
aI0
aI0
aI0
aa(lp685
I3
aI14617
aI5
aI5
aI5
aI5
aI5
aI5
aI5
aI10
aI5
aI10
aI10
aI10
aI20
aI30
aI30
aI60
aI70
aI110
aI150
aI210
aI300
aI420
aI600
aI850
aI1200
aI1700
aI2077
aI0
aI0
aI0
aI0
aI0
aI0
aa(lp686
I3
aI14612
aI5
aI5
aI5
aI5
aI5
aI5
aI5
aI10
aI5
aI10
aI10
aI10
aI20
aI30
aI30
aI60
aI70
aI110
aI150
aI210
aI300
aI420
aI600
aI850
aI1200
aI1700
aI2082
aI0
aI0
aI0
aI0
aI0
aI0
aa(lp687
I3
aI14607
aI5
aI5
aI5
aI5
aI5
aI5
aI5
aI10
aI5
aI10
aI10
aI10
aI20
aI30
aI30
aI60
aI70
aI110
aI150
aI210
aI300
aI420
aI600
aI850
aI1200
aI1700
aI2087
aI0
aI0
aI0
aI0
aI0
aI0
aa(lp688
I3
aI14602
aI5
aI5
aI5
aI5
aI5
aI5
aI5
aI10
aI5
aI10
aI10
aI10
aI20
aI30
aI30
aI60
aI70
aI110
aI150
aI210
aI300
aI420
aI600
aI850
aI1200
aI1700
aI2092
aI0
aI0
aI0
aI0
aI0
aI0
aa(lp689
I3
aI14597
aI5
aI5
aI5
aI5
aI5
aI5
aI5
aI10
aI5
aI10
aI10
aI10
aI20
aI30
aI30
aI60
aI70
aI110
aI150
aI210
aI300
aI420
aI600
aI850
aI1200
aI1700
aI2097
aI0
aI0
aI0
aI0
aI0
aI0
aa(lp690
I3
aI14592
aI5
aI5
aI5
aI5
aI5
aI5
aI5
aI10
aI5
aI10
aI10
aI10
aI20
aI30
aI30
aI60
aI70
aI110
aI150
aI210
aI300
aI420
aI600
aI850
aI1200
aI1700
aI2102
aI0
aI0
aI0
aI0
aI0
aI0
aa(lp691
I3
aI14587
aI5
aI5
aI5
aI5
aI5
aI5
aI5
aI10
aI5
aI10
aI10
aI10
aI20
aI30
aI30
aI60
aI70
aI110
aI150
aI210
aI300
aI420
aI600
aI850
aI1200
aI1700
aI2107
aI0
aI0
aI0
aI0
aI0
aI0
aa(lp692
I3
aI14582
aI5
aI5
aI5
aI5
aI5
aI5
aI5
aI10
aI5
aI10
aI10
aI10
aI20
aI30
aI30
aI60
aI70
aI110
aI150
aI210
aI300
aI420
aI600
aI850
aI1200
aI1700
aI2112
aI0
aI0
aI0
aI0
aI0
aI0
aa(lp693
I3
aI14577
aI5
aI5
aI5
aI5
aI5
aI5
aI5
aI10
aI5
aI10
aI10
aI10
aI20
aI30
aI30
aI60
aI70
aI110
aI150
aI210
aI300
aI420
aI600
aI850
aI1200
aI1700
aI2117
aI0
aI0
aI0
aI0
aI0
aI0
aa(lp694
I3
aI14572
aI5
aI5
aI5
aI5
aI5
aI5
aI5
aI10
aI5
aI10
aI10
aI10
aI20
aI30
aI30
aI60
aI70
aI110
aI150
aI210
aI300
aI420
aI600
aI850
aI1200
aI1700
aI2122
aI0
aI0
aI0
aI0
aI0
aI0
aa(lp695
I3
aI14567
aI5
aI5
aI5
aI5
aI5
aI5
aI5
aI10
aI5
aI10
aI10
aI10
aI20
aI30
aI30
aI60
aI70
aI110
aI150
aI210
aI300
aI420
aI600
aI850
aI1200
aI1700
aI2127
aI0
aI0
aI0
aI0
aI0
aI0
aa(lp696
I3
aI14562
aI5
aI5
aI5
aI5
aI5
aI5
aI5
aI10
aI5
aI10
aI10
aI10
aI20
aI30
aI30
aI60
aI70
aI110
aI150
aI210
aI300
aI420
aI600
aI850
aI1200
aI1700
aI2132
aI0
aI0
aI0
aI0
aI0
aI0
aa(lp697
I3
aI14557
aI5
aI5
aI5
aI5
aI5
aI5
aI5
aI10
aI5
aI10
aI10
aI10
aI20
aI30
aI30
aI60
aI70
aI110
aI150
aI210
aI300
aI420
aI600
aI850
aI1200
aI1700
aI2137
aI0
aI0
aI0
aI0
aI0
aI0
aa(lp698
I3
aI14552
aI5
aI5
aI5
aI5
aI5
aI5
aI5
aI10
aI5
aI10
aI10
aI10
aI20
aI30
aI30
aI60
aI70
aI110
aI150
aI210
aI300
aI420
aI600
aI850
aI1200
aI1700
aI2142
aI0
aI0
aI0
aI0
aI0
aI0
aa(lp699
I3
aI14547
aI5
aI5
aI5
aI5
aI5
aI5
aI5
aI10
aI5
aI10
aI10
aI10
aI20
aI30
aI30
aI60
aI70
aI110
aI150
aI210
aI300
aI420
aI600
aI850
aI1200
aI1700
aI2147
aI0
aI0
aI0
aI0
aI0
aI0
aa(lp700
I3
aI14542
aI5
aI5
aI5
aI5
aI5
aI5
aI5
aI10
aI5
aI10
aI10
aI10
aI20
aI30
aI30
aI60
aI70
aI110
aI150
aI210
aI300
aI420
aI600
aI850
aI1200
aI1700
aI2152
aI0
aI0
aI0
aI0
aI0
aI0
aa(lp701
I3
aI14537
aI5
aI5
aI5
aI5
aI5
aI5
aI5
aI10
aI5
aI10
aI10
aI10
aI20
aI30
aI30
aI60
aI70
aI110
aI150
aI210
aI300
aI420
aI600
aI850
aI1200
aI1700
aI2157
aI0
aI0
aI0
aI0
aI0
aI0
aa(lp702
I3
aI14532
aI5
aI5
aI5
aI5
aI5
aI5
aI5
aI10
aI5
aI10
aI10
aI10
aI20
aI30
aI30
aI60
aI70
aI110
aI150
aI210
aI300
aI420
aI600
aI850
aI1200
aI1700
aI2162
aI0
aI0
aI0
aI0
aI0
aI0
aa(lp703
I3
aI14527
aI5
aI5
aI5
aI5
aI5
aI5
aI5
aI10
aI5
aI10
aI10
aI10
aI20
aI30
aI30
aI60
aI70
aI110
aI150
aI210
aI300
aI420
aI600
aI850
aI1200
aI1700
aI2167
aI0
aI0
aI0
aI0
aI0
aI0
aa(lp704
I3
aI14522
aI5
aI5
aI5
aI5
aI5
aI5
aI5
aI10
aI5
aI10
aI10
aI10
aI20
aI30
aI30
aI60
aI70
aI110
aI150
aI210
aI300
aI420
aI600
aI850
aI1200
aI1700
aI2172
aI0
aI0
aI0
aI0
aI0
aI0
aa(lp705
I3
aI14517
aI5
aI5
aI5
aI5
aI5
aI5
aI5
aI10
aI5
aI10
aI10
aI10
aI20
aI30
aI30
aI60
aI70
aI110
aI150
aI210
aI300
aI420
aI600
aI850
aI1200
aI1700
aI2177
aI0
aI0
aI0
aI0
aI0
aI0
aa(lp706
I3
aI14512
aI5
aI5
aI5
aI5
aI5
aI5
aI5
aI10
aI5
aI10
aI10
aI10
aI20
aI30
aI30
aI60
aI70
aI110
aI150
aI210
aI300
aI420
aI600
aI850
aI1200
aI1700
aI2182
aI0
aI0
aI0
aI0
aI0
aI0
aa(lp707
I3
aI14507
aI5
aI5
aI5
aI5
aI5
aI5
aI5
aI10
aI5
aI10
aI10
aI10
aI20
aI30
aI30
aI60
aI70
aI110
aI150
aI210
aI300
aI420
aI600
aI850
aI1200
aI1700
aI2187
aI0
aI0
aI0
aI0
aI0
aI0
aa(lp708
I3
aI14502
aI5
aI5
aI5
aI5
aI5
aI5
aI5
aI10
aI5
aI10
aI10
aI10
aI20
aI30
aI30
aI60
aI70
aI110
aI150
aI210
aI300
aI420
aI600
aI850
aI1200
aI1700
aI2192
aI0
aI0
aI0
aI0
aI0
aI0
aa(lp709
I3
aI14497
aI5
aI5
aI5
aI5
aI5
aI5
aI5
aI10
aI5
aI10
aI10
aI10
aI20
aI30
aI30
aI60
aI70
aI110
aI150
aI210
aI300
aI420
aI600
aI850
aI1200
aI1700
aI2197
aI0
aI0
aI0
aI0
aI0
aI0
aa(lp710
I3
aI14492
aI5
aI5
aI5
aI5
aI5
aI5
aI5
aI10
aI5
aI10
aI10
aI10
aI20
aI30
aI30
aI60
aI70
aI110
aI150
aI210
aI300
aI420
aI600
aI850
aI1200
aI1700
aI2202
aI0
aI0
aI0
aI0
aI0
aI0
aa(lp711
I3
aI14487
aI5
aI5
aI5
aI5
aI5
aI5
aI5
aI10
aI5
aI10
aI10
aI10
aI20
aI30
aI30
aI60
aI70
aI110
aI150
aI210
aI300
aI420
aI600
aI850
aI1200
aI1700
aI2207
aI0
aI0
aI0
aI0
aI0
aI0
aa(lp712
I3
aI14482
aI5
aI5
aI5
aI5
aI5
aI5
aI5
aI10
aI5
aI10
aI10
aI10
aI20
aI30
aI30
aI60
aI70
aI110
aI150
aI210
aI300
aI420
aI600
aI850
aI1200
aI1700
aI2212
aI0
aI0
aI0
aI0
aI0
aI0
aa(lp713
I3
aI14477
aI5
aI5
aI5
aI5
aI5
aI5
aI5
aI10
aI5
aI10
aI10
aI10
aI20
aI30
aI30
aI60
aI70
aI110
aI150
aI210
aI300
aI420
aI600
aI850
aI1200
aI1700
aI2217
aI0
aI0
aI0
aI0
aI0
aI0
aa(lp714
I3
aI14472
aI5
aI5
aI5
aI5
aI5
aI5
aI5
aI10
aI5
aI10
aI10
aI10
aI20
aI30
aI30
aI60
aI70
aI110
aI150
aI210
aI300
aI420
aI600
aI850
aI1200
aI1700
aI2222
aI0
aI0
aI0
aI0
aI0
aI0
aa(lp715
I3
aI14467
aI5
aI5
aI5
aI5
aI5
aI5
aI5
aI10
aI5
aI10
aI10
aI10
aI20
aI30
aI30
aI60
aI70
aI110
aI150
aI210
aI300
aI420
aI600
aI850
aI1200
aI1700
aI2227
aI0
aI0
aI0
aI0
aI0
aI0
aa(lp716
I3
aI14462
aI5
aI5
aI5
aI5
aI5
aI5
aI5
aI10
aI5
aI10
aI10
aI10
aI20
aI30
aI30
aI60
aI70
aI110
aI150
aI210
aI300
aI420
aI600
aI850
aI1200
aI1700
aI2232
aI0
aI0
aI0
aI0
aI0
aI0
aa(lp717
I3
aI14457
aI5
aI5
aI5
aI5
aI5
aI5
aI5
aI10
aI5
aI10
aI10
aI10
aI20
aI30
aI30
aI60
aI70
aI110
aI150
aI210
aI300
aI420
aI600
aI850
aI1200
aI1700
aI2237
aI0
aI0
aI0
aI0
aI0
aI0
aa(lp718
I3
aI14452
aI5
aI5
aI5
aI5
aI5
aI5
aI5
aI10
aI5
aI10
aI10
aI10
aI20
aI30
aI30
aI60
aI70
aI110
aI150
aI210
aI300
aI420
aI600
aI850
aI1200
aI1700
aI2242
aI0
aI0
aI0
aI0
aI0
aI0
aa(lp719
I3
aI14447
aI5
aI5
aI5
aI5
aI5
aI5
aI5
aI10
aI5
aI10
aI10
aI10
aI20
aI30
aI30
aI60
aI70
aI110
aI150
aI210
aI300
aI420
aI600
aI850
aI1200
aI1700
aI2247
aI0
aI0
aI0
aI0
aI0
aI0
aa(lp720
I3
aI14442
aI5
aI5
aI5
aI5
aI5
aI5
aI5
aI10
aI5
aI10
aI10
aI10
aI20
aI30
aI30
aI60
aI70
aI110
aI150
aI210
aI300
aI420
aI600
aI850
aI1200
aI1700
aI2252
aI0
aI0
aI0
aI0
aI0
aI0
aa(lp721
I3
aI14437
aI5
aI5
aI5
aI5
aI5
aI5
aI5
aI10
aI5
aI10
aI10
aI10
aI20
aI30
aI30
aI60
aI70
aI110
aI150
aI210
aI300
aI420
aI600
aI850
aI1200
aI1700
aI2257
aI0
aI0
aI0
aI0
aI0
aI0
aa(lp722
I3
aI14432
aI5
aI5
aI5
aI5
aI5
aI5
aI5
aI10
aI5
aI10
aI10
aI10
aI20
aI30
aI30
aI60
aI70
aI110
aI150
aI210
aI300
aI420
aI600
aI850
aI1200
aI1700
aI2262
aI0
aI0
aI0
aI0
aI0
aI0
aa(lp723
I3
aI14427
aI5
aI5
aI5
aI5
aI5
aI5
aI5
aI10
aI5
aI10
aI10
aI10
aI20
aI30
aI30
aI60
aI70
aI110
aI150
aI210
aI300
aI420
aI600
aI850
aI1200
aI1700
aI2267
aI0
aI0
aI0
aI0
aI0
aI0
aa(lp724
I3
aI14422
aI5
aI5
aI5
aI5
aI5
aI5
aI5
aI10
aI5
aI10
aI10
aI10
aI20
aI30
aI30
aI60
aI70
aI110
aI150
aI210
aI300
aI420
aI600
aI850
aI1200
aI1700
aI2272
aI0
aI0
aI0
aI0
aI0
aI0
aa(lp725
I3
aI14417
aI5
aI5
aI5
aI5
aI5
aI5
aI5
aI10
aI5
aI10
aI10
aI10
aI20
aI30
aI30
aI60
aI70
aI110
aI150
aI210
aI300
aI420
aI600
aI850
aI1200
aI1700
aI2277
aI0
aI0
aI0
aI0
aI0
aI0
aa(lp726
I3
aI14412
aI5
aI5
aI5
aI5
aI5
aI5
aI5
aI10
aI5
aI10
aI10
aI10
aI20
aI30
aI30
aI60
aI70
aI110
aI150
aI210
aI300
aI420
aI600
aI850
aI1200
aI1700
aI2282
aI0
aI0
aI0
aI0
aI0
aI0
aa(lp727
I3
aI14407
aI5
aI5
aI5
aI5
aI5
aI5
aI5
aI10
aI5
aI10
aI10
aI10
aI20
aI30
aI30
aI60
aI70
aI110
aI150
aI210
aI300
aI420
aI600
aI850
aI1200
aI1700
aI2287
aI0
aI0
aI0
aI0
aI0
aI0
aa(lp728
I3
aI14402
aI5
aI5
aI5
aI5
aI5
aI5
aI5
aI10
aI5
aI10
aI10
aI10
aI20
aI30
aI30
aI60
aI70
aI110
aI150
aI210
aI300
aI420
aI600
aI850
aI1200
aI1700
aI2292
aI0
aI0
aI0
aI0
aI0
aI0
aa(lp729
I3
aI14397
aI5
aI5
aI5
aI5
aI5
aI5
aI5
aI10
aI5
aI10
aI10
aI10
aI20
aI30
aI30
aI60
aI70
aI110
aI150
aI210
aI300
aI420
aI600
aI850
aI1200
aI1700
aI2297
aI0
aI0
aI0
aI0
aI0
aI0
aa(lp730
I3
aI14392
aI5
aI5
aI5
aI5
aI5
aI5
aI5
aI10
aI5
aI10
aI10
aI10
aI20
aI30
aI30
aI60
aI70
aI110
aI150
aI210
aI300
aI420
aI600
aI850
aI1200
aI1700
aI2302
aI0
aI0
aI0
aI0
aI0
aI0
aa(lp731
I3
aI14387
aI5
aI5
aI5
aI5
aI5
aI5
aI5
aI10
aI5
aI10
aI10
aI10
aI20
aI30
aI30
aI60
aI70
aI110
aI150
aI210
aI300
aI420
aI600
aI850
aI1200
aI1700
aI2307
aI0
aI0
aI0
aI0
aI0
aI0
aa(lp732
I3
aI14382
aI5
aI5
aI5
aI5
aI5
aI5
aI5
aI10
aI5
aI10
aI10
aI10
aI20
aI30
aI30
aI60
aI70
aI110
aI150
aI210
aI300
aI420
aI600
aI850
aI1200
aI1700
aI2312
aI0
aI0
aI0
aI0
aI0
aI0
aa(lp733
I3
aI14377
aI5
aI5
aI5
aI5
aI5
aI5
aI5
aI10
aI5
aI10
aI10
aI10
aI20
aI30
aI30
aI60
aI70
aI110
aI150
aI210
aI300
aI420
aI600
aI850
aI1200
aI1700
aI2317
aI0
aI0
aI0
aI0
aI0
aI0
aa(lp734
I3
aI14372
aI5
aI5
aI5
aI5
aI5
aI5
aI5
aI10
aI5
aI10
aI10
aI10
aI20
aI30
aI30
aI60
aI70
aI110
aI150
aI210
aI300
aI420
aI600
aI850
aI1200
aI1700
aI2322
aI0
aI0
aI0
aI0
aI0
aI0
aa(lp735
I3
aI14367
aI5
aI5
aI5
aI5
aI5
aI5
aI5
aI10
aI5
aI10
aI10
aI10
aI20
aI30
aI30
aI60
aI70
aI110
aI150
aI210
aI300
aI420
aI600
aI850
aI1200
aI1700
aI2327
aI0
aI0
aI0
aI0
aI0
aI0
aa(lp736
I3
aI14362
aI5
aI5
aI5
aI5
aI5
aI5
aI5
aI10
aI5
aI10
aI10
aI10
aI20
aI30
aI30
aI60
aI70
aI110
aI150
aI210
aI300
aI420
aI600
aI850
aI1200
aI1700
aI2332
aI0
aI0
aI0
aI0
aI0
aI0
aa(lp737
I3
aI14357
aI5
aI5
aI5
aI5
aI5
aI5
aI5
aI10
aI5
aI10
aI10
aI10
aI20
aI30
aI30
aI60
aI70
aI110
aI150
aI210
aI300
aI420
aI600
aI850
aI1200
aI1700
aI2337
aI0
aI0
aI0
aI0
aI0
aI0
aa(lp738
I3
aI14352
aI5
aI5
aI5
aI5
aI5
aI5
aI5
aI10
aI5
aI10
aI10
aI10
aI20
aI30
aI30
aI60
aI70
aI110
aI150
aI210
aI300
aI420
aI600
aI850
aI1200
aI1700
aI2342
aI0
aI0
aI0
aI0
aI0
aI0
aa(lp739
I3
aI14347
aI5
aI5
aI5
aI5
aI5
aI5
aI5
aI10
aI5
aI10
aI10
aI10
aI20
aI30
aI30
aI60
aI70
aI110
aI150
aI210
aI300
aI420
aI600
aI850
aI1200
aI1700
aI2347
aI0
aI0
aI0
aI0
aI0
aI0
aa(lp740
I3
aI14342
aI5
aI5
aI5
aI5
aI5
aI5
aI5
aI10
aI5
aI10
aI10
aI10
aI20
aI30
aI30
aI60
aI70
aI110
aI150
aI210
aI300
aI420
aI600
aI850
aI1200
aI1700
aI2352
aI0
aI0
aI0
aI0
aI0
aI0
aa(lp741
I3
aI14337
aI5
aI5
aI5
aI5
aI5
aI5
aI5
aI10
aI5
aI10
aI10
aI10
aI20
aI30
aI30
aI60
aI70
aI110
aI150
aI210
aI300
aI420
aI600
aI850
aI1200
aI1700
aI2357
aI0
aI0
aI0
aI0
aI0
aI0
aa(lp742
I3
aI14332
aI5
aI5
aI5
aI5
aI5
aI5
aI5
aI10
aI5
aI10
aI10
aI10
aI20
aI30
aI30
aI60
aI70
aI110
aI150
aI210
aI300
aI420
aI600
aI850
aI1200
aI1700
aI2362
aI0
aI0
aI0
aI0
aI0
aI0
aa(lp743
I3
aI14327
aI5
aI5
aI5
aI5
aI5
aI5
aI5
aI10
aI5
aI10
aI10
aI10
aI20
aI30
aI30
aI60
aI70
aI110
aI150
aI210
aI300
aI420
aI600
aI850
aI1200
aI1700
aI2367
aI0
aI0
aI0
aI0
aI0
aI0
aa(lp744
I3
aI14322
aI5
aI5
aI5
aI5
aI5
aI5
aI5
aI10
aI5
aI10
aI10
aI10
aI20
aI30
aI30
aI60
aI70
aI110
aI150
aI210
aI300
aI420
aI600
aI850
aI1200
aI1700
aI2372
aI0
aI0
aI0
aI0
aI0
aI0
aa(lp745
I3
aI14317
aI5
aI5
aI5
aI5
aI5
aI5
aI5
aI10
aI5
aI10
aI10
aI10
aI20
aI30
aI30
aI60
aI70
aI110
aI150
aI210
aI300
aI420
aI600
aI850
aI1200
aI1700
aI2377
aI0
aI0
aI0
aI0
aI0
aI0
aa(lp746
I3
aI14312
aI5
aI5
aI5
aI5
aI5
aI5
aI5
aI10
aI5
aI10
aI10
aI10
aI20
aI30
aI30
aI60
aI70
aI110
aI150
aI210
aI300
aI420
aI600
aI850
aI1200
aI1700
aI2382
aI0
aI0
aI0
aI0
aI0
aI0
aa(lp747
I3
aI14307
aI5
aI5
aI5
aI5
aI5
aI5
aI5
aI10
aI5
aI10
aI10
aI10
aI20
aI30
aI30
aI60
aI70
aI110
aI150
aI210
aI300
aI420
aI600
aI850
aI1200
aI1700
aI2387
aI0
aI0
aI0
aI0
aI0
aI0
aa(lp748
I3
aI14302
aI5
aI5
aI5
aI5
aI5
aI5
aI5
aI10
aI5
aI10
aI10
aI10
aI20
aI30
aI30
aI60
aI70
aI110
aI150
aI210
aI300
aI420
aI600
aI850
aI1200
aI1700
aI2392
aI0
aI0
aI0
aI0
aI0
aI0
aa(lp749
I3
aI14297
aI5
aI5
aI5
aI5
aI5
aI5
aI5
aI10
aI5
aI10
aI10
aI10
aI20
aI30
aI30
aI60
aI70
aI110
aI150
aI210
aI300
aI420
aI600
aI850
aI1200
aI1700
aI2397
aI0
aI0
aI0
aI0
aI0
aI0
aa(lp750
I3
aI14292
aI5
aI5
aI5
aI5
aI5
aI5
aI5
aI10
aI5
aI10
aI10
aI10
aI20
aI30
aI30
aI60
aI70
aI110
aI150
aI210
aI300
aI420
aI600
aI850
aI1200
aI1700
aI2402
aI0
aI0
aI0
aI0
aI0
aI0
aa(lp751
I3
aI14287
aI5
aI5
aI5
aI5
aI5
aI5
aI5
aI10
aI5
aI10
aI10
aI10
aI20
aI30
aI30
aI60
aI70
aI110
aI150
aI210
aI300
aI420
aI600
aI850
aI1200
aI1700
aI2407
aI0
aI0
aI0
aI0
aI0
aI0
aa(lp752
I3
aI14282
aI5
aI5
aI5
aI5
aI5
aI5
aI5
aI10
aI5
aI10
aI10
aI10
aI20
aI30
aI30
aI60
aI70
aI110
aI150
aI210
aI300
aI420
aI600
aI850
aI1200
aI1700
aI2412
aI0
aI0
aI0
aI0
aI0
aI0
aa(lp753
I3
aI14277
aI5
aI5
aI5
aI5
aI5
aI5
aI5
aI10
aI5
aI10
aI10
aI10
aI20
aI30
aI30
aI60
aI70
aI110
aI150
aI210
aI300
aI420
aI600
aI850
aI1200
aI1700
aI2417
aI0
aI0
aI0
aI0
aI0
aI0
aa(lp754
I3
aI14272
aI5
aI5
aI5
aI5
aI5
aI5
aI5
aI10
aI5
aI10
aI10
aI10
aI20
aI30
aI30
aI60
aI70
aI110
aI150
aI210
aI300
aI420
aI600
aI850
aI1200
aI1700
aI2422
aI0
aI0
aI0
aI0
aI0
aI0
aa(lp755
I3
aI14267
aI5
aI5
aI5
aI5
aI5
aI5
aI5
aI10
aI5
aI10
aI10
aI10
aI20
aI30
aI30
aI60
aI70
aI110
aI150
aI210
aI300
aI420
aI600
aI850
aI1200
aI1700
aI2427
aI0
aI0
aI0
aI0
aI0
aI0
aa(lp756
I3
aI14262
aI5
aI5
aI5
aI5
aI5
aI5
aI5
aI10
aI5
aI10
aI10
aI10
aI20
aI30
aI30
aI60
aI70
aI110
aI150
aI210
aI300
aI420
aI600
aI850
aI1200
aI1700
aI2432
aI0
aI0
aI0
aI0
aI0
aI0
aa(lp757
I3
aI14257
aI5
aI5
aI5
aI5
aI5
aI5
aI5
aI10
aI5
aI10
aI10
aI10
aI20
aI30
aI30
aI60
aI70
aI110
aI150
aI210
aI300
aI420
aI600
aI850
aI1200
aI1700
aI2437
aI0
aI0
aI0
aI0
aI0
aI0
aa(lp758
I3
aI14252
aI5
aI5
aI5
aI5
aI5
aI5
aI5
aI10
aI5
aI10
aI10
aI10
aI20
aI30
aI30
aI60
aI70
aI110
aI150
aI210
aI300
aI420
aI600
aI850
aI1200
aI1700
aI2442
aI0
aI0
aI0
aI0
aI0
aI0
aa(lp759
I3
aI14247
aI5
aI5
aI5
aI5
aI5
aI5
aI5
aI10
aI5
aI10
aI10
aI10
aI20
aI30
aI30
aI60
aI70
aI110
aI150
aI210
aI300
aI420
aI600
aI850
aI1200
aI1700
aI2447
aI0
aI0
aI0
aI0
aI0
aI0
aa(lp760
I3
aI14242
aI5
aI5
aI5
aI5
aI5
aI5
aI5
aI10
aI5
aI10
aI10
aI10
aI20
aI30
aI30
aI60
aI70
aI110
aI150
aI210
aI300
aI420
aI600
aI850
aI1200
aI1700
aI2452
aI0
aI0
aI0
aI0
aI0
aI0
aa(lp761
I3
aI14237
aI5
aI5
aI5
aI5
aI5
aI5
aI5
aI10
aI5
aI10
aI10
aI10
aI20
aI30
aI30
aI60
aI70
aI110
aI150
aI210
aI300
aI420
aI600
aI850
aI1200
aI1700
aI2457
aI0
aI0
aI0
aI0
aI0
aI0
aa(lp762
I3
aI14232
aI5
aI5
aI5
aI5
aI5
aI5
aI5
aI10
aI5
aI10
aI10
aI10
aI20
aI30
aI30
aI60
aI70
aI110
aI150
aI210
aI300
aI420
aI600
aI850
aI1200
aI1700
aI2462
aI0
aI0
aI0
aI0
aI0
aI0
aa(lp763
I3
aI14227
aI5
aI5
aI5
aI5
aI5
aI5
aI5
aI10
aI5
aI10
aI10
aI10
aI20
aI30
aI30
aI60
aI70
aI110
aI150
aI210
aI300
aI420
aI600
aI850
aI1200
aI1700
aI2467
aI0
aI0
aI0
aI0
aI0
aI0
aa(lp764
I3
aI14222
aI5
aI5
aI5
aI5
aI5
aI5
aI5
aI10
aI5
aI10
aI10
aI10
aI20
aI30
aI30
aI60
aI70
aI110
aI150
aI210
aI300
aI420
aI600
aI850
aI1200
aI1700
aI2472
aI0
aI0
aI0
aI0
aI0
aI0
aa(lp765
I3
aI14217
aI5
aI5
aI5
aI5
aI5
aI5
aI5
aI10
aI5
aI10
aI10
aI10
aI20
aI30
aI30
aI60
aI70
aI110
aI150
aI210
aI300
aI420
aI600
aI850
aI1200
aI1700
aI2477
aI0
aI0
aI0
aI0
aI0
aI0
aa(lp766
I3
aI14212
aI5
aI5
aI5
aI5
aI5
aI5
aI5
aI10
aI5
aI10
aI10
aI10
aI20
aI30
aI30
aI60
aI70
aI110
aI150
aI210
aI300
aI420
aI600
aI850
aI1200
aI1700
aI2482
aI0
aI0
aI0
aI0
aI0
aI0
aa(lp767
I3
aI14207
aI5
aI5
aI5
aI5
aI5
aI5
aI5
aI10
aI5
aI10
aI10
aI10
aI20
aI30
aI30
aI60
aI70
aI110
aI150
aI210
aI300
aI420
aI600
aI850
aI1200
aI1700
aI2487
aI0
aI0
aI0
aI0
aI0
aI0
aa(lp768
I3
aI14202
aI5
aI5
aI5
aI5
aI5
aI5
aI5
aI10
aI5
aI10
aI10
aI10
aI20
aI30
aI30
aI60
aI70
aI110
aI150
aI210
aI300
aI420
aI600
aI850
aI1200
aI1700
aI2492
aI0
aI0
aI0
aI0
aI0
aI0
aa(lp769
I3
aI14197
aI5
aI5
aI5
aI5
aI5
aI5
aI5
aI10
aI5
aI10
aI10
aI10
aI20
aI30
aI30
aI60
aI70
aI110
aI150
aI210
aI300
aI420
aI600
aI850
aI1200
aI1700
aI2497
aI0
aI0
aI0
aI0
aI0
aI0
aa(lp770
I3
aI14192
aI5
aI5
aI5
aI5
aI5
aI5
aI5
aI10
aI5
aI10
aI10
aI10
aI20
aI30
aI30
aI60
aI70
aI110
aI150
aI210
aI300
aI420
aI600
aI850
aI1200
aI1700
aI2502
aI0
aI0
aI0
aI0
aI0
aI0
aa(lp771
I3
aI14187
aI5
aI5
aI5
aI5
aI5
aI5
aI5
aI10
aI5
aI10
aI10
aI10
aI20
aI30
aI30
aI60
aI70
aI110
aI150
aI210
aI300
aI420
aI600
aI850
aI1200
aI1700
aI2507
aI0
aI0
aI0
aI0
aI0
aI0
aa(lp772
I3
aI14182
aI5
aI5
aI5
aI5
aI5
aI5
aI5
aI10
aI5
aI10
aI10
aI10
aI20
aI30
aI30
aI60
aI70
aI110
aI150
aI210
aI300
aI420
aI600
aI850
aI1200
aI1700
aI2512
aI0
aI0
aI0
aI0
aI0
aI0
aa(lp773
I3
aI14177
aI5
aI5
aI5
aI5
aI5
aI5
aI5
aI10
aI5
aI10
aI10
aI10
aI20
aI30
aI30
aI60
aI70
aI110
aI150
aI210
aI300
aI420
aI600
aI850
aI1200
aI1700
aI2517
aI0
aI0
aI0
aI0
aI0
aI0
aa(lp774
I3
aI14172
aI5
aI5
aI5
aI5
aI5
aI5
aI5
aI10
aI5
aI10
aI10
aI10
aI20
aI30
aI30
aI60
aI70
aI110
aI150
aI210
aI300
aI420
aI600
aI850
aI1200
aI1700
aI2522
aI0
aI0
aI0
aI0
aI0
aI0
aa(lp775
I3
aI14167
aI5
aI5
aI5
aI5
aI5
aI5
aI5
aI10
aI5
aI10
aI10
aI10
aI20
aI30
aI30
aI60
aI70
aI110
aI150
aI210
aI300
aI420
aI600
aI850
aI1200
aI1700
aI2527
aI0
aI0
aI0
aI0
aI0
aI0
aa(lp776
I3
aI14162
aI5
aI5
aI5
aI5
aI5
aI5
aI5
aI10
aI5
aI10
aI10
aI10
aI20
aI30
aI30
aI60
aI70
aI110
aI150
aI210
aI300
aI420
aI600
aI850
aI1200
aI1700
aI2532
aI0
aI0
aI0
aI0
aI0
aI0
aa(lp777
I3
aI14157
aI5
aI5
aI5
aI5
aI5
aI5
aI5
aI10
aI5
aI10
aI10
aI10
aI20
aI30
aI30
aI60
aI70
aI110
aI150
aI210
aI300
aI420
aI600
aI850
aI1200
aI1700
aI2537
aI0
aI0
aI0
aI0
aI0
aI0
aa(lp778
I3
aI14152
aI5
aI5
aI5
aI5
aI5
aI5
aI5
aI10
aI5
aI10
aI10
aI10
aI20
aI30
aI30
aI60
aI70
aI110
aI150
aI210
aI300
aI420
aI600
aI850
aI1200
aI1700
aI2542
aI0
aI0
aI0
aI0
aI0
aI0
aa(lp779
I3
aI14147
aI5
aI5
aI5
aI5
aI5
aI5
aI5
aI10
aI5
aI10
aI10
aI10
aI20
aI30
aI30
aI60
aI70
aI110
aI150
aI210
aI300
aI420
aI600
aI850
aI1200
aI1700
aI2547
aI0
aI0
aI0
aI0
aI0
aI0
aa(lp780
I3
aI14142
aI5
aI5
aI5
aI5
aI5
aI5
aI5
aI10
aI5
aI10
aI10
aI10
aI20
aI30
aI30
aI60
aI70
aI110
aI150
aI210
aI300
aI420
aI600
aI850
aI1200
aI1700
aI2552
aI0
aI0
aI0
aI0
aI0
aI0
aa(lp781
I3
aI14137
aI5
aI5
aI5
aI5
aI5
aI5
aI5
aI10
aI5
aI10
aI10
aI10
aI20
aI30
aI30
aI60
aI70
aI110
aI150
aI210
aI300
aI420
aI600
aI850
aI1200
aI1700
aI2557
aI0
aI0
aI0
aI0
aI0
aI0
aa(lp782
I3
aI14132
aI5
aI5
aI5
aI5
aI5
aI5
aI5
aI10
aI5
aI10
aI10
aI10
aI20
aI30
aI30
aI60
aI70
aI110
aI150
aI210
aI300
aI420
aI600
aI850
aI1200
aI1700
aI2562
aI0
aI0
aI0
aI0
aI0
aI0
aa(lp783
I3
aI14127
aI5
aI5
aI5
aI5
aI5
aI5
aI5
aI10
aI5
aI10
aI10
aI10
aI20
aI30
aI30
aI60
aI70
aI110
aI150
aI210
aI300
aI420
aI600
aI850
aI1200
aI1700
aI2567
aI0
aI0
aI0
aI0
aI0
aI0
aa(lp784
I3
aI14122
aI5
aI5
aI5
aI5
aI5
aI5
aI5
aI10
aI5
aI10
aI10
aI10
aI20
aI30
aI30
aI60
aI70
aI110
aI150
aI210
aI300
aI420
aI600
aI850
aI1200
aI1700
aI2572
aI0
aI0
aI0
aI0
aI0
aI0
aa(lp785
I3
aI14117
aI5
aI5
aI5
aI5
aI5
aI5
aI5
aI10
aI5
aI10
aI10
aI10
aI20
aI30
aI30
aI60
aI70
aI110
aI150
aI210
aI300
aI420
aI600
aI850
aI1200
aI1700
aI2577
aI0
aI0
aI0
aI0
aI0
aI0
aa(lp786
I3
aI14112
aI5
aI5
aI5
aI5
aI5
aI5
aI5
aI10
aI5
aI10
aI10
aI10
aI20
aI30
aI30
aI60
aI70
aI110
aI150
aI210
aI300
aI420
aI600
aI850
aI1200
aI1700
aI2582
aI0
aI0
aI0
aI0
aI0
aI0
aa(lp787
I3
aI14107
aI5
aI5
aI5
aI5
aI5
aI5
aI5
aI10
aI5
aI10
aI10
aI10
aI20
aI30
aI30
aI60
aI70
aI110
aI150
aI210
aI300
aI420
aI600
aI850
aI1200
aI1700
aI2587
aI0
aI0
aI0
aI0
aI0
aI0
aa(lp788
I3
aI14102
aI5
aI5
aI5
aI5
aI5
aI5
aI5
aI10
aI5
aI10
aI10
aI10
aI20
aI30
aI30
aI60
aI70
aI110
aI150
aI210
aI300
aI420
aI600
aI850
aI1200
aI1700
aI2592
aI0
aI0
aI0
aI0
aI0
aI0
aa(lp789
I3
aI14097
aI5
aI5
aI5
aI5
aI5
aI5
aI5
aI10
aI5
aI10
aI10
aI10
aI20
aI30
aI30
aI60
aI70
aI110
aI150
aI210
aI300
aI420
aI600
aI850
aI1200
aI1700
aI2597
aI0
aI0
aI0
aI0
aI0
aI0
aa(lp790
I3
aI14092
aI5
aI5
aI5
aI5
aI5
aI5
aI5
aI10
aI5
aI10
aI10
aI10
aI20
aI30
aI30
aI60
aI70
aI110
aI150
aI210
aI300
aI420
aI600
aI850
aI1200
aI1700
aI2602
aI0
aI0
aI0
aI0
aI0
aI0
aa(lp791
I3
aI14087
aI5
aI5
aI5
aI5
aI5
aI5
aI5
aI10
aI5
aI10
aI10
aI10
aI20
aI30
aI30
aI60
aI70
aI110
aI150
aI210
aI300
aI420
aI600
aI850
aI1200
aI1700
aI2607
aI0
aI0
aI0
aI0
aI0
aI0
aa(lp792
I3
aI14082
aI5
aI5
aI5
aI5
aI5
aI5
aI5
aI10
aI5
aI10
aI10
aI10
aI20
aI30
aI30
aI60
aI70
aI110
aI150
aI210
aI300
aI420
aI600
aI850
aI1200
aI1700
aI2612
aI0
aI0
aI0
aI0
aI0
aI0
aa(lp793
I3
aI14077
aI5
aI5
aI5
aI5
aI5
aI5
aI5
aI10
aI5
aI10
aI10
aI10
aI20
aI30
aI30
aI60
aI70
aI110
aI150
aI210
aI300
aI420
aI600
aI850
aI1200
aI1700
aI2617
aI0
aI0
aI0
aI0
aI0
aI0
aa(lp794
I3
aI14072
aI5
aI5
aI5
aI5
aI5
aI5
aI5
aI10
aI5
aI10
aI10
aI10
aI20
aI30
aI30
aI60
aI70
aI110
aI150
aI210
aI300
aI420
aI600
aI850
aI1200
aI1700
aI2622
aI0
aI0
aI0
aI0
aI0
aI0
aa(lp795
I3
aI14067
aI5
aI5
aI5
aI5
aI5
aI5
aI5
aI10
aI5
aI10
aI10
aI10
aI20
aI30
aI30
aI60
aI70
aI110
aI150
aI210
aI300
aI420
aI600
aI850
aI1200
aI1700
aI2627
aI0
aI0
aI0
aI0
aI0
aI0
aa(lp796
I3
aI14062
aI5
aI5
aI5
aI5
aI5
aI5
aI5
aI10
aI5
aI10
aI10
aI10
aI20
aI30
aI30
aI60
aI70
aI110
aI150
aI210
aI300
aI420
aI600
aI850
aI1200
aI1700
aI2632
aI0
aI0
aI0
aI0
aI0
aI0
aa(lp797
I3
aI14057
aI5
aI5
aI5
aI5
aI5
aI5
aI5
aI10
aI5
aI10
aI10
aI10
aI20
aI30
aI30
aI60
aI70
aI110
aI150
aI210
aI300
aI420
aI600
aI850
aI1200
aI1700
aI2637
aI0
aI0
aI0
aI0
aI0
aI0
aa(lp798
I3
aI14052
aI5
aI5
aI5
aI5
aI5
aI5
aI5
aI10
aI5
aI10
aI10
aI10
aI20
aI30
aI30
aI60
aI70
aI110
aI150
aI210
aI300
aI420
aI600
aI850
aI1200
aI1700
aI2642
aI0
aI0
aI0
aI0
aI0
aI0
aa(lp799
I3
aI14047
aI5
aI5
aI5
aI5
aI5
aI5
aI5
aI10
aI5
aI10
aI10
aI10
aI20
aI30
aI30
aI60
aI70
aI110
aI150
aI210
aI300
aI420
aI600
aI850
aI1200
aI1700
aI2647
aI0
aI0
aI0
aI0
aI0
aI0
aa(lp800
I3
aI14042
aI5
aI5
aI5
aI5
aI5
aI5
aI5
aI10
aI5
aI10
aI10
aI10
aI20
aI30
aI30
aI60
aI70
aI110
aI150
aI210
aI300
aI420
aI600
aI850
aI1200
aI1700
aI2652
aI0
aI0
aI0
aI0
aI0
aI0
aa(lp801
I3
aI14037
aI5
aI5
aI5
aI5
aI5
aI5
aI5
aI10
aI5
aI10
aI10
aI10
aI20
aI30
aI30
aI60
aI70
aI110
aI150
aI210
aI300
aI420
aI600
aI850
aI1200
aI1700
aI2657
aI0
aI0
aI0
aI0
aI0
aI0
aa(lp802
I3
aI14032
aI5
aI5
aI5
aI5
aI5
aI5
aI5
aI10
aI5
aI10
aI10
aI10
aI20
aI30
aI30
aI60
aI70
aI110
aI150
aI210
aI300
aI420
aI600
aI850
aI1200
aI1700
aI2662
aI0
aI0
aI0
aI0
aI0
aI0
aa(lp803
I3
aI14027
aI5
aI5
aI5
aI5
aI5
aI5
aI5
aI10
aI5
aI10
aI10
aI10
aI20
aI30
aI30
aI60
aI70
aI110
aI150
aI210
aI300
aI420
aI600
aI850
aI1200
aI1700
aI2667
aI0
aI0
aI0
aI0
aI0
aI0
aa(lp804
I3
aI14022
aI5
aI5
aI5
aI5
aI5
aI5
aI5
aI10
aI5
aI10
aI10
aI10
aI20
aI30
aI30
aI60
aI70
aI110
aI150
aI210
aI300
aI420
aI600
aI850
aI1200
aI1700
aI2672
aI0
aI0
aI0
aI0
aI0
aI0
aa(lp805
I3
aI14017
aI5
aI5
aI5
aI5
aI5
aI5
aI5
aI10
aI5
aI10
aI10
aI10
aI20
aI30
aI30
aI60
aI70
aI110
aI150
aI210
aI300
aI420
aI600
aI850
aI1200
aI1700
aI2677
aI0
aI0
aI0
aI0
aI0
aI0
aa(lp806
I3
aI14012
aI5
aI5
aI5
aI5
aI5
aI5
aI5
aI10
aI5
aI10
aI10
aI10
aI20
aI30
aI30
aI60
aI70
aI110
aI150
aI210
aI300
aI420
aI600
aI850
aI1200
aI1700
aI2682
aI0
aI0
aI0
aI0
aI0
aI0
aa(lp807
I3
aI14007
aI5
aI5
aI5
aI5
aI5
aI5
aI5
aI10
aI5
aI10
aI10
aI10
aI20
aI30
aI30
aI60
aI70
aI110
aI150
aI210
aI300
aI420
aI600
aI850
aI1200
aI1700
aI2687
aI0
aI0
aI0
aI0
aI0
aI0
aa(lp808
I3
aI14002
aI5
aI5
aI5
aI5
aI5
aI5
aI5
aI10
aI5
aI10
aI10
aI10
aI20
aI30
aI30
aI60
aI70
aI110
aI150
aI210
aI300
aI420
aI600
aI850
aI1200
aI1700
aI2692
aI0
aI0
aI0
aI0
aI0
aI0
aa(lp809
I3
aI13997
aI5
aI5
aI5
aI5
aI5
aI5
aI5
aI10
aI5
aI10
aI10
aI10
aI20
aI30
aI30
aI60
aI70
aI110
aI150
aI210
aI300
aI420
aI600
aI850
aI1200
aI1700
aI2697
aI0
aI0
aI0
aI0
aI0
aI0
aa(lp810
I3
aI13992
aI5
aI5
aI5
aI5
aI5
aI5
aI5
aI10
aI5
aI10
aI10
aI10
aI20
aI30
aI30
aI60
aI70
aI110
aI150
aI210
aI300
aI420
aI600
aI850
aI1200
aI1700
aI2702
aI0
aI0
aI0
aI0
aI0
aI0
aa(lp811
I3
aI13987
aI5
aI5
aI5
aI5
aI5
aI5
aI5
aI10
aI5
aI10
aI10
aI10
aI20
aI30
aI30
aI60
aI70
aI110
aI150
aI210
aI300
aI420
aI600
aI850
aI1200
aI1700
aI2707
aI0
aI0
aI0
aI0
aI0
aI0
aa(lp812
I3
aI13982
aI5
aI5
aI5
aI5
aI5
aI5
aI5
aI10
aI5
aI10
aI10
aI10
aI20
aI30
aI30
aI60
aI70
aI110
aI150
aI210
aI300
aI420
aI600
aI850
aI1200
aI1700
aI2712
aI0
aI0
aI0
aI0
aI0
aI0
aa(lp813
I3
aI13977
aI5
aI5
aI5
aI5
aI5
aI5
aI5
aI10
aI5
aI10
aI10
aI10
aI20
aI30
aI30
aI60
aI70
aI110
aI150
aI210
aI300
aI420
aI600
aI850
aI1200
aI1700
aI2717
aI0
aI0
aI0
aI0
aI0
aI0
aa(lp814
I3
aI13972
aI5
aI5
aI5
aI5
aI5
aI5
aI5
aI10
aI5
aI10
aI10
aI10
aI20
aI30
aI30
aI60
aI70
aI110
aI150
aI210
aI300
aI420
aI600
aI850
aI1200
aI1700
aI2722
aI0
aI0
aI0
aI0
aI0
aI0
aa(lp815
I3
aI13967
aI5
aI5
aI5
aI5
aI5
aI5
aI5
aI10
aI5
aI10
aI10
aI10
aI20
aI30
aI30
aI60
aI70
aI110
aI150
aI210
aI300
aI420
aI600
aI850
aI1200
aI1700
aI2727
aI0
aI0
aI0
aI0
aI0
aI0
aa(lp816
I3
aI13962
aI5
aI5
aI5
aI5
aI5
aI5
aI5
aI10
aI5
aI10
aI10
aI10
aI20
aI30
aI30
aI60
aI70
aI110
aI150
aI210
aI300
aI420
aI600
aI850
aI1200
aI1700
aI2732
aI0
aI0
aI0
aI0
aI0
aI0
aa(lp817
I3
aI13957
aI5
aI5
aI5
aI5
aI5
aI5
aI5
aI10
aI5
aI10
aI10
aI10
aI20
aI30
aI30
aI60
aI70
aI110
aI150
aI210
aI300
aI420
aI600
aI850
aI1200
aI1700
aI2737
aI0
aI0
aI0
aI0
aI0
aI0
aa(lp818
I3
aI13952
aI5
aI5
aI5
aI5
aI5
aI5
aI5
aI10
aI5
aI10
aI10
aI10
aI20
aI30
aI30
aI60
aI70
aI110
aI150
aI210
aI300
aI420
aI600
aI850
aI1200
aI1700
aI2742
aI0
aI0
aI0
aI0
aI0
aI0
aa(lp819
I3
aI13947
aI5
aI5
aI5
aI5
aI5
aI5
aI5
aI10
aI5
aI10
aI10
aI10
aI20
aI30
aI30
aI60
aI70
aI110
aI150
aI210
aI300
aI420
aI600
aI850
aI1200
aI1700
aI2747
aI0
aI0
aI0
aI0
aI0
aI0
aa(lp820
I3
aI13942
aI5
aI5
aI5
aI5
aI5
aI5
aI5
aI10
aI5
aI10
aI10
aI10
aI20
aI30
aI30
aI60
aI70
aI110
aI150
aI210
aI300
aI420
aI600
aI850
aI1200
aI1700
aI2752
aI0
aI0
aI0
aI0
aI0
aI0
aa(lp821
I3
aI13937
aI5
aI5
aI5
aI5
aI5
aI5
aI5
aI10
aI5
aI10
aI10
aI10
aI20
aI30
aI30
aI60
aI70
aI110
aI150
aI210
aI300
aI420
aI600
aI850
aI1200
aI1700
aI2757
aI0
aI0
aI0
aI0
aI0
aI0
aa(lp822
I3
aI13932
aI5
aI5
aI5
aI5
aI5
aI5
aI5
aI10
aI5
aI10
aI10
aI10
aI20
aI30
aI30
aI60
aI70
aI110
aI150
aI210
aI300
aI420
aI600
aI850
aI1200
aI1700
aI2762
aI0
aI0
aI0
aI0
aI0
aI0
aa(lp823
I3
aI13927
aI5
aI5
aI5
aI5
aI5
aI5
aI5
aI10
aI5
aI10
aI10
aI10
aI20
aI30
aI30
aI60
aI70
aI110
aI150
aI210
aI300
aI420
aI600
aI850
aI1200
aI1700
aI2767
aI0
aI0
aI0
aI0
aI0
aI0
aa(lp824
I3
aI13922
aI5
aI5
aI5
aI5
aI5
aI5
aI5
aI10
aI5
aI10
aI10
aI10
aI20
aI30
aI30
aI60
aI70
aI110
aI150
aI210
aI300
aI420
aI600
aI850
aI1200
aI1700
aI2772
aI0
aI0
aI0
aI0
aI0
aI0
aa(lp825
I3
aI13917
aI5
aI5
aI5
aI5
aI5
aI5
aI5
aI10
aI5
aI10
aI10
aI10
aI20
aI30
aI30
aI60
aI70
aI110
aI150
aI210
aI300
aI420
aI600
aI850
aI1200
aI1700
aI2777
aI0
aI0
aI0
aI0
aI0
aI0
aa(lp826
I3
aI13912
aI5
aI5
aI5
aI5
aI5
aI5
aI5
aI10
aI5
aI10
aI10
aI10
aI20
aI30
aI30
aI60
aI70
aI110
aI150
aI210
aI300
aI420
aI600
aI850
aI1200
aI1700
aI2782
aI0
aI0
aI0
aI0
aI0
aI0
aa(lp827
I3
aI13907
aI5
aI5
aI5
aI5
aI5
aI5
aI5
aI10
aI5
aI10
aI10
aI10
aI20
aI30
aI30
aI60
aI70
aI110
aI150
aI210
aI300
aI420
aI600
aI850
aI1200
aI1700
aI2787
aI0
aI0
aI0
aI0
aI0
aI0
aa(lp828
I3
aI13902
aI5
aI5
aI5
aI5
aI5
aI5
aI5
aI10
aI5
aI10
aI10
aI10
aI20
aI30
aI30
aI60
aI70
aI110
aI150
aI210
aI300
aI420
aI600
aI850
aI1200
aI1700
aI2388
aI404
aI0
aI0
aI0
aI0
aI0
aa(lp829
I3
aI13897
aI5
aI5
aI5
aI5
aI5
aI5
aI5
aI10
aI5
aI10
aI10
aI10
aI20
aI30
aI30
aI60
aI70
aI110
aI150
aI210
aI300
aI420
aI600
aI850
aI1200
aI1700
aI2389
aI408
aI0
aI0
aI0
aI0
aI0
aa(lp830
I3
aI13892
aI5
aI5
aI5
aI5
aI5
aI5
aI5
aI10
aI5
aI10
aI10
aI10
aI20
aI30
aI30
aI60
aI70
aI110
aI150
aI210
aI300
aI420
aI600
aI850
aI1200
aI1700
aI2390
aI412
aI0
aI0
aI0
aI0
aI0
aa(lp831
I3
aI13887
aI5
aI5
aI5
aI5
aI5
aI5
aI5
aI10
aI5
aI10
aI10
aI10
aI20
aI30
aI30
aI60
aI70
aI110
aI150
aI210
aI300
aI420
aI600
aI850
aI1200
aI1700
aI2391
aI416
aI0
aI0
aI0
aI0
aI0
aa(lp832
I3
aI13882
aI5
aI5
aI5
aI5
aI5
aI5
aI5
aI10
aI5
aI10
aI10
aI10
aI20
aI30
aI30
aI60
aI70
aI110
aI150
aI210
aI300
aI420
aI600
aI850
aI1200
aI1700
aI2392
aI420
aI0
aI0
aI0
aI0
aI0
aa(lp833
I3
aI13877
aI5
aI5
aI5
aI5
aI5
aI5
aI5
aI10
aI5
aI10
aI10
aI10
aI20
aI30
aI30
aI60
aI70
aI110
aI150
aI210
aI300
aI420
aI600
aI850
aI1200
aI1700
aI2393
aI424
aI0
aI0
aI0
aI0
aI0
aa(lp834
I3
aI13872
aI5
aI5
aI5
aI5
aI5
aI5
aI5
aI10
aI5
aI10
aI10
aI10
aI20
aI30
aI30
aI60
aI70
aI110
aI150
aI210
aI300
aI420
aI600
aI850
aI1200
aI1700
aI2394
aI428
aI0
aI0
aI0
aI0
aI0
aa(lp835
I3
aI13867
aI5
aI5
aI5
aI5
aI5
aI5
aI5
aI10
aI5
aI10
aI10
aI10
aI20
aI30
aI30
aI60
aI70
aI110
aI150
aI210
aI300
aI420
aI600
aI850
aI1200
aI1700
aI2395
aI432
aI0
aI0
aI0
aI0
aI0
aa(lp836
I3
aI13862
aI5
aI5
aI5
aI5
aI5
aI5
aI5
aI10
aI5
aI10
aI10
aI10
aI20
aI30
aI30
aI60
aI70
aI110
aI150
aI210
aI300
aI420
aI600
aI850
aI1200
aI1700
aI2396
aI436
aI0
aI0
aI0
aI0
aI0
aa(lp837
I3
aI13857
aI5
aI5
aI5
aI5
aI5
aI5
aI5
aI10
aI5
aI10
aI10
aI10
aI20
aI30
aI30
aI60
aI70
aI110
aI150
aI210
aI300
aI420
aI600
aI850
aI1200
aI1700
aI2397
aI440
aI0
aI0
aI0
aI0
aI0
aa(lp838
I3
aI13852
aI5
aI5
aI5
aI5
aI5
aI5
aI5
aI10
aI5
aI10
aI10
aI10
aI20
aI30
aI30
aI60
aI70
aI110
aI150
aI210
aI300
aI420
aI600
aI850
aI1200
aI1700
aI2398
aI444
aI0
aI0
aI0
aI0
aI0
aa(lp839
I3
aI13847
aI5
aI5
aI5
aI5
aI5
aI5
aI5
aI10
aI5
aI10
aI10
aI10
aI20
aI30
aI30
aI60
aI70
aI110
aI150
aI210
aI300
aI420
aI600
aI850
aI1200
aI1700
aI2399
aI448
aI0
aI0
aI0
aI0
aI0
aa(lp840
I3
aI13842
aI5
aI5
aI5
aI5
aI5
aI5
aI5
aI10
aI5
aI10
aI10
aI10
aI20
aI30
aI30
aI60
aI70
aI110
aI150
aI210
aI300
aI420
aI600
aI850
aI1200
aI1700
aI2400
aI452
aI0
aI0
aI0
aI0
aI0
aa(lp841
I3
aI13837
aI5
aI5
aI5
aI5
aI5
aI5
aI5
aI10
aI5
aI10
aI10
aI10
aI20
aI30
aI30
aI60
aI70
aI110
aI150
aI210
aI300
aI420
aI600
aI850
aI1200
aI1700
aI2400
aI457
aI0
aI0
aI0
aI0
aI0
aa(lp842
I3
aI13832
aI5
aI5
aI5
aI5
aI5
aI5
aI5
aI10
aI5
aI10
aI10
aI10
aI20
aI30
aI30
aI60
aI70
aI110
aI150
aI210
aI300
aI420
aI600
aI850
aI1200
aI1700
aI2400
aI462
aI0
aI0
aI0
aI0
aI0
aa(lp843
I3
aI13827
aI5
aI5
aI5
aI5
aI5
aI5
aI5
aI10
aI5
aI10
aI10
aI10
aI20
aI30
aI30
aI60
aI70
aI110
aI150
aI210
aI300
aI420
aI600
aI850
aI1200
aI1700
aI2400
aI467
aI0
aI0
aI0
aI0
aI0
aa(lp844
I3
aI13822
aI5
aI5
aI5
aI5
aI5
aI5
aI5
aI10
aI5
aI10
aI10
aI10
aI20
aI30
aI30
aI60
aI70
aI110
aI150
aI210
aI300
aI420
aI600
aI850
aI1200
aI1700
aI2400
aI472
aI0
aI0
aI0
aI0
aI0
aa(lp845
I3
aI13817
aI5
aI5
aI5
aI5
aI5
aI5
aI5
aI10
aI5
aI10
aI10
aI10
aI20
aI30
aI30
aI60
aI70
aI110
aI150
aI210
aI300
aI420
aI600
aI850
aI1200
aI1700
aI2400
aI477
aI0
aI0
aI0
aI0
aI0
aa(lp846
I3
aI13812
aI5
aI5
aI5
aI5
aI5
aI5
aI5
aI10
aI5
aI10
aI10
aI10
aI20
aI30
aI30
aI60
aI70
aI110
aI150
aI210
aI300
aI420
aI600
aI850
aI1200
aI1700
aI2400
aI482
aI0
aI0
aI0
aI0
aI0
aa(lp847
I3
aI13807
aI5
aI5
aI5
aI5
aI5
aI5
aI5
aI10
aI5
aI10
aI10
aI10
aI20
aI30
aI30
aI60
aI70
aI110
aI150
aI210
aI300
aI420
aI600
aI850
aI1200
aI1700
aI2400
aI487
aI0
aI0
aI0
aI0
aI0
aa(lp848
I3
aI13802
aI5
aI5
aI5
aI5
aI5
aI5
aI5
aI10
aI5
aI10
aI10
aI10
aI20
aI30
aI30
aI60
aI70
aI110
aI150
aI210
aI300
aI420
aI600
aI850
aI1200
aI1700
aI2400
aI492
aI0
aI0
aI0
aI0
aI0
aa(lp849
I3
aI13797
aI5
aI5
aI5
aI5
aI5
aI5
aI5
aI10
aI5
aI10
aI10
aI10
aI20
aI30
aI30
aI60
aI70
aI110
aI150
aI210
aI300
aI420
aI600
aI850
aI1200
aI1700
aI2400
aI497
aI0
aI0
aI0
aI0
aI0
aa(lp850
I3
aI13792
aI5
aI5
aI5
aI5
aI5
aI5
aI5
aI10
aI5
aI10
aI10
aI10
aI20
aI30
aI30
aI60
aI70
aI110
aI150
aI210
aI300
aI420
aI600
aI850
aI1200
aI1700
aI2400
aI502
aI0
aI0
aI0
aI0
aI0
aa(lp851
I3
aI13787
aI5
aI5
aI5
aI5
aI5
aI5
aI5
aI10
aI5
aI10
aI10
aI10
aI20
aI30
aI30
aI60
aI70
aI110
aI150
aI210
aI300
aI420
aI600
aI850
aI1200
aI1700
aI2400
aI507
aI0
aI0
aI0
aI0
aI0
aa(lp852
I3
aI13782
aI5
aI5
aI5
aI5
aI5
aI5
aI5
aI10
aI5
aI10
aI10
aI10
aI20
aI30
aI30
aI60
aI70
aI110
aI150
aI210
aI300
aI420
aI600
aI850
aI1200
aI1700
aI2400
aI512
aI0
aI0
aI0
aI0
aI0
aa(lp853
I3
aI13777
aI5
aI5
aI5
aI5
aI5
aI5
aI5
aI10
aI5
aI10
aI10
aI10
aI20
aI30
aI30
aI60
aI70
aI110
aI150
aI210
aI300
aI420
aI600
aI850
aI1200
aI1700
aI2400
aI517
aI0
aI0
aI0
aI0
aI0
aa(lp854
I3
aI13772
aI5
aI5
aI5
aI5
aI5
aI5
aI5
aI10
aI5
aI10
aI10
aI10
aI20
aI30
aI30
aI60
aI70
aI110
aI150
aI210
aI300
aI420
aI600
aI850
aI1200
aI1700
aI2400
aI522
aI0
aI0
aI0
aI0
aI0
aa(lp855
I3
aI13767
aI5
aI5
aI5
aI5
aI5
aI5
aI5
aI10
aI5
aI10
aI10
aI10
aI20
aI30
aI30
aI60
aI70
aI110
aI150
aI210
aI300
aI420
aI600
aI850
aI1200
aI1700
aI2400
aI527
aI0
aI0
aI0
aI0
aI0
aa(lp856
I3
aI13762
aI5
aI5
aI5
aI5
aI5
aI5
aI5
aI10
aI5
aI10
aI10
aI10
aI20
aI30
aI30
aI60
aI70
aI110
aI150
aI210
aI300
aI420
aI600
aI850
aI1200
aI1700
aI2400
aI532
aI0
aI0
aI0
aI0
aI0
aa(lp857
I3
aI13757
aI5
aI5
aI5
aI5
aI5
aI5
aI5
aI10
aI5
aI10
aI10
aI10
aI20
aI30
aI30
aI60
aI70
aI110
aI150
aI210
aI300
aI420
aI600
aI850
aI1200
aI1700
aI2400
aI537
aI0
aI0
aI0
aI0
aI0
aa(lp858
I3
aI13752
aI5
aI5
aI5
aI5
aI5
aI5
aI5
aI10
aI5
aI10
aI10
aI10
aI20
aI30
aI30
aI60
aI70
aI110
aI150
aI210
aI300
aI420
aI600
aI850
aI1200
aI1700
aI2400
aI542
aI0
aI0
aI0
aI0
aI0
aa(lp859
I3
aI13747
aI5
aI5
aI5
aI5
aI5
aI5
aI5
aI10
aI5
aI10
aI10
aI10
aI20
aI30
aI30
aI60
aI70
aI110
aI150
aI210
aI300
aI420
aI600
aI850
aI1200
aI1700
aI2400
aI547
aI0
aI0
aI0
aI0
aI0
aa(lp860
I3
aI13742
aI5
aI5
aI5
aI5
aI5
aI5
aI5
aI10
aI5
aI10
aI10
aI10
aI20
aI30
aI30
aI60
aI70
aI110
aI150
aI210
aI300
aI420
aI600
aI850
aI1200
aI1700
aI2400
aI552
aI0
aI0
aI0
aI0
aI0
aa(lp861
I3
aI13737
aI5
aI5
aI5
aI5
aI5
aI5
aI5
aI10
aI5
aI10
aI10
aI10
aI20
aI30
aI30
aI60
aI70
aI110
aI150
aI210
aI300
aI420
aI600
aI850
aI1200
aI1700
aI2400
aI557
aI0
aI0
aI0
aI0
aI0
aa(lp862
I3
aI13732
aI5
aI5
aI5
aI5
aI5
aI5
aI5
aI10
aI5
aI10
aI10
aI10
aI20
aI30
aI30
aI60
aI70
aI110
aI150
aI210
aI300
aI420
aI600
aI850
aI1200
aI1700
aI2400
aI562
aI0
aI0
aI0
aI0
aI0
aa(lp863
I3
aI13727
aI5
aI5
aI5
aI5
aI5
aI5
aI5
aI10
aI5
aI10
aI10
aI10
aI20
aI30
aI30
aI60
aI70
aI110
aI150
aI210
aI300
aI420
aI600
aI850
aI1200
aI1700
aI2400
aI567
aI0
aI0
aI0
aI0
aI0
aa(lp864
I3
aI13722
aI5
aI5
aI5
aI5
aI5
aI5
aI5
aI10
aI5
aI10
aI10
aI10
aI20
aI30
aI30
aI60
aI70
aI110
aI150
aI210
aI300
aI420
aI600
aI850
aI1200
aI1700
aI2400
aI572
aI0
aI0
aI0
aI0
aI0
aa(lp865
I3
aI13717
aI5
aI5
aI5
aI5
aI5
aI5
aI5
aI10
aI5
aI10
aI10
aI10
aI20
aI30
aI30
aI60
aI70
aI110
aI150
aI210
aI300
aI420
aI600
aI850
aI1200
aI1700
aI2400
aI577
aI0
aI0
aI0
aI0
aI0
aa(lp866
I3
aI13712
aI5
aI5
aI5
aI5
aI5
aI5
aI5
aI10
aI5
aI10
aI10
aI10
aI20
aI30
aI30
aI60
aI70
aI110
aI150
aI210
aI300
aI420
aI600
aI850
aI1200
aI1700
aI2400
aI582
aI0
aI0
aI0
aI0
aI0
aa(lp867
I3
aI13707
aI5
aI5
aI5
aI5
aI5
aI5
aI5
aI10
aI5
aI10
aI10
aI10
aI20
aI30
aI30
aI60
aI70
aI110
aI150
aI210
aI300
aI420
aI600
aI850
aI1200
aI1700
aI2400
aI587
aI0
aI0
aI0
aI0
aI0
aa(lp868
I3
aI13702
aI5
aI5
aI5
aI5
aI5
aI5
aI5
aI10
aI5
aI10
aI10
aI10
aI20
aI30
aI30
aI60
aI70
aI110
aI150
aI210
aI300
aI420
aI600
aI850
aI1200
aI1700
aI2400
aI592
aI0
aI0
aI0
aI0
aI0
aa(lp869
I3
aI13697
aI5
aI5
aI5
aI5
aI5
aI5
aI5
aI10
aI5
aI10
aI10
aI10
aI20
aI30
aI30
aI60
aI70
aI110
aI150
aI210
aI300
aI420
aI600
aI850
aI1200
aI1700
aI2400
aI597
aI0
aI0
aI0
aI0
aI0
aa(lp870
I3
aI13692
aI5
aI5
aI5
aI5
aI5
aI5
aI5
aI10
aI5
aI10
aI10
aI10
aI20
aI30
aI30
aI60
aI70
aI110
aI150
aI210
aI300
aI420
aI600
aI850
aI1200
aI1700
aI2400
aI602
aI0
aI0
aI0
aI0
aI0
aa(lp871
I3
aI13687
aI5
aI5
aI5
aI5
aI5
aI5
aI5
aI10
aI5
aI10
aI10
aI10
aI20
aI30
aI30
aI60
aI70
aI110
aI150
aI210
aI300
aI420
aI600
aI850
aI1200
aI1700
aI2400
aI607
aI0
aI0
aI0
aI0
aI0
aa(lp872
I3
aI13682
aI5
aI5
aI5
aI5
aI5
aI5
aI5
aI10
aI5
aI10
aI10
aI10
aI20
aI30
aI30
aI60
aI70
aI110
aI150
aI210
aI300
aI420
aI600
aI850
aI1200
aI1700
aI2400
aI612
aI0
aI0
aI0
aI0
aI0
aa(lp873
I3
aI13677
aI5
aI5
aI5
aI5
aI5
aI5
aI5
aI10
aI5
aI10
aI10
aI10
aI20
aI30
aI30
aI60
aI70
aI110
aI150
aI210
aI300
aI420
aI600
aI850
aI1200
aI1700
aI2400
aI617
aI0
aI0
aI0
aI0
aI0
aa(lp874
I3
aI13672
aI5
aI5
aI5
aI5
aI5
aI5
aI5
aI10
aI5
aI10
aI10
aI10
aI20
aI30
aI30
aI60
aI70
aI110
aI150
aI210
aI300
aI420
aI600
aI850
aI1200
aI1700
aI2400
aI622
aI0
aI0
aI0
aI0
aI0
aa(lp875
I3
aI13667
aI5
aI5
aI5
aI5
aI5
aI5
aI5
aI10
aI5
aI10
aI10
aI10
aI20
aI30
aI30
aI60
aI70
aI110
aI150
aI210
aI300
aI420
aI600
aI850
aI1200
aI1700
aI2400
aI627
aI0
aI0
aI0
aI0
aI0
aa(lp876
I3
aI13662
aI5
aI5
aI5
aI5
aI5
aI5
aI5
aI10
aI5
aI10
aI10
aI10
aI20
aI30
aI30
aI60
aI70
aI110
aI150
aI210
aI300
aI420
aI600
aI850
aI1200
aI1700
aI2400
aI632
aI0
aI0
aI0
aI0
aI0
aa(lp877
I3
aI13657
aI5
aI5
aI5
aI5
aI5
aI5
aI5
aI10
aI5
aI10
aI10
aI10
aI20
aI30
aI30
aI60
aI70
aI110
aI150
aI210
aI300
aI420
aI600
aI850
aI1200
aI1700
aI2400
aI637
aI0
aI0
aI0
aI0
aI0
aa(lp878
I3
aI13652
aI5
aI5
aI5
aI5
aI5
aI5
aI5
aI10
aI5
aI10
aI10
aI10
aI20
aI30
aI30
aI60
aI70
aI110
aI150
aI210
aI300
aI420
aI600
aI850
aI1200
aI1700
aI2400
aI642
aI0
aI0
aI0
aI0
aI0
aa(lp879
I3
aI13647
aI5
aI5
aI5
aI5
aI5
aI5
aI5
aI10
aI5
aI10
aI10
aI10
aI20
aI30
aI30
aI60
aI70
aI110
aI150
aI210
aI300
aI420
aI600
aI850
aI1200
aI1700
aI2400
aI647
aI0
aI0
aI0
aI0
aI0
aa(lp880
I3
aI13642
aI5
aI5
aI5
aI5
aI5
aI5
aI5
aI10
aI5
aI10
aI10
aI10
aI20
aI30
aI30
aI60
aI70
aI110
aI150
aI210
aI300
aI420
aI600
aI850
aI1200
aI1700
aI2400
aI652
aI0
aI0
aI0
aI0
aI0
aa(lp881
I3
aI13637
aI5
aI5
aI5
aI5
aI5
aI5
aI5
aI10
aI5
aI10
aI10
aI10
aI20
aI30
aI30
aI60
aI70
aI110
aI150
aI210
aI300
aI420
aI600
aI850
aI1200
aI1700
aI2400
aI657
aI0
aI0
aI0
aI0
aI0
aa(lp882
I3
aI13632
aI5
aI5
aI5
aI5
aI5
aI5
aI5
aI10
aI5
aI10
aI10
aI10
aI20
aI30
aI30
aI60
aI70
aI110
aI150
aI210
aI300
aI420
aI600
aI850
aI1200
aI1700
aI2400
aI662
aI0
aI0
aI0
aI0
aI0
aa(lp883
I3
aI13627
aI5
aI5
aI5
aI5
aI5
aI5
aI5
aI10
aI5
aI10
aI10
aI10
aI20
aI30
aI30
aI60
aI70
aI110
aI150
aI210
aI300
aI420
aI600
aI850
aI1200
aI1700
aI2400
aI667
aI0
aI0
aI0
aI0
aI0
aa(lp884
I3
aI13622
aI5
aI5
aI5
aI5
aI5
aI5
aI5
aI10
aI5
aI10
aI10
aI10
aI20
aI30
aI30
aI60
aI70
aI110
aI150
aI210
aI300
aI420
aI600
aI850
aI1200
aI1700
aI2400
aI672
aI0
aI0
aI0
aI0
aI0
aa(lp885
I3
aI13617
aI5
aI5
aI5
aI5
aI5
aI5
aI5
aI10
aI5
aI10
aI10
aI10
aI20
aI30
aI30
aI60
aI70
aI110
aI150
aI210
aI300
aI420
aI600
aI850
aI1200
aI1700
aI2400
aI677
aI0
aI0
aI0
aI0
aI0
aa(lp886
I3
aI13612
aI5
aI5
aI5
aI5
aI5
aI5
aI5
aI10
aI5
aI10
aI10
aI10
aI20
aI30
aI30
aI60
aI70
aI110
aI150
aI210
aI300
aI420
aI600
aI850
aI1200
aI1700
aI2400
aI682
aI0
aI0
aI0
aI0
aI0
aa(lp887
I3
aI13607
aI5
aI5
aI5
aI5
aI5
aI5
aI5
aI10
aI5
aI10
aI10
aI10
aI20
aI30
aI30
aI60
aI70
aI110
aI150
aI210
aI300
aI420
aI600
aI850
aI1200
aI1700
aI2400
aI687
aI0
aI0
aI0
aI0
aI0
aa(lp888
I3
aI13602
aI5
aI5
aI5
aI5
aI5
aI5
aI5
aI10
aI5
aI10
aI10
aI10
aI20
aI30
aI30
aI60
aI70
aI110
aI150
aI210
aI300
aI420
aI600
aI850
aI1200
aI1700
aI2400
aI692
aI0
aI0
aI0
aI0
aI0
aa(lp889
I3
aI13597
aI5
aI5
aI5
aI5
aI5
aI5
aI5
aI10
aI5
aI10
aI10
aI10
aI20
aI30
aI30
aI60
aI70
aI110
aI150
aI210
aI300
aI420
aI600
aI850
aI1200
aI1700
aI2400
aI697
aI0
aI0
aI0
aI0
aI0
aa(lp890
I3
aI13592
aI5
aI5
aI5
aI5
aI5
aI5
aI5
aI10
aI5
aI10
aI10
aI10
aI20
aI30
aI30
aI60
aI70
aI110
aI150
aI210
aI300
aI420
aI600
aI850
aI1200
aI1700
aI2400
aI702
aI0
aI0
aI0
aI0
aI0
aa(lp891
I3
aI13587
aI5
aI5
aI5
aI5
aI5
aI5
aI5
aI10
aI5
aI10
aI10
aI10
aI20
aI30
aI30
aI60
aI70
aI110
aI150
aI210
aI300
aI420
aI600
aI850
aI1200
aI1700
aI2400
aI707
aI0
aI0
aI0
aI0
aI0
aa(lp892
I3
aI13582
aI5
aI5
aI5
aI5
aI5
aI5
aI5
aI10
aI5
aI10
aI10
aI10
aI20
aI30
aI30
aI60
aI70
aI110
aI150
aI210
aI300
aI420
aI600
aI850
aI1200
aI1700
aI2400
aI712
aI0
aI0
aI0
aI0
aI0
aa(lp893
I3
aI13577
aI5
aI5
aI5
aI5
aI5
aI5
aI5
aI10
aI5
aI10
aI10
aI10
aI20
aI30
aI30
aI60
aI70
aI110
aI150
aI210
aI300
aI420
aI600
aI850
aI1200
aI1700
aI2400
aI717
aI0
aI0
aI0
aI0
aI0
aa(lp894
I3
aI13572
aI5
aI5
aI5
aI5
aI5
aI5
aI5
aI10
aI5
aI10
aI10
aI10
aI20
aI30
aI30
aI60
aI70
aI110
aI150
aI210
aI300
aI420
aI600
aI850
aI1200
aI1700
aI2400
aI722
aI0
aI0
aI0
aI0
aI0
aa(lp895
I3
aI13567
aI5
aI5
aI5
aI5
aI5
aI5
aI5
aI10
aI5
aI10
aI10
aI10
aI20
aI30
aI30
aI60
aI70
aI110
aI150
aI210
aI300
aI420
aI600
aI850
aI1200
aI1700
aI2400
aI727
aI0
aI0
aI0
aI0
aI0
aa(lp896
I3
aI13562
aI5
aI5
aI5
aI5
aI5
aI5
aI5
aI10
aI5
aI10
aI10
aI10
aI20
aI30
aI30
aI60
aI70
aI110
aI150
aI210
aI300
aI420
aI600
aI850
aI1200
aI1700
aI2400
aI732
aI0
aI0
aI0
aI0
aI0
aa(lp897
I3
aI13557
aI5
aI5
aI5
aI5
aI5
aI5
aI5
aI10
aI5
aI10
aI10
aI10
aI20
aI30
aI30
aI60
aI70
aI110
aI150
aI210
aI300
aI420
aI600
aI850
aI1200
aI1700
aI2400
aI737
aI0
aI0
aI0
aI0
aI0
aa(lp898
I3
aI13552
aI5
aI5
aI5
aI5
aI5
aI5
aI5
aI10
aI5
aI10
aI10
aI10
aI20
aI30
aI30
aI60
aI70
aI110
aI150
aI210
aI300
aI420
aI600
aI850
aI1200
aI1700
aI2400
aI742
aI0
aI0
aI0
aI0
aI0
aa(lp899
I3
aI13547
aI5
aI5
aI5
aI5
aI5
aI5
aI5
aI10
aI5
aI10
aI10
aI10
aI20
aI30
aI30
aI60
aI70
aI110
aI150
aI210
aI300
aI420
aI600
aI850
aI1200
aI1700
aI2400
aI747
aI0
aI0
aI0
aI0
aI0
aa(lp900
I3
aI13542
aI5
aI5
aI5
aI5
aI5
aI5
aI5
aI10
aI5
aI10
aI10
aI10
aI20
aI30
aI30
aI60
aI70
aI110
aI150
aI210
aI300
aI420
aI600
aI850
aI1200
aI1700
aI2400
aI752
aI0
aI0
aI0
aI0
aI0
aa(lp901
I3
aI13537
aI5
aI5
aI5
aI5
aI5
aI5
aI5
aI10
aI5
aI10
aI10
aI10
aI20
aI30
aI30
aI60
aI70
aI110
aI150
aI210
aI300
aI420
aI600
aI850
aI1200
aI1700
aI2400
aI757
aI0
aI0
aI0
aI0
aI0
aa(lp902
I3
aI13532
aI5
aI5
aI5
aI5
aI5
aI5
aI5
aI10
aI5
aI10
aI10
aI10
aI20
aI30
aI30
aI60
aI70
aI110
aI150
aI210
aI300
aI420
aI600
aI850
aI1200
aI1700
aI2400
aI762
aI0
aI0
aI0
aI0
aI0
aa(lp903
I3
aI13527
aI5
aI5
aI5
aI5
aI5
aI5
aI5
aI10
aI5
aI10
aI10
aI10
aI20
aI30
aI30
aI60
aI70
aI110
aI150
aI210
aI300
aI420
aI600
aI850
aI1200
aI1700
aI2400
aI767
aI0
aI0
aI0
aI0
aI0
aa(lp904
I3
aI13522
aI5
aI5
aI5
aI5
aI5
aI5
aI5
aI10
aI5
aI10
aI10
aI10
aI20
aI30
aI30
aI60
aI70
aI110
aI150
aI210
aI300
aI420
aI600
aI850
aI1200
aI1700
aI2400
aI772
aI0
aI0
aI0
aI0
aI0
aa(lp905
I3
aI13517
aI5
aI5
aI5
aI5
aI5
aI5
aI5
aI10
aI5
aI10
aI10
aI10
aI20
aI30
aI30
aI60
aI70
aI110
aI150
aI210
aI300
aI420
aI600
aI850
aI1200
aI1700
aI2400
aI777
aI0
aI0
aI0
aI0
aI0
aa(lp906
I3
aI13512
aI5
aI5
aI5
aI5
aI5
aI5
aI5
aI10
aI5
aI10
aI10
aI10
aI20
aI30
aI30
aI60
aI70
aI110
aI150
aI210
aI300
aI420
aI600
aI850
aI1200
aI1700
aI2400
aI782
aI0
aI0
aI0
aI0
aI0
aa(lp907
I3
aI13507
aI5
aI5
aI5
aI5
aI5
aI5
aI5
aI10
aI5
aI10
aI10
aI10
aI20
aI30
aI30
aI60
aI70
aI110
aI150
aI210
aI300
aI420
aI600
aI850
aI1200
aI1700
aI2400
aI787
aI0
aI0
aI0
aI0
aI0
aa(lp908
I3
aI13502
aI5
aI5
aI5
aI5
aI5
aI5
aI5
aI10
aI5
aI10
aI10
aI10
aI20
aI30
aI30
aI60
aI70
aI110
aI150
aI210
aI300
aI420
aI600
aI850
aI1200
aI1700
aI2400
aI792
aI0
aI0
aI0
aI0
aI0
aa(lp909
I3
aI13497
aI5
aI5
aI5
aI5
aI5
aI5
aI5
aI10
aI5
aI10
aI10
aI10
aI20
aI30
aI30
aI60
aI70
aI110
aI150
aI210
aI300
aI420
aI600
aI850
aI1200
aI1700
aI2400
aI797
aI0
aI0
aI0
aI0
aI0
aa(lp910
I3
aI13492
aI5
aI5
aI5
aI5
aI5
aI5
aI5
aI10
aI5
aI10
aI10
aI10
aI20
aI30
aI30
aI60
aI70
aI110
aI150
aI210
aI300
aI420
aI600
aI850
aI1200
aI1700
aI2400
aI802
aI0
aI0
aI0
aI0
aI0
aa(lp911
I3
aI13487
aI5
aI5
aI5
aI5
aI5
aI5
aI5
aI10
aI5
aI10
aI10
aI10
aI20
aI30
aI30
aI60
aI70
aI110
aI150
aI210
aI300
aI420
aI600
aI850
aI1200
aI1700
aI2400
aI807
aI0
aI0
aI0
aI0
aI0
aa(lp912
I22487
aI0
aI0
aI0
aI0
aI0
aI0
aI0
aI0
aI0
aI0
aI0
aI0
aI0
aI0
aI0
aI0
aI0
aI0
aI0
aI0
aI0
aI0
aI0
aI0
aI0
aI0
aI0
aI0
aI0
aI0
aI0
aI0
aI0
aI0
aa.