(lp0
F190.26911338009913
aF272.8018543390678
aF353.40127066539657
aF417.2345053306459
aF450.99373184451474
aF481.42602884259946
aF500.04996248979353
aF510.16496129142996
aF510.715426382363
aF502.84723557685373
aF488.19892650183397
aF468.2297440767039
aF433.4971915314403
aF371.5312090203119
aF336.0837284054963
aF321.8142249051101
aF302.0891816123776
aF291.2757047276499
aF282.8729687207197
aF303.49115715383505
aF316.35240827393255
aF348.6093986020653
aF393.1218842333043
aF440.00755426372865
aF498.37188342682225
aF567.2791426814542
aF609.9943195226782
aF645.4555144844187
aF703.2698976635038
aF758.1485523398538
aF845.738124548398
aI-100
aI-100
aI-100
aI-100
a.