(lp0
F158.443257011545
aF226.68614431409992
aF272.2484285315568
aF342.10962914997936
aF375.06023176093635
aF413.24166628218114
aF426.4643890475006
aF370.1275727744694
aF333.39788244159786
aF287.73474644144306
aF225.69010540560578
aF205.71827973680328
aF171.24488836306273
aF173.47620053150942
aF180.84216120892742
aF175.86283127580657
aF193.26756129127003
aF173.99447595967717
aF193.4560101529352
aF225.9189535452773
aF253.5558315274963
aF294.0834064491168
aF343.7673802999728
aF408.3988097964114
aF492.21782529805006
aF575.6904696130496
aF623.2052590535436
aF652.3666354498157
aF705.217842375274
aF753.2084314094213
aF844.2708637889766
aI-100
aI-100
aI-100
aI-100
a.