(lp0
F144.21138211382114
aF90.56122448979593
aF71.05555555555557
aF71.05913209346683
aF72.46472446472444
aF82.18085357227068
aF66.84573103700988
aF69.67433782023441
aF71.78536233625779
aF75.34704773869346
aF70.86381942493206
aF80.09713005257251
aF88.95795819935694
aF92.3980434118006
aF98.16617276633566
aF113.91695324504302
aF131.76565464895634
aF153.64132496716778
aF178.85528431515846
aF212.3397539182657
aF255.08274544385654
aF306.8845208845213
aF390.46610169491515
aF486.5940157958691
aF602.428615550923
aF752.997197309416
aF914.8189989425452
aF1065.9645848796533
aF1110.3311381290096
aF1182.3018974794672
aF1331.9722557297953
aF1425.8506401137986
aF1567.3316831683173
aF1518.8636363636363
aI-100
a.