(lp0
F112.82857142857144
aF95.92638036809815
aF73.41087866108785
aF71.99486916367368
aF70.85777942814708
aF80.15124816446398
aF62.65749811605127
aF66.26877120519255
aF68.79751461988307
aF72.78808087223456
aF65.94560826679196
aF75.66238690219731
aF86.51000241021937
aF91.23372261659416
aF97.71329188869144
aF113.63450292397681
aF132.05351804593516
aF153.29277899343538
aF178.43608857706622
aF212.29977301017783
aF255.20314451546537
aF307.0042423340284
aF390.6566671666416
aF486.23889437314915
aF601.2415071031492
aF751.7755265476105
aF913.4151459049622
aF1065.665323435844
aF1110.4108199492823
aF1182.970238095238
aF1332.0097087378635
aF1425.6154949784802
aF1566.5273631840791
aF1518.8636363636363
aI-100
a.