(lp0
F230.51139556665623
aF270.4181211623071
aF252.44779460936854
aF242.56430309711553
aF232.83169192953733
aF182.98857989514437
aF167.1418147236322
aF145.85794495072855
aF182.69897729754769
aF243.26945245870465
aF226.58143040488162
aF313.5286106528188
aF456.2978681951311
aF585.377550174731
aF609.4311306022381
aF688.247088630919
aF688.9605976770537
aF616.7604940872022
aF557.7794249943771
aF544.428007284185
aF528.5768428215022
aF556.0952087140175
aF587.6571939688222
aF631.6531963217373
aF702.6721149232241
aF793.8017156945538
aF905.5297327000826
aF1017.0978850192929
aF1086.7246116225547
aF1168.6131289074135
aF1318.835807050091
aF1435.5983899821108
aF1523.6408163265307
aF1518.8636363636363
aI-100
a.