(lp0
F1.0
aF233.115080447232
aF153.9026109242352
aF122.30599019149925
aF106.3696578128739
aF75.72624151143813
aF98.02075603780193
aF90.79466657699145
aF112.74810446503783
aF104.52632465956604
aF112.6891425446842
aF138.99514546393544
aF155.42650686121226
aF182.414465890879
aF215.82897878915617
aF272.1823100862926
aF311.310355987055
aF331.1870321403298
aF355.358466674341
aF398.97992491602804
aF465.48549933260506
aF538.990091144744
aF595.7988762492515
aF668.6825420748554
aF778.8744033412872
aF895.0049668874165
aF1046.265575833858
aF1155.8947927736442
aF1267.411138161899
aF1423.7910983488882
aF1623.666666666667
aF1557.0
aI-100
aI-100
aI-100
a.