(lp0
I-100
aF165.0407392280987
aF58.58609150644925
aF78.03725768754873
aF115.27226068274057
aF114.77688022284137
aF85.15551949173027
aF87.56490248845482
aF99.3281623683021
aF101.64923522782169
aF94.00732059615261
aF108.67279110207038
aF131.58835943940636
aF152.48645087173958
aF181.37183968507154
aF205.3173374075487
aF239.21885202738318
aF258.8828007720359
aF272.441142106032
aF313.32005779490237
aF379.8657580283788
aF452.80189223491425
aF508.4977120874669
aF594.9227712279773
aF715.2198494316787
aF844.5445398917389
aF951.6966117768768
aF979.4582917439026
aF1008.8776144129213
aF1095.2299767364564
aF1091.7092481703269
aF1260.874509803921
aF1235.2037037037037
aF1462.857142857143
aI-100
a.