(lp0
I-100
aF164.3775916658155
aF59.252567608629555
aF77.65577302103867
aF115.54361668258508
aF114.76928972027734
aF85.26607025664052
aF87.5049524695871
aF98.89131348398145
aF101.53067731649966
aF94.03325782199016
aF108.66393254371872
aF131.672778235779
aF152.43275663985915
aF181.451824198201
aF205.41520244461427
aF239.28280558871066
aF259.0082564872407
aF272.65545819642165
aF313.3203484062273
aF380.3746219052246
aF453.6746297364875
aF509.0311537838279
aF595.4379061850664
aF715.5840106398692
aF848.3079004647338
aF951.2047503467413
aF977.813573883161
aF1003.2813218991839
aF1093.1597989949748
aF1084.9641649763355
aF1262.5926892950397
aF1230.4245283018868
aF1462.857142857143
aI-100
a.