(lp0
F1.0
aF231.43512486427804
aF153.8230873770884
aF122.45578628091455
aF106.65995408016839
aF75.89887299358706
aF97.65430672268911
aF91.03581758256547
aF112.74168151628056
aF104.38434055748436
aF112.65297334244711
aF139.017662856356
aF155.39582392384372
aF182.39080139372814
aF215.78260869565227
aF272.1341161491122
aF311.0100327232193
aF330.7461251862887
aF355.90938734798675
aF399.3593756174703
aF465.4357428906598
aF538.7198293886427
aF596.3075329219993
aF668.2092146912545
aF778.8369746895894
aF894.478874253221
aF1044.8417621701192
aF1155.8290522586365
aF1267.5659008464324
aF1422.1667870036076
aF1626.333333333334
aF1570.75
aI-100
aI-100
aI-100
a.