(lp0
F102.87209902011348
aF115.2411141624166
aF48.70212994836491
aF79.21706023271734
aF121.95237730355149
aF128.24325825148364
aF109.08123100840938
aF119.97826609442046
aF127.40633370630333
aF129.29814657371205
aF110.71683709202959
aF120.41746482826365
aF127.59962299046803
aF142.34088375939322
aF158.6323014124193
aF175.91640046464352
aF199.20724500218884
aF228.87786119758272
aF262.13442971990776
aF307.0515796499562
aF373.03787680699367
aF447.25090294321006
aF499.522253270157
aF584.0107332952097
aF704.1825404562301
aF840.6828719723183
aF975.2182837358843
aF991.433426183845
aF996.5392781316345
aF1095.739455782312
aF1090.1811846689886
aF1277.9146981627296
aF1292.9555555555555
aF1518.896551724138
aI-100
a.