(lp0
F1.3359413911452818
aF54.79324812225589
aF191.4439377068686
aF319.52542196155173
aF363.2487076621547
aF333.7930123328559
aF288.04179510241414
aF231.16430967036928
aF185.16627023686644
aF167.2013520751603
aF163.2301356910384
aF130.03550179349543
aF154.03548965339203
aF172.47714518333265
aF175.48503899995606
aF189.7755166847496
aF208.91021142308765
aF228.4967182337701
aF264.8441470739811
aF322.97843852826713
aF390.4501463077733
aF496.91357042524845
aF626.1019376431836
aF759.8753677014349
aF888.5535650441789
aF557.5952106747152
aF371.9765433610975
aF469.7521399798598
aF567.6158210947931
aF670.3149738067527
aF881.525949462853
aF1227.2609720848864
aF1726.1121270052358
aI-100
aI-100
a.