(lp0
F1.3320093478705155
aF53.129729457656914
aF191.5590245905133
aF323.4114724540468
aF368.0304928469727
aF333.07370080839917
aF291.68969209937165
aF235.28370357509658
aF187.88026522781084
aF168.93686748950623
aF168.33486547117562
aF152.47776013162274
aF152.1825211313489
aF169.43684245892965
aF176.88044253999374
aF191.04942666247317
aF211.86613841802077
aF233.5694590165864
aF273.18157628541474
aF338.38945826355535
aF426.6388200539554
aF546.0440380852677
aF689.2775322866318
aF850.004398739547
aF1015.0521926159776
aF1085.041095890411
aF1194.1216216216217
aF1188.2432432432433
aF1237.111111111111
aF1222.1111111111109
aF1745.4285714285713
aI-100
aI-100
aI-100
aI-100
a.