(lp0
F1.281773088854082
aF44.82882060678675
aF203.21361124848943
aF387.4088297663643
aF467.69175208258946
aF467.62557426355596
aF432.6975520565743
aF334.90001982114364
aF243.88297342427376
aF224.9106957926963
aF189.36053334700614
aF173.7033626111503
aF167.0562970548194
aF169.7425846927448
aF176.5748449851252
aF185.91945972100942
aF201.6107855841918
aF222.72983395537292
aF259.6432619404714
aF320.81547471130574
aF397.8908747108155
aF517.3485611465454
aF672.7827687443556
aF861.1088069813973
aF1037.4417983295825
aI-100
aI-100
aI-100
aI-100
aI-100
aI-100
aI-100
aI-100
aI-100
aI-100
a.