(lp0
F1.3296633172152217
aF58.492718155925665
aF201.10662696451138
aF327.28731144395306
aF372.7978948021145
aF338.57813541978084
aF294.00583942462583
aF239.94347727720157
aF188.97811249705856
aF170.11950597967788
aF166.2973072495789
aF133.9605682425462
aF144.97200257434596
aF171.04035530339175
aF174.96537199622844
aF191.08215299948841
aF211.95257705860007
aF233.83908181491196
aF273.88322087936535
aF339.50933330937056
aF427.34187106510853
aF545.8859819121441
aF689.0207848075444
aF851.138086779306
aF1022.231026373123
aF1088.9503255813963
aF1042.375
aF1026.181818181818
aF869.1428571428571
aF1048.4285714285713
aF1296.7142857142858
aF1653.2857142857142
aI-100
aI-100
aI-100
a.