(lp0
F1.3382968351927305
aF53.09634211753138
aF184.2606709182116
aF309.71415706874586
aF356.1593417154581
aF328.3388409757214
aF284.4630169051469
aF230.4968148435823
aF183.3872601844458
aF166.56035032904677
aF166.52383161814095
aF136.63148606520804
aF142.32962278606539
aF173.03581852027182
aF175.91320237014614
aF189.66020051156897
aF208.20202281852357
aF227.43226460524627
aF262.8151216694563
aF320.80270777993104
aF387.1819140362255
aF493.1074327748482
aF619.5765780654968
aF751.5799209035349
aF865.3657023180791
aF466.7143197684322
aF340.6608351365039
aF436.37383791905256
aF552.7708373809984
aF675.0614281259735
aF884.1046492703309
aF1228.0356107433947
aF1726.6148997478695
aI-100
aI-100
a.