(lp0
F1.3282472134245575
aF46.43740943467978
aF181.04440786995877
aF311.47090364193116
aF357.74849321794704
aF326.93139433457736
aF285.8445684317865
aF231.12752214584899
aF186.79699726891675
aF169.8121535298385
aF170.0557853376076
aF162.35832380516814
aF157.47835413750775
aF169.63099619112884
aF177.0769049983253
aF190.51364802930382
aF211.0239684189142
aF232.4381472016125
aF272.3114433463231
aF335.7024116972856
aF414.1775904046591
aF531.2792843085304
aF671.0680460987458
aF824.8362286122707
aF991.7755474059651
aF1079.199152542373
aI-100
aI-100
aI-100
aI-100
aI-100
aI-100
aI-100
aI-100
aI-100
a.