(lp0
F0.0
aF1.0
aF1.3545536271604028
aF1.8348155288534034
aF2.48535602977861
aF3.3665480249215944
aF4.560169838167233
aF6.176994594756892
aF8.36707043327815
aF11.33364560410348
aF15.352030761988924
aF20.795148952930177
aF28.16814444153241
aF38.15526222365586
aF51.68334884030934
aF70.0078676354374
aF94.8294110353471
aF128.45152267941415
aF173.99447595967717
aF193.4560101529352
aF225.9189535452773
aF253.5558315274963
aF294.0834064491168
aF343.7673802999728
aF408.3988097964114
aF492.21782529805006
aF575.6904696130496
aF623.2052590535436
aF652.3666354498157
aF705.217842375274
aF753.2084314094213
aF844.2708637889766
a.