(lp0
F0.0
aF1.0
aF1.2992950705935293
aF1.6881676804686436
aF2.1934279455682213
aF2.849910117378881
aF3.7028741671450063
aF4.811126152399628
aF6.251072493816446
aF8.12198767713851
aF10.55285855232745
aF13.711277097709825
aF17.81499474459633
aF23.14693485430363
aF30.074698355546264
aF39.07590732294857
aF50.77113376367667
aF65.9666838275898
aF85.71018712058928
aF111.36282362543066
aF144.69316778389862
aF187.99911965018197
aF219.34887844902636
aF239.3240985446287
aF275.1680995654382
aF303.05439675044175
aF352.4441294177476
aF422.6760284019608
aF535.6397932925878
aF671.2330066325344
aF767.5604222099741
aF827.7170234110067
aF841.1412412248994
a.