(lp0
F-1000.0
aF6.0
aF11.0
aF16.0
aF45.0
aF23.0
aF16.0
aF32.0
aF16.0
aF2.0
aF3.0
aF8.0
aF11.0
aF11.0
aF8.0
aF8.0
aF8.0
aF8.0
aF8.0
aF6.0
aF4.0
aF8.0
aF11.0
aF11.0
aF8.0
aF11.0
aF8.0
aF8.0
aF8.0
aF6.0
aF6.0
aF8.0
aF11.0
aF11.0
aF8.0
aF11.0
aF11.0
aF8.0
aF8.0
aF6.0
aF8.0
aF11.0
aF11.0
aF11.0
aF11.0
aF11.0
aF8.0
aF8.0
aF8.0
aF6.0
aF8.0
aF11.0
aF16.0
aF11.0
aF11.0
aF11.0
aF11.0
aF8.0
aF11.0
aF6.0
aF11.0
aF11.0
aF16.0
aF16.0
aF11.0
aF11.0
aF11.0
aF8.0
aF11.0
aF6.0
aF11.0
aF11.0
aF16.0
aF16.0
aF11.0
aF11.0
aF11.0
aF11.0
aF11.0
aF8.0
aF16.0
aF11.0
aF16.0
aF16.0
aF11.0
aF11.0
aF11.0
aF11.0
aF11.0
aF8.0
aF16.0
aF16.0
aF16.0
aF16.0
aF16.0
aF11.0
aF11.0
aF11.0
aF11.0
aF8.0
aF16.0
aF16.0
aF16.0
aF16.0
aF16.0
aF11.0
aF16.0
aF11.0
aF11.0
aF8.0
aF23.0
aF16.0
aF16.0
aF16.0
aF16.0
aF11.0
aF16.0
aF16.0
aF11.0
aF8.0
aF23.0
aF16.0
aF16.0
aF16.0
aF16.0
aF16.0
aF16.0
aF16.0
aF16.0
aF8.0
aF23.0
aF16.0
aF16.0
aF16.0
aF16.0
aF16.0
aF16.0
aF16.0
aF16.0
aF8.0
aF23.0
aF16.0
aF16.0
aF23.0
aF16.0
aF16.0
aF16.0
aF16.0
aF16.0
aF8.0
aF23.0
aF23.0
aF23.0
aF23.0
aF23.0
aF16.0
aF16.0
aF16.0
aF16.0
aF8.0
aF23.0
aF16.0
aF23.0
aF23.0
aF23.0
aF16.0
aF16.0
aF16.0
aF16.0
aF11.0
aF23.0
aF23.0
aF23.0
aF23.0
aF23.0
aF16.0
aF16.0
aF16.0
aF16.0
aF11.0
aF23.0
aF23.0
aF23.0
aF23.0
aF23.0
aF16.0
aF23.0
aF23.0
aF16.0
aF11.0
aF23.0
aF23.0
aF23.0
aF23.0
aF23.0
aF16.0
aF16.0
aF16.0
aF16.0
aF11.0
aF32.0
aF23.0
aF23.0
aF23.0
aF23.0
aF23.0
aF23.0
aF23.0
aF16.0
aF11.0
aF32.0
aF32.0
aF23.0
aF32.0
aF23.0
aF16.0
aF23.0
aF23.0
aF23.0
aF11.0
aF32.0
aF23.0
aF23.0
aF23.0
aF23.0
aF23.0
aF23.0
aF23.0
aF16.0
aF11.0
aF32.0
aF23.0
aF23.0
aF23.0
aF32.0
aF23.0
aF23.0
aF23.0
aF23.0
aF11.0
aF32.0
aF32.0
aF23.0
aF23.0
aF23.0
aF23.0
aF23.0
aF23.0
aF23.0
aF11.0
aF32.0
aF32.0
aF32.0
aF32.0
aF32.0
aF23.0
aF23.0
aF23.0
aF23.0
aF11.0
aF45.0
aF32.0
aF32.0
aF32.0
aF32.0
aF23.0
aF23.0
aF23.0
aF23.0
aF11.0
aF32.0
aF32.0
aF32.0
aF32.0
aF32.0
aF23.0
aF23.0
aF23.0
aF23.0
aF11.0
aF32.0
aF32.0
aF32.0
aF32.0
aF32.0
aF23.0
aF32.0
aF23.0
aF23.0
aF11.0
aF32.0
aF32.0
aF32.0
aF32.0
aF32.0
aF23.0
aF23.0
aF32.0
aF23.0
aF11.0
aF45.0
aF32.0
aF45.0
aF45.0
aF32.0
aF32.0
aF32.0
aF32.0
aF23.0
aF16.0
aF45.0
aF45.0
aF32.0
aF32.0
aF32.0
aF32.0
aF32.0
aF32.0
aF32.0
aF11.0
aF45.0
aF32.0
aF32.0
aF32.0
aF32.0
aF32.0
aF32.0
aF32.0
aF23.0
aF11.0
aF45.0
aF32.0
aF32.0
aF45.0
aF32.0
aF32.0
aF32.0
aF32.0
aF23.0
aF16.0
aF45.0
aF32.0
aF32.0
aF45.0
aF45.0
aF32.0
aF32.0
aF32.0
aF23.0
aF16.0
aF45.0
aF45.0
aF32.0
aF45.0
aF32.0
aF32.0
aF32.0
aF32.0
aF23.0
aF11.0
aF45.0
aF32.0
aF32.0
aF45.0
aF32.0
aF32.0
aF32.0
aF32.0
aF32.0
aF16.0
aF45.0
aF64.0
aF45.0
aF45.0
aF32.0
aF32.0
aF32.0
aF32.0
aF32.0
aF16.0
aF45.0
aF45.0
aF32.0
aF45.0
aF45.0
aF32.0
aF32.0
aF32.0
aF32.0
aF16.0
aF45.0
aF45.0
aF45.0
aF45.0
aF32.0
aF32.0
aF32.0
aF32.0
aF32.0
aF16.0
aF45.0
aF45.0
aF32.0
aF45.0
aF45.0
aF32.0
aF32.0
aF32.0
aF32.0
aF16.0
aF45.0
aF45.0
aF45.0
aF45.0
aF45.0
aF32.0
aF45.0
aF45.0
aF32.0
aF16.0
aF64.0
aF45.0
aF45.0
aF45.0
aF45.0
aF32.0
aF45.0
aF32.0
aF32.0
aF16.0
aF64.0
aF45.0
aF45.0
aF64.0
aF45.0
aF32.0
aF32.0
aF45.0
aF32.0
aF16.0
aF45.0
aF45.0
aF45.0
aF45.0
aF45.0
aF32.0
aF45.0
aF45.0
aF32.0
aF16.0
aF45.0
aF64.0
aF45.0
aF45.0
aF45.0
aF45.0
aF45.0
aF32.0
aF32.0
aF16.0
aF45.0
aF45.0
aF45.0
aF45.0
aF45.0
aF45.0
aF45.0
aF45.0
aF45.0
aF16.0
aF64.0
aF64.0
aF64.0
aF45.0
aF45.0
aF45.0
aF45.0
aF32.0
aF32.0
aF16.0
aF64.0
aF64.0
aF45.0
aF45.0
aF45.0
aF45.0
aF45.0
aF45.0
aF32.0
aF16.0
aF64.0
aF45.0
aF45.0
aF45.0
aF45.0
aF45.0
aF45.0
aF45.0
aF32.0
aF16.0
aF64.0
aF45.0
aF45.0
aF45.0
aF45.0
aF32.0
aF45.0
aF45.0
aF32.0
aF16.0
aF64.0
aF45.0
aF45.0
aF64.0
aF45.0
aF32.0
aF45.0
aF45.0
aF45.0
aF23.0
aF64.0
aF64.0
aF64.0
aF45.0
aF45.0
aF45.0
aF45.0
aF45.0
aF45.0
aF16.0
aF64.0
aF64.0
aF45.0
aF64.0
aF45.0
aF32.0
aF45.0
aF45.0
aF45.0
aF16.0
aF64.0
aF45.0
aF45.0
aF64.0
aF64.0
aF32.0
aF45.0
aF45.0
aF32.0
aF16.0
aF64.0
aF64.0
aF45.0
aF64.0
aF45.0
aF45.0
aF45.0
aF45.0
aF45.0
aF23.0
aF64.0
aF45.0
aF45.0
aF64.0
aF64.0
aF45.0
aF45.0
aF45.0
aF45.0
aF16.0
aF64.0
aF64.0
aF64.0
aF45.0
aF45.0
aF45.0
aF64.0
aF45.0
aF45.0
aF23.0
aF64.0
aF64.0
aF64.0
aF64.0
aF45.0
aF45.0
aF45.0
aF64.0
aF45.0
aF23.0
aF64.0
aF64.0
aF64.0
aF64.0
aF64.0
aF45.0
aF64.0
aF45.0
aF45.0
aF23.0
aF64.0
aF45.0
aF64.0
aF64.0
aF64.0
aF64.0
aF64.0
aF45.0
aF32.0
aF23.0
aF64.0
aF64.0
aF64.0
aF64.0
aF64.0
aF64.0
aF45.0
aF45.0
aF45.0
aF23.0
aF64.0
aF64.0
aF64.0
aF64.0
aF64.0
aF64.0
aF64.0
aF64.0
aF45.0
aF23.0
aF64.0
aF64.0
aF64.0
aF64.0
aF64.0
aF64.0
aF64.0
aF64.0
aF45.0
aF23.0
aF64.0
aF64.0
aF64.0
aF64.0
aF64.0
aF64.0
aF45.0
aF45.0
aF45.0
aF23.0
aF64.0
aF64.0
aF64.0
aF91.0
aF64.0
aF64.0
aF64.0
aF64.0
aF45.0
aF23.0
aF64.0
aF64.0
aF64.0
aF64.0
aF64.0
aF64.0
aF45.0
aF45.0
aF45.0
aF16.0
aF64.0
aF45.0
aF64.0
aF64.0
aF64.0
aF64.0
aF45.0
aF64.0
aF45.0
aF23.0
aF64.0
aF64.0
aF64.0
aF64.0
aF64.0
aF64.0
aF64.0
aF45.0
aF45.0
aF16.0
aF91.0
aF64.0
aF64.0
aF64.0
aF64.0
aF45.0
aF64.0
aF64.0
aF32.0
aF23.0
aF91.0
aF64.0
aF64.0
aF91.0
aF64.0
aF64.0
aF64.0
aF64.0
aF45.0
aF23.0
aF64.0
aF64.0
aF64.0
aF91.0
aF64.0
aF64.0
aF64.0
aF64.0
aF45.0
aF23.0
aF91.0
aF91.0
aF64.0
aF91.0
aF64.0
aF45.0
aF64.0
aF64.0
aF45.0
aF23.0
aF91.0
aF64.0
aF91.0
aF64.0
aF64.0
aF64.0
aF91.0
aF64.0
aF45.0
aF23.0
aF91.0
aF91.0
aF91.0
aF64.0
aF64.0
aF91.0
aF64.0
aF45.0
aF45.0
aF23.0
aF91.0
aF91.0
aF64.0
aF91.0
aF64.0
aF64.0
aF64.0
aF64.0
aF45.0
aF23.0
aF91.0
aF64.0
aF91.0
aF91.0
aF91.0
aF64.0
aF64.0
aF45.0
aF45.0
aF23.0
aF91.0
aF91.0
aF91.0
aF91.0
aF64.0
aF91.0
aF64.0
aF64.0
aF64.0
aF23.0
aF128.0
aF91.0
aF64.0
aF91.0
aF91.0
aF91.0
aF64.0
aF45.0
aF64.0
aF32.0
aF91.0
aF91.0
aF91.0
aF91.0
aF64.0
aF64.0
aF91.0
aF64.0
aF64.0
aF23.0
aF128.0
aF91.0
aF91.0
aF91.0
aF64.0
aF64.0
aF91.0
aF64.0
aF45.0
aF23.0
aF91.0
aF64.0
aF91.0
aF91.0
aF64.0
aF64.0
aF64.0
aF64.0
aF64.0
aF23.0
aF128.0
aF64.0
aF91.0
aF91.0
aF91.0
aF64.0
aF91.0
aF64.0
aF64.0
aF32.0
aF91.0
aF91.0
aF91.0
aF91.0
aF91.0
aF64.0
aF91.0
aF91.0
aF64.0
aF23.0
aF91.0
aF91.0
aF64.0
aF91.0
aF64.0
aF91.0
aF91.0
aF64.0
aF64.0
aF32.0
aF91.0
aF91.0
aF91.0
aF64.0
aF64.0
aF91.0
aF91.0
aF64.0
aF64.0
aF23.0
aF91.0
aF91.0
aF64.0
aF91.0
aF64.0
aF91.0
aF91.0
aF64.0
aF64.0
aF23.0
aF128.0
aF91.0
aF91.0
aF91.0
aF64.0
aF91.0
aF64.0
aF64.0
aF64.0
aF32.0
aF128.0
aF91.0
aF91.0
aF91.0
aF91.0
aF91.0
aF91.0
aF64.0
aF64.0
aF32.0
aF91.0
aF91.0
aF91.0
aF91.0
aF128.0
aF64.0
aF91.0
aF64.0
aF45.0
aF23.0
aF128.0
aF91.0
aF91.0
aF91.0
aF91.0
aF91.0
aF91.0
aF64.0
aF64.0
aF32.0
aF91.0
aF91.0
aF91.0
aF91.0
aF91.0
aF91.0
aF91.0
aF91.0
aF64.0
aF32.0
aF91.0
aF91.0
aF91.0
aF91.0
aF91.0
aF91.0
aF64.0
aF64.0
aF64.0
aF23.0
aF91.0
aF91.0
aF91.0
aF91.0
aF64.0
aF64.0
aF64.0
aF91.0
aF64.0
aF23.0
aF91.0
aF91.0
aF91.0
aF128.0
aF91.0
aF91.0
aF64.0
aF91.0
aF64.0
aF23.0
aF91.0
aF91.0
aF91.0
aF91.0
aF91.0
aF64.0
aF91.0
aF91.0
aF91.0
aF23.0
aF128.0
aF91.0
aF91.0
aF128.0
aF64.0
aF64.0
aF91.0
aF91.0
aF64.0
aF32.0
aF91.0
aF128.0
aF91.0
aF91.0
aF91.0
aF91.0
aF91.0
aF91.0
aF64.0
aF23.0
aF128.0
aF91.0
aF91.0
aF128.0
aF91.0
aF91.0
aF91.0
aF91.0
aF64.0
aF23.0
aF91.0
aF91.0
aF91.0
aF91.0
aF64.0
aF64.0
aF91.0
aF64.0
aF91.0
aF23.0
aF128.0
aF91.0
aF91.0
aF128.0
aF91.0
aF91.0
aF91.0
aF91.0
aF64.0
aF32.0
aF128.0
aF128.0
aF91.0
aF91.0
aF91.0
aF91.0
aF64.0
aF91.0
aF64.0
aF32.0
aF128.0
aF91.0
aF91.0
aF128.0
aF64.0
aF91.0
aF91.0
aF91.0
aF64.0
aF32.0
aF128.0
aF91.0
aF91.0
aF128.0
aF91.0
aF91.0
aF91.0
aF91.0
aF64.0
aF23.0
aF128.0
aF91.0
aF91.0
aF128.0
aF91.0
aF91.0
aF91.0
aF128.0
aF91.0
aF32.0
aF128.0
aF91.0
aF91.0
aF128.0
aF91.0
aF91.0
aF91.0
aF91.0
aF64.0
aF32.0
aF128.0
aF91.0
aF91.0
aF128.0
aF91.0
aF91.0
aF64.0
aF91.0
aF64.0
aF32.0
aF128.0
aF128.0
aF91.0
aF91.0
aF128.0
aF91.0
aF91.0
aF91.0
aF91.0
aF32.0
aF128.0
aF128.0
aF91.0
aF91.0
aF128.0
aF91.0
aF91.0
aF91.0
aF91.0
aF32.0
aF128.0
aF128.0
aF91.0
aF91.0
aF91.0
aF91.0
aF91.0
aF128.0
aF91.0
aF32.0
aF181.0
aF91.0
aF91.0
aF91.0
aF128.0
aF91.0
aF91.0
aF91.0
aF64.0
aF32.0
aF128.0
aF128.0
aF91.0
aF91.0
aF91.0
aF91.0
aF91.0
aF128.0
aF91.0
aF32.0
aF128.0
aF91.0
aF128.0
aF128.0
aF128.0
aF128.0
aF91.0
aF91.0
aF91.0
aF32.0
aF128.0
aF128.0
aF128.0
aF128.0
aF91.0
aF91.0
aF91.0
aF128.0
aF91.0
aF32.0
aF128.0
aF128.0
aF128.0
aF128.0
aF128.0
aF128.0
aF91.0
aF91.0
aF91.0
aF32.0
aF181.0
aF128.0
aF91.0
aF91.0
aF128.0
aF128.0
aF128.0
aF91.0
aF64.0
aF32.0
aF181.0
aF128.0
aF128.0
aF128.0
aF128.0
aF91.0
aF91.0
aF91.0
aF91.0
aF45.0
aF181.0
aF128.0
aF128.0
aF91.0
aF91.0
aF91.0
aF91.0
aF128.0
aF91.0
aF32.0
aF128.0
aF128.0
aF128.0
aF128.0
aF128.0
aF128.0
aF91.0
aF91.0
aF64.0
aF32.0
aF128.0
aF128.0
aF181.0
aF91.0
aF128.0
aF91.0
aF128.0
aF91.0
aF91.0
aF32.0
aF181.0
aF128.0
aF91.0
aF91.0
aF128.0
aF128.0
aF128.0
aF91.0
aF91.0
aF32.0
aF128.0
aF91.0
aF128.0
aF128.0
aF128.0
aF91.0
aF128.0
aF128.0
aF91.0
aF32.0
aF128.0
aF128.0
aF128.0
aF128.0
aF128.0
aF128.0
aF91.0
aF91.0
aF91.0
aF32.0
aF181.0
aF128.0
aF128.0
aF128.0
aF128.0
aF91.0
aF91.0
aF128.0
aF91.0
aF32.0
aF181.0
aF128.0
aF181.0
aF128.0
aF91.0
aF128.0
aF128.0
aF91.0
aF91.0
aF45.0
aF128.0
aF128.0
aF128.0
aF128.0
aF91.0
aF91.0
aF128.0
aF128.0
aF91.0
aF45.0
aF181.0
aF128.0
aF128.0
aF128.0
aF128.0
aF128.0
aF91.0
aF91.0
aF64.0
aF32.0
aF128.0
aF128.0
aF128.0
aF128.0
aF128.0
aF91.0
aF128.0
aF128.0
aF91.0
aF32.0
aF181.0
aF181.0
aF128.0
aF128.0
aF91.0
aF128.0
aF91.0
aF128.0
aF91.0
aF32.0
aF128.0
aF91.0
aF91.0
aF128.0
aF128.0
aF128.0
aF91.0
aF91.0
aF91.0
aF32.0
aF128.0
aF128.0
aF181.0
aF128.0
aF91.0
aF128.0
aF128.0
aF128.0
aF91.0
aF32.0
aF128.0
aF128.0
aF181.0
aF128.0
aF128.0
aF128.0
aF128.0
aF91.0
aF128.0
aF32.0
aF181.0
aF128.0
aF181.0
aF128.0
aF128.0
aF128.0
aF128.0
aF91.0
aF128.0
aF32.0
aF181.0
aF128.0
aF128.0
aF128.0
aF91.0
aF91.0
aF91.0
aF91.0
aF128.0
aF23.0
aF181.0
aF128.0
aF128.0
aF128.0
aF128.0
aF128.0
aF128.0
aF91.0
aF91.0
aF45.0
aF128.0
aF128.0
aF128.0
aF128.0
aF128.0
aF91.0
aF128.0
aF128.0
aF91.0
aF32.0
aF181.0
aF128.0
aF128.0
aF128.0
aF128.0
aF128.0
aF91.0
aF91.0
aF128.0
aF32.0
aF128.0
aF128.0
aF128.0
aF181.0
aF128.0
aF128.0
aF128.0
aF128.0
aF91.0
aF32.0
aF181.0
aF128.0
aF181.0
aF128.0
aF128.0
aF91.0
aF91.0
aF91.0
aF91.0
aF45.0
aF128.0
aF91.0
aF128.0
aF128.0
aF128.0
aF128.0
aF128.0
aF128.0
aF91.0
aF45.0
aF181.0
aF128.0
aF128.0
aF128.0
aF128.0
aF91.0
aF128.0
aF128.0
aF128.0
aF32.0
aF181.0
aF181.0
aF181.0
aF128.0
aF128.0
aF128.0
aF128.0
aF128.0
aF91.0
aF32.0
aF181.0
aF181.0
aF181.0
aF128.0
aF128.0
aF128.0
aF128.0
aF91.0
aF91.0
aF45.0
aF181.0
aF128.0
aF181.0
aF128.0
aF128.0
aF128.0
aF128.0
aF128.0
aF91.0
aF32.0
aF181.0
aF181.0
aF181.0
aF181.0
aF128.0
aF128.0
aF128.0
aF91.0
aF91.0
aF32.0
aF181.0
aF128.0
aF128.0
aF128.0
aF128.0
aF128.0
aF128.0
aF128.0
aF91.0
aF23.0
aF181.0
aF181.0
aF128.0
aF128.0
aF128.0
aF128.0
aF128.0
aF91.0
aF181.0
aF32.0
aF128.0
aF128.0
aF128.0
aF91.0
aF128.0
aF128.0
aF128.0
aF91.0
aF128.0
aF32.0
aF181.0
aF181.0
aF128.0
aF128.0
aF181.0
aF128.0
aF128.0
aF128.0
aF128.0
aF45.0
aF181.0
aF181.0
aF181.0
aF128.0
aF128.0
aF128.0
aF128.0
aF128.0
aF91.0
aF45.0
aF181.0
aF181.0
aF181.0
aF181.0
aF128.0
aF91.0
aF128.0
aF91.0
aF128.0
aF32.0
aF128.0
aF181.0
aF181.0
aF128.0
aF128.0
aF181.0
aF128.0
aF128.0
aF128.0
aF45.0
aF181.0
aF181.0
aF181.0
aF128.0
aF128.0
aF91.0
aF128.0
aF128.0
aF128.0
aF32.0
aF181.0
aF128.0
aF181.0
aF128.0
aF128.0
aF128.0
aF128.0
aF91.0
aF91.0
aF32.0
aF128.0
aF181.0
aF128.0
aF181.0
aF91.0
aF128.0
aF128.0
aF91.0
aF128.0
aF32.0
aF181.0
aF181.0
aF181.0
aF128.0
aF128.0
aF128.0
aF128.0
aF128.0
aF128.0
aF45.0
aF181.0
aF181.0
aF181.0
aF128.0
aF128.0
aF91.0
aF128.0
aF128.0
aF91.0
aF64.0
aF181.0
aF181.0
aF181.0
aF128.0
aF128.0
aF128.0
aF128.0
aF128.0
aF128.0
aF32.0
aF181.0
aF128.0
aF128.0
aF128.0
aF128.0
aF91.0
aF128.0
aF128.0
aF128.0
aF32.0
aF181.0
aF128.0
aF181.0
aF128.0
aF128.0
aF128.0
aF128.0
aF181.0
aF128.0
aF32.0
aF181.0
aF181.0
aF181.0
aF128.0
aF181.0
aF128.0
aF128.0
aF128.0
aF91.0
aF45.0
aF256.0
aF181.0
aF128.0
aF128.0
aF181.0
aF128.0
aF181.0
aF128.0
aF128.0
aF45.0
aF256.0
aF128.0
aF128.0
aF181.0
aF128.0
aF128.0
aF128.0
aF128.0
aF128.0
aF45.0
aF181.0
aF181.0
aF128.0
aF181.0
aF128.0
aF128.0
aF181.0
aF128.0
aF128.0
aF45.0
aF256.0
aF128.0
aF128.0
aF181.0
aF181.0
aF91.0
aF128.0
aF128.0
aF128.0
aF45.0
aF181.0
aF181.0
aF181.0
aF181.0
aF128.0
aF128.0
aF181.0
aF181.0
aF128.0
aF45.0
aF181.0
aF181.0
aF181.0
aF181.0
aF181.0
aF128.0
aF128.0
aF128.0
aF128.0
aF45.0
aF181.0
aF181.0
aF181.0
aF128.0
aF181.0
aF128.0
aF128.0
aF91.0
aF128.0
aF32.0
aF181.0
aF181.0
aF181.0
aF181.0
aF128.0
aF128.0
aF181.0
aF128.0
aF128.0
aF45.0
aF181.0
aF181.0
aF128.0
aF128.0
aF181.0
aF128.0
aF181.0
aF128.0
aF128.0
aF45.0
aF256.0
aF181.0
aF128.0
aF181.0
aF128.0
aF128.0
aF128.0
aF128.0
aF128.0
aF45.0
aF181.0
aF181.0
aF128.0
aF181.0
aF181.0
aF181.0
aF128.0
aF181.0
aF181.0
aF45.0
aF256.0
aF181.0
aF256.0
aF128.0
aF181.0
aF128.0
aF128.0
aF128.0
aF128.0
aF45.0
aF181.0
aF181.0
aF181.0
aF128.0
aF181.0
aF128.0
aF128.0
aF128.0
aF128.0
aF45.0
aF256.0
aF181.0
aF181.0
aF181.0
aF181.0
aF128.0
aF128.0
aF128.0
aF128.0
aF45.0
aF181.0
aF181.0
aF181.0
aF128.0
aF181.0
aF128.0
aF181.0
aF128.0
aF128.0
aF45.0
aF181.0
aF128.0
aF181.0
aF181.0
aF181.0
aF128.0
aF128.0
aF128.0
aF128.0
aF45.0
aF181.0
aF181.0
aF181.0
aF181.0
aF128.0
aF128.0
aF128.0
aF128.0
aF128.0
aF45.0
aF256.0
aF181.0
aF181.0
aF128.0
aF128.0
aF181.0
aF181.0
aF181.0
aF128.0
aF45.0
aF256.0
aF181.0
aF128.0
aF181.0
aF128.0
aF128.0
aF128.0
aF128.0
aF91.0
aF23.0
a.