(dp0
F0.0
F488.32558139534876
sF51200.0
F1789.5
sF2050.0
F496.33703703703696
sF4100.0
F707.5807692307695
sF6150.0
F893.2226720647777
sF8200.0
F1041.0
sF10250.0
F1180.223880597015
sF12300.0
F1215.5530726256986
sF53250.0
F1774.0
sF14350.0
F1289.4027777777787
sF16400.0
F1225.5402298850574
sF18450.0
F1246.0588235294117
sF20500.0
F1257.6666666666663
sF22550.0
F1341.0465116279074
sF24600.0
F1378.3513513513512
sF26650.0
F1413.3125
sF28700.0
F1468.1666666666667
sF30750.0
F1449.695652173913
sF32800.0
F1475.2631578947369
sF34850.0
F1537.875
sF36900.0
F1571.1875
sF38950.0
F1636.7857142857138
sF41000.0
F1704.4166666666667
sF43050.0
F1711.75
sF45100.0
F1733.0
sF47150.0
F1734.6666666666665
sF49200.0
F1747.0
sF50.0
F365.8235294117648
sF2100.0
F525.3211678832115
sF51550.0
F1769.0
sF4150.0
F688.5267175572521
sF6200.0
F895.3293172690765
sF8250.0
F1057.6538461538464
sF10300.0
F1176.5920398009955
sF12350.0
F1233.6500000000003
sF14400.0
F1272.9323308270675
sF53600.0
F1779.0
sF16450.0
F1223.3218390804598
sF18500.0
F1262.31884057971
sF20550.0
F1286.6153846153845
sF22600.0
F1302.4318181818182
sF24650.0
F1377.3243243243244
sF26700.0
F1400.5625
sF28750.0
F1474.0999999999997
sF30800.0
F1474.0434782608697
sF32850.0
F1481.578947368421
sF34900.0
F1501.0
sF36950.0
F1588.0
sF39000.0
F1636.0714285714287
sF41050.0
F1716.083333333333
sF43100.0
F1726.333333333333
sF45150.0
F1753.0
sF47200.0
F1724.6666666666665
sF49250.0
F1734.5
sF100.0
F354.4246575342464
sF2150.0
F507.90476190476187
sF4200.0
F718.3783783783782
sF51900.0
F1766.0
sF6250.0
F870.4798387096772
sF8300.0
F1043.3686440677966
sF10350.0
F1167.0490196078433
sF12400.0
F1235.2022471910113
sF14450.0
F1274.1461538461535
sF16500.0
F1241.8352941176474
sF53950.0
F1798.0
sF18550.0
F1262.4492753623188
sF20600.0
F1270.1886792452826
sF22650.0
F1321.8863636363637
sF24700.0
F1397.081081081081
sF26750.0
F1359.625
sF28800.0
F1478.3793103448277
sF30850.0
F1456.6818181818185
sF32900.0
F1448.2222222222217
sF34950.0
F1515.5625
sF37000.0
F1585.0
sF39050.0
F1638.6923076923074
sF41100.0
F1728.75
sF43150.0
F1722.6666666666663
sF45200.0
F1739.25
sF47250.0
F1762.9999999999998
sF49300.0
F1752.0
sF150.0
F323.5220338983052
sF2200.0
F508.85393258426984
sF4250.0
F694.2737642585549
sF6300.0
F890.0400000000003
sF52250.0
F1774.0
sF8350.0
F1086.9832635983266
sF10400.0
F1146.3719806763281
sF12450.0
F1221.3735632183905
sF14500.0
F1271.648854961832
sF16550.0
F1226.458823529412
sF18600.0
F1278.8358208955224
sF54300.0
F1798.0
sF20650.0
F1273.1698113207547
sF22700.0
F1299.9318181818185
sF24750.0
F1368.2162162162163
sF26800.0
F1405.34375
sF28850.0
F1453.6206896551728
sF30900.0
F1463.608695652174
sF32950.0
F1464.888888888889
sF35000.0
F1513.625
sF37050.0
F1586.1875
sF39100.0
F1643.7857142857142
sF41150.0
F1721.25
sF43200.0
F1726.6999999999998
sF45250.0
F1764.25
sF47300.0
F1759.6666666666665
sF49350.0
F1757.0
sF200.0
F273.58131487889267
sF2250.0
F531.2481481481483
sF4300.0
F727.8320610687024
sF6350.0
F911.987603305785
sF8400.0
F1053.8969957081545
sF52600.0
F1794.0
sF10450.0
F1171.1094527363186
sF12500.0
F1201.7528735632184
sF14550.0
F1279.6969696969697
sF16600.0
F1249.168539325843
sF18650.0
F1263.5217391304348
sF20700.0
F1282.3773584905664
sF22750.0
F1336.9772727272727
sF24800.0
F1354.945945945946
sF26850.0
F1423.40625
sF28900.0
F1441.1379310344826
sF30950.0
F1460.136363636364
sF33000.0
F1461.1111111111113
sF35050.0
F1519.25
sF37100.0
F1601.9333333333332
sF39150.0
F1640.2142857142856
sF41200.0
F1725.4166666666667
sF43250.0
F1726.6999999999998
sF45300.0
F1764.0
sF47350.0
F1737.9999999999998
sF49400.0
F1759.5
sF250.0
F273.508896797153
sF2300.0
F506.788679245283
sF4350.0
F745.3307692307694
sF6400.0
F925.1755102040817
sF8450.0
F1054.5170940170938
sF10500.0
F1201.6287128712872
sF52950.0
F1750.0
sF12550.0
F1197.5813953488378
sF14600.0
F1291.21875
sF16650.0
F1220.2906976744187
sF18700.0
F1250.7647058823527
sF20750.0
F1293.3962264150944
sF22800.0
F1359.1136363636363
sF24850.0
F1379.2432432432436
sF26900.0
F1391.4375
sF28950.0
F1441.8965517241375
sF31000.0
F1464.8181818181822
sF33050.0
F1489.4444444444446
sF35100.0
F1564.125
sF37150.0
F1624.25
sF39200.0
F1647.923076923077
sF41250.0
F1706.2499999999995
sF43300.0
F1734.333333333333
sF45350.0
F1774.25
sF47400.0
F1721.333333333333
sF49450.0
F1754.5
sF300.0
F268.1407942238266
sF51250.0
F1769.5
sF2350.0
F565.2029520295202
sF4400.0
F734.9655172413792
sF6450.0
F877.9837398373987
sF8500.0
F1034.4067796610175
sF10550.0
F1153.658415841584
sF12600.0
F1215.9028571428573
sF53300.0
F1758.0
sF14650.0
F1268.1023622047235
sF16700.0
F1232.8255813953492
sF18750.0
F1304.9701492537317
sF20800.0
F1293.2156862745094
sF22850.0
F1348.2093023255811
sF24900.0
F1415.702702702703
sF26950.0
F1402.625
sF29000.0
F1448.7931034482758
sF31050.0
F1430.8571428571427
sF33100.0
F1486.0000000000005
sF35150.0
F1527.25
sF37200.0
F1588.7333333333331
sF39250.0
F1652.357142857143
sF41300.0
F1721.083333333333
sF43350.0
F1718.6999999999998
sF45400.0
F1754.5
sF47450.0
F1742.9999999999998
sF49500.0
F1749.5
sF350.0
F313.07067137809173
sF2400.0
F491.2490706319701
sF51600.0
F1782.6666666666665
sF4450.0
F740.6121673003803
sF6500.0
F898.0283400809714
sF8550.0
F1080.5560344827588
sF10600.0
F1140.9900000000005
sF12650.0
F1227.9585798816565
sF14700.0
F1269.3770491803277
sF53650.0
F1784.0
sF16750.0
F1230.7411764705885
sF18800.0
F1261.3181818181818
sF20850.0
F1293.2692307692307
sF22900.0
F1360.2045454545457
sF24950.0
F1377.108108108108
sF27000.0
F1384.5161290322578
sF29050.0
F1459.4827586206898
sF31100.0
F1444.3636363636363
sF33150.0
F1544.2222222222222
sF35200.0
F1550.5
sF37250.0
F1620.625
sF39300.0
F1653.4615384615383
sF41350.0
F1721.0833333333333
sF43400.0
F1725.5
sF45450.0
F1750.75
sF47500.0
F1709.6666666666665
sF49550.0
F1767.0
sF400.0
F307.58483754512633
sF2450.0
F527.7803030303032
sF4500.0
F712.3769230769228
sF51950.0
F1779.3333333333333
sF6550.0
F919.879518072289
sF8600.0
F1057.333333333334
sF10650.0
F1165.0151515151515
sF12700.0
F1209.6820809248554
sF14750.0
F1279.7022900763366
sF16800.0
F1236.493975903614
sF54000.0
F1788.0
sF18850.0
F1238.484848484848
sF20900.0
F1293.076923076923
sF22950.0
F1348.7045454545455
sF25000.0
F1412.2432432432431
sF27050.0
F1404.4516129032254
sF29100.0
F1467.344827586207
sF31150.0
F1453.8095238095239
sF33200.0
F1493.222222222222
sF35250.0
F1525.0
sF37300.0
F1586.1875
sF39350.0
F1641.0000000000002
sF41400.0
F1686.25
sF43450.0
F1716.75
sF45500.0
F1768.25
sF47550.0
F1737.9999999999995
sF49600.0
F1772.0
sF450.0
F323.23131672597873
sF2500.0
F551.7245283018866
sF4550.0
F742.0916030534352
sF6600.0
F913.7591836734698
sF52300.0
F1759.0
sF8650.0
F1081.6101694915258
sF10700.0
F1178.4795918367345
sF12750.0
F1227.818713450293
sF14800.0
F1290.0330578512394
sF16850.0
F1261.1785714285709
sF18900.0
F1253.059701492537
sF54350.0
F1798.0
sF20950.0
F1254.530612244898
sF23000.0
F1349.840909090909
sF25050.0
F1423.0833333333333
sF27100.0
F1394.6774193548385
sF29150.0
F1502.8620689655172
sF31200.0
F1434.6666666666667
sF33250.0
F1499.222222222222
sF35300.0
F1531.0
sF37350.0
F1605.5
sF39400.0
F1650.2307692307693
sF41450.0
F1726.25
sF43500.0
F1710.7777777777778
sF45550.0
F1730.75
sF47600.0
F1757.9999999999998
sF49650.0
F1772.0
sF500.0
F329.21505376344084
sF2550.0
F563.1385767790264
sF4600.0
F715.4092664092666
sF6650.0
F902.8724279835385
sF8700.0
F1060.4463519313304
sF52650.0
F1745.0
sF10750.0
F1172.8737373737376
sF12800.0
F1213.9999999999995
sF14850.0
F1285.5000000000005
sF16900.0
F1256.6704545454543
sF18950.0
F1254.8955223880598
sF21000.0
F1285.8775510204084
sF23050.0
F1365.0454545454543
sF25100.0
F1392.2162162162163
sF27150.0
F1423.8064516129032
sF29200.0
F1500.1034482758623
sF31250.0
F1436.0952380952378
sF33300.0
F1489.3333333333333
sF35350.0
F1546.0625
sF37400.0
F1610.5625
sF39450.0
F1670.9999999999995
sF41500.0
F1711.3636363636363
sF43550.0
F1684.111111111111
sF45600.0
F1749.7142857142858
sF47650.0
F1754.6666666666665
sF49700.0
F1732.0
sF550.0
F353.538745387454
sF2600.0
F535.3533834586465
sF4650.0
F744.3307692307693
sF6700.0
F928.9837398373979
sF8750.0
F1076.5106382978722
sF10800.0
F1191.8112244897952
sF53000.0
F1789.0
sF12850.0
F1220.0526315789473
sF14900.0
F1290.1612903225807
sF16950.0
F1228.8915662650606
sF19000.0
F1256.8307692307694
sF21050.0
F1273.673469387755
sF23100.0
F1345.904761904762
sF25150.0
F1383.1666666666667
sF27200.0
F1387.0967741935483
sF29250.0
F1504.9310344827586
sF31300.0
F1467.5238095238094
sF33350.0
F1504.7777777777778
sF35400.0
F1506.125
sF37450.0
F1598.625
sF39500.0
F1638.076923076923
sF41550.0
F1704.4166666666665
sF43600.0
F1686.75
sF45650.0
F1743.25
sF47700.0
F1751.3333333333333
sF49750.0
F1752.0
sF600.0
F337.8243727598567
sF51300.0
F1755.9999999999998
sF2650.0
F548.6529850746268
sF4700.0
F757.3563218390805
sF6750.0
F910.657142857143
sF8800.0
F1072.0786026200876
sF10850.0
F1180.4350000000004
sF12900.0
F1218.6686746987957
sF53350.0
F1794.0
sF14950.0
F1286.1774193548388
sF17000.0
F1262.1176470588234
sF19050.0
F1257.4848484848487
sF21100.0
F1302.0816326530612
sF23150.0
F1316.790697674418
sF25200.0
F1398.1891891891892
sF27250.0
F1425.483870967742
sF29300.0
F1497.6896551724137
sF31350.0
F1432.0
sF33400.0
F1500.4444444444446
sF35450.0
F1511.75
sF37500.0
F1629.5625
sF39550.0
F1661.6153846153843
sF41600.0
F1731.0833333333333
sF43650.0
F1720.5
sF45700.0
F1738.25
sF47750.0
F1754.6666666666665
sF49800.0
F1769.5
sF650.0
F338.08633093525185
sF2700.0
F556.9511278195488
sF51650.0
F1772.6666666666665
sF4750.0
F755.5852713178296
sF6800.0
F956.6803278688525
sF8850.0
F1084.4698275862067
sF10900.0
F1180.943298969072
sF12950.0
F1246.871165644172
sF15000.0
F1300.140495867769
sF53700.0
F1789.0
sF17050.0
F1256.0123456790122
sF19100.0
F1273.0149253731347
sF21150.0
F1270.4489795918366
sF23200.0
F1331.8139534883717
sF25250.0
F1399.6756756756763
sF27300.0
F1415.5483870967741
sF29350.0
F1447.6896551724137
sF31400.0
F1438.4761904761904
sF33450.0
F1511.4444444444446
sF35500.0
F1534.25
sF37550.0
F1612.6875
sF39600.0
F1650.1666666666665
sF41650.0
F1714.818181818182
sF43700.0
F1749.25
sF45750.0
F1743.25
sF47800.0
F1756.333333333333
sF49850.0
F1742.0
sF700.0
F318.50362318840575
sF2750.0
F530.5259259259259
sF4800.0
F734.5343511450384
sF52000.0
F1735.0
sF6850.0
F940.877551020408
sF8900.0
F1087.5565217391304
sF10950.0
F1185.0408163265301
sF13000.0
F1202.0303030303025
sF15050.0
F1273.8017241379312
sF17100.0
F1248.1463414634147
sF54050.0
F1794.0
sF19150.0
F1275.84375
sF21200.0
F1246.936170212766
sF23250.0
F1356.0930232558142
sF25300.0
F1399.9999999999998
sF27350.0
F1395.1612903225805
sF29400.0
F1505.6896551724137
sF31450.0
F1410.0
sF33500.0
F1519.7777777777776
sF35550.0
F1524.25
sF37600.0
F1600.1875
sF39650.0
F1667.1538461538464
sF41700.0
F1694.090909090909
sF43750.0
F1741.75
sF45800.0
F1778.25
sF47850.0
F1753.0
sF49900.0
F1767.0
sF750.0
F321.8586956521739
sF2800.0
F603.8821292775665
sF4850.0
F741.7747035573121
sF6900.0
F953.2448979591841
sF52350.0
F1764.0
sF8950.0
F1096.9826086956523
sF11000.0
F1196.9183673469386
sF13050.0
F1198.852760736196
sF15100.0
F1238.3545454545454
sF17150.0
F1249.283950617284
sF19200.0
F1289.5151515151517
sF54400.0
F1798.0
sF21250.0
F1278.808510638298
sF23300.0
F1391.4883720930231
sF25350.0
F1365.1891891891887
sF27400.0
F1416.258064516129
sF29450.0
F1470.793103448276
sF31500.0
F1460.7619047619048
sF33550.0
F1496.4999999999998
sF35600.0
F1528.5
sF37650.0
F1597.0625
sF39700.0
F1669.4615384615388
sF41750.0
F1735.4166666666663
sF43800.0
F1733.0
sF45850.0
F1755.4285714285713
sF47900.0
F1757.9999999999998
sF49950.0
F1747.0
sF800.0
F331.6218181818181
sF2850.0
F604.4961832061068
sF4900.0
F757.2153846153847
sF6950.0
F951.1244979919679
sF9000.0
F1093.8245614035088
sF52700.0
F1769.0
sF11050.0
F1195.6381909547738
sF13100.0
F1202.0886075949363
sF15150.0
F1259.7387387387384
sF17200.0
F1280.8571428571427
sF19250.0
F1271.4999999999998
sF21300.0
F1282.391304347826
sF23350.0
F1360.837209302325
sF25400.0
F1383.885714285714
sF27450.0
F1407.6774193548388
sF29500.0
F1474.2413793103449
sF31550.0
F1479.9047619047615
sF33600.0
F1469.9999999999998
sF35650.0
F1519.3125
sF37700.0
F1615.8125
sF39750.0
F1661.25
sF41800.0
F1724.0909090909092
sF43850.0
F1727.9999999999998
sF45900.0
F1757.0
sF47950.0
F1754.6666666666665
sF50000.0
F1772.0
sF850.0
F343.9306569343066
sF2900.0
F615.5671641791047
sF4950.0
F785.3946360153257
sF7000.0
F940.954918032787
sF9050.0
F1073.986784140969
sF11100.0
F1197.748743718593
sF53050.0
F1769.0
sF13150.0
F1232.9062499999998
sF15200.0
F1237.3523809523808
sF17250.0
F1273.2592592592596
sF19300.0
F1296.7164179104477
sF21350.0
F1279.1304347826087
sF23400.0
F1372.232558139535
sF25450.0
F1408.6857142857143
sF27500.0
F1398.0645161290324
sF29550.0
F1470.448275862069
sF31600.0
F1441.8095238095239
sF33650.0
F1511.4444444444443
sF35700.0
F1506.75
sF37750.0
F1618.9375
sF39800.0
F1654.2307692307693
sF41850.0
F1720.4999999999998
sF43900.0
F1708.0
sF45950.0
F1754.0
sF48000.0
F1724.6666666666665
sF50050.0
F1772.0
sF900.0
F353.6557971014492
sF51350.0
F1776.0
sF2950.0
F561.7806691449816
sF5000.0
F765.633204633205
sF7050.0
F966.5499999999998
sF9100.0
F1115.2489082969432
sF11150.0
F1174.507772020725
sF13200.0
F1218.0193548387094
sF53400.0
F1779.0
sF15250.0
F1262.9633027522934
sF17300.0
F1260.4074074074074
sF19350.0
F1303.6212121212116
sF21400.0
F1293.0000000000002
sF23450.0
F1367.4418604651164
sF25500.0
F1401.3142857142857
sF27550.0
F1412.9032258064512
sF29600.0
F1478.7241379310346
sF31650.0
F1452.761904761905
sF33700.0
F1520.8888888888885
sF35750.0
F1534.875
sF37800.0
F1618.3125
sF39850.0
F1657.6923076923078
sF41900.0
F1752.0909090909092
sF43950.0
F1703.0
sF46000.0
F1762.0
sF48050.0
F1745.6
sF50100.0
F1767.0
sF950.0
F373.2271062271062
sF3000.0
F589.8250950570343
sF51700.0
F1764.0
sF5050.0
F755.1434262948208
sF7100.0
F955.8225806451615
sF9150.0
F1101.0950226244347
sF11200.0
F1192.2284263959396
sF13250.0
F1229.308176100629
sF15300.0
F1253.212962962963
sF53750.0
F1779.0
sF17350.0
F1262.5555555555552
sF19400.0
F1305.21875
sF21450.0
F1280.2045454545455
sF23500.0
F1360.1860465116279
sF25550.0
F1382.0571428571427
sF27600.0
F1437.2258064516127
sF29650.0
F1505.2758620689658
sF31700.0
F1470.2857142857142
sF33750.0
F1490.3333333333333
sF35800.0
F1556.125
sF37850.0
F1618.9375
sF39900.0
F1673.3076923076926
sF41950.0
F1681.6666666666665
sF44000.0
F1680.75
sF46050.0
F1717.9999999999998
sF48100.0
F1744.6666666666663
sF50150.0
F1774.5
sF1000.0
F403.2830882352943
sF3050.0
F605.7414448669207
sF5100.0
F787.1653846153848
sF52050.0
F1759.0
sF7150.0
F953.9836065573774
sF9200.0
F1128.718061674009
sF11250.0
F1182.8256410256404
sF13300.0
F1188.8896103896102
sF15350.0
F1254.943925233645
sF17400.0
F1250.0897435897434
sF54100.0
F1789.0
sF19450.0
F1286.1111111111113
sF21500.0
F1250.666666666667
sF23550.0
F1369.0232558139535
sF25600.0
F1385.2285714285713
sF27650.0
F1457.6129032258066
sF29700.0
F1514.9310344827588
sF31750.0
F1420.9
sF33800.0
F1512.0
sF35850.0
F1524.25
sF37900.0
F1623.5333333333328
sF39950.0
F1669.4615384615388
sF42000.0
F1687.909090909091
sF44050.0
F1705.5
sF46100.0
F1748.0
sF48150.0
F1739.6666666666665
sF50200.0
F1777.0
sF1050.0
F335.0510948905109
sF3100.0
F612.4851851851854
sF5150.0
F762.2666666666668
sF7200.0
F939.142857142857
sF52400.0
F1764.0
sF9250.0
F1106.968609865471
sF11300.0
F1232.6180904522603
sF13350.0
F1223.9480519480526
sF15400.0
F1233.1634615384617
sF17450.0
F1232.354430379747
sF19500.0
F1271.9523809523807
sF21550.0
F1249.3777777777775
sF23600.0
F1384.8809523809527
sF25650.0
F1396.2941176470586
sF27700.0
F1404.1290322580644
sF29750.0
F1497.607142857143
sF31800.0
F1490.3809523809523
sF33850.0
F1503.2941176470588
sF35900.0
F1536.9375
sF37950.0
F1624.8666666666663
sF40000.0
F1649.583333333333
sF42050.0
F1696.5
sF44100.0
F1728.0
sF46150.0
F1766.333333333333
sF48200.0
F1746.333333333333
sF50250.0
F1772.0
sF1100.0
F362.60147601476035
sF3150.0
F620.4440298507467
sF5200.0
F781.0888030888035
sF7250.0
F973.8242677824265
sF9300.0
F1101.0355555555552
sF52750.0
F1759.0
sF11350.0
F1208.2121212121212
sF13400.0
F1226.9808917197452
sF15450.0
F1258.4074074074076
sF17500.0
F1241.4935064935064
sF19550.0
F1266.6031746031745
sF21600.0
F1287.7111111111112
sF23650.0
F1393.7142857142856
sF25700.0
F1370.4705882352941
sF27750.0
F1429.9999999999998
sF29800.0
F1480.925925925926
sF31850.0
F1464.6666666666665
sF33900.0
F1524.3333333333335
sF35950.0
F1525.5
sF38000.0
F1613.2142857142858
sF40050.0
F1642.6923076923078
sF42100.0
F1714.3
sF44150.0
F1700.857142857143
sF46200.0
F1732.9999999999998
sF48250.0
F1764.6666666666665
sF50300.0
F1757.0
sF1150.0
F360.0335820895523
sF3200.0
F604.6098484848482
sF5250.0
F802.9651162790699
sF7300.0
F958.7933884297521
sF9350.0
F1121.5495495495497
sF11400.0
F1193.0876288659786
sF53100.0
F1784.0
sF13450.0
F1213.9612903225802
sF15500.0
F1261.8942307692312
sF17550.0
F1243.1052631578943
sF19600.0
F1301.578125
sF21650.0
F1292.7272727272727
sF23700.0
F1362.880952380952
sF25750.0
F1377.6176470588234
sF27800.0
F1418.967741935484
sF29850.0
F1476.4814814814813
sF31900.0
F1484.3000000000002
sF33950.0
F1523.222222222222
sF36000.0
F1539.9375
sF38050.0
F1633.9285714285713
sF40100.0
F1684.076923076923
sF42150.0
F1737.5
sF44200.0
F1756.75
sF46250.0
F1742.9999999999998
sF48300.0
F1751.333333333333
sF50350.0
F1767.0
sF1200.0
F402.4963235294118
sF51400.0
F1789.333333333333
sF3250.0
F603.4641509433964
sF5300.0
F800.3011583011584
sF7350.0
F974.369294605809
sF9400.0
F1146.3909090909094
sF11450.0
F1180.1263157894737
sF13500.0
F1195.9346405228757
sF53450.0
F1770.0
sF15550.0
F1250.5142857142857
sF17600.0
F1251.3815789473686
sF19650.0
F1298.936507936508
sF21700.0
F1285.3333333333335
sF23750.0
F1350.075
sF25800.0
F1369.0882352941176
sF27850.0
F1413.4838709677415
sF29900.0
F1476.9642857142858
sF31950.0
F1479.333333333333
sF34000.0
F1498.0000000000002
sF36050.0
F1529.25
sF38100.0
F1608.8461538461538
sF40150.0
F1670.0000000000002
sF42200.0
F1721.4999999999998
sF44250.0
F1750.5
sF46300.0
F1711.333333333333
sF48350.0
F1767.9999999999995
sF50400.0
F1777.0
sF1250.0
F407.0735294117646
sF3300.0
F596.0792452830188
sF51750.0
F1786.0
sF5350.0
F802.3486590038311
sF7400.0
F974.4256198347109
sF9450.0
F1136.5525114155253
sF11500.0
F1190.658031088082
sF13550.0
F1217.2727272727275
sF15600.0
F1237.1047619047615
sF53800.0
F1794.0
sF17650.0
F1245.0405405405406
sF19700.0
F1307.728813559322
sF21750.0
F1278.4
sF23800.0
F1356.9024390243899
sF25850.0
F1428.0882352941176
sF27900.0
F1452.129032258064
sF29950.0
F1499.3928571428569
sF32000.0
F1497.0476190476195
sF34050.0
F1475.6470588235293
sF36100.0
F1563.625
sF38150.0
F1586.7857142857142
sF40200.0
F1696.3846153846155
sF42250.0
F1720.5555555555557
sF44300.0
F1729.25
sF46350.0
F1711.333333333333
sF48400.0
F1766.3333333333333
sF50450.0
F1772.0
sF1300.0
F420.9490909090909
sF3350.0
F625.0378787878789
sF5400.0
F826.6470588235288
sF52100.0
F1754.0
sF7450.0
F979.759336099585
sF9500.0
F1126.8401826484019
sF11550.0
F1211.5645161290327
sF13600.0
F1221.151315789474
sF15650.0
F1237.6666666666665
sF17700.0
F1223.9054054054054
sF54150.0
F1798.0
sF19750.0
F1274.6610169491528
sF21800.0
F1281.386363636364
sF23850.0
F1361.3750000000002
sF25900.0
F1384.2352941176473
sF27950.0
F1405.9999999999995
sF30000.0
F1476.653846153846
sF32050.0
F1481.0
sF34100.0
F1499.1764705882356
sF36150.0
F1544.75
sF38200.0
F1608.9285714285713
sF40250.0
F1658.583333333333
sF42300.0
F1724.6999999999998
sF44350.0
F1708.0
sF46400.0
F1759.6666666666665
sF48450.0
F1749.6666666666665
sF50500.0
F1774.5
sF1350.0
F408.88764044943827
sF3400.0
F633.8598484848486
sF5450.0
F814.3384615384614
sF7500.0
F984.2803347280336
sF52450.0
F1774.0
sF9550.0
F1117.0230414746547
sF11600.0
F1191.089473684211
sF13650.0
F1224.3246753246754
sF15700.0
F1270.4000000000008
sF17750.0
F1232.3239436619717
sF19800.0
F1292.7833333333335
sF21850.0
F1313.7954545454545
sF23900.0
F1365.0731707317075
sF25950.0
F1377.6176470588234
sF28000.0
F1415.806451612903
sF30050.0
F1437.1249999999998
sF32100.0
F1426.3157894736842
sF34150.0
F1527.4117647058827
sF36200.0
F1536.875
sF38250.0
F1608.0714285714287
sF40300.0
F1691.083333333333
sF42350.0
F1718.0
sF44400.0
F1709.4285714285713
sF46450.0
F1749.6666666666665
sF48500.0
F1768.0
sF50550.0
F1764.5
sF1400.0
F447.87265917602986
sF3450.0
F652.1573033707864
sF5500.0
F811.8648648648648
sF7550.0
F993.083333333334
sF9600.0
F1127.5091743119258
sF52800.0
F1779.0
sF11650.0
F1169.9734042553189
sF13700.0
F1218.8986486486483
sF15750.0
F1234.56
sF17800.0
F1201.2173913043478
sF19850.0
F1276.915254237288
sF21900.0
F1325.6590909090908
sF23950.0
F1384.365853658537
sF26000.0
F1381.4411764705885
sF28050.0
F1440.1612903225807
sF30100.0
F1435.0416666666667
sF32150.0
F1458.9473684210525
sF34200.0
F1513.4117647058824
sF36250.0
F1559.5333333333333
sF38300.0
F1594.4999999999995
sF40350.0
F1682.5384615384617
sF42400.0
F1718.5
sF44450.0
F1738.25
sF46500.0
F1776.333333333333
sF48550.0
F1753.0
sF50600.0
F1784.5
sF1450.0
F418.61397058823536
sF3500.0
F648.0264150943401
sF5550.0
F814.1411290322582
sF7600.0
F994.913580246913
sF9650.0
F1144.9581395348841
sF11700.0
F1200.4699453551914
sF53150.0
F1760.0
sF13750.0
F1235.2432432432436
sF15800.0
F1225.9795918367342
sF17850.0
F1238.4
sF19900.0
F1275.1607142857144
sF21950.0
F1304.860465116279
sF24000.0
F1355.8780487804881
sF26050.0
F1421.7352941176475
sF28100.0
F1455.6451612903224
sF30150.0
F1443.7916666666663
sF32200.0
F1450.5263157894738
sF34250.0
F1509.2941176470588
sF36300.0
F1558.0625
sF38350.0
F1606.0714285714284
sF40400.0
F1674.5833333333333
sF42450.0
F1707.6999999999998
sF44500.0
F1738.0
sF46550.0
F1733.0
sF48600.0
F1747.6
sF50650.0
F1774.5
sF1500.0
F427.62081784386623
sF51450.0
F1766.0
sF3550.0
F655.655303030303
sF5600.0
F817.2941176470594
sF7650.0
F996.1069958847734
sF9700.0
F1122.7592592592594
sF11750.0
F1185.2000000000007
sF13800.0
F1250.2333333333333
sF53500.0
F1779.0
sF15850.0
F1242.7326732673268
sF17900.0
F1229.7246376811597
sF19950.0
F1276.3620689655174
sF22000.0
F1294.25
sF24050.0
F1358.048780487805
sF26100.0
F1406.3823529411768
sF28150.0
F1431.0645161290324
sF30200.0
F1442.2083333333335
sF32250.0
F1447.3684210526317
sF34300.0
F1499.75
sF36350.0
F1564.25
sF38400.0
F1618.2142857142856
sF40450.0
F1692.5384615384614
sF42500.0
F1706.6999999999998
sF44550.0
F1736.75
sF46600.0
F1734.6666666666665
sF48650.0
F1754.6666666666665
sF50700.0
F1754.5
sF1550.0
F417.70072992700716
sF3600.0
F641.3219696969697
sF51800.0
F1759.3333333333333
sF5650.0
F799.9299610894942
sF7700.0
F1008.9369747899156
sF9750.0
F1143.230046948357
sF11800.0
F1197.764705882353
sF13850.0
F1241.3197278911564
sF15900.0
F1223.6041666666665
sF53850.0
F1784.0
sF17950.0
F1228.4142857142856
sF20000.0
F1286.913793103448
sF22050.0
F1302.3863636363637
sF24100.0
F1381.7560975609758
sF26150.0
F1415.1176470588234
sF28200.0
F1480.4838709677415
sF30250.0
F1464.2083333333335
sF32300.0
F1449.3684210526314
sF34350.0
F1486.625
sF36400.0
F1563.9375
sF38450.0
F1637.4999999999998
sF40500.0
F1681.0000000000005
sF42550.0
F1690.6999999999998
sF44600.0
F1725.5
sF46650.0
F1753.0
sF48700.0
F1747.9999999999998
sF50750.0
F1787.0
sF1600.0
F468.18587360594773
sF3650.0
F654.3595505617976
sF5700.0
F797.5078740157479
sF52150.0
F1764.0
sF7750.0
F1014.954356846473
sF9800.0
F1166.1981132075473
sF11850.0
F1210.342391304348
sF13900.0
F1235.802721088435
sF15950.0
F1239.45744680851
sF18000.0
F1233.486111111111
sF20050.0
F1250.2363636363636
sF22100.0
F1263.4772727272725
sF24150.0
F1344.6829268292681
sF26200.0
F1422.0909090909092
sF28250.0
F1464.6774193548385
sF30300.0
F1458.7916666666665
sF32350.0
F1458.421052631579
sF34400.0
F1518.5
sF36450.0
F1558.0625
sF38500.0
F1630.357142857143
sF40550.0
F1685.769230769231
sF42600.0
F1714.888888888889
sF44650.0
F1719.25
sF46700.0
F1742.9999999999998
sF48750.0
F1768.0
sF50800.0
F1779.5
sF1650.0
F421.35315985130103
sF3700.0
F660.4868913857678
sF5750.0
F875.2834645669288
sF7800.0
F992.9531914893618
sF52500.0
F1739.0
sF9850.0
F1147.2705314009663
sF11900.0
F1188.173913043478
sF13950.0
F1236.0559440559434
sF16000.0
F1231.9587628865982
sF18050.0
F1224.710144927536
sF20100.0
F1273.1578947368419
sF22150.0
F1297.068181818182
sF24200.0
F1385.4594594594594
sF26250.0
F1405.8529411764707
sF28300.0
F1411.4516129032256
sF30350.0
F1475.0416666666667
sF32400.0
F1452.2105263157891
sF34450.0
F1546.625
sF36500.0
F1563.625
sF38550.0
F1601.2857142857142
sF40600.0
F1689.6153846153845
sF42650.0
F1731.5
sF44700.0
F1720.857142857143
sF46750.0
F1746.3333333333333
sF48800.0
F1764.6666666666665
sF50850.0
F1752.6666666666665
sF1700.0
F444.9272727272726
sF3750.0
F654.2895752895753
sF5800.0
F849.734375
sF7850.0
F1020.9917355371896
sF9900.0
F1158.8619047619054
sF52850.0
F1774.0
sF11950.0
F1203.8804347826085
sF14000.0
F1230.4315068493158
sF16050.0
F1226.1752577319583
sF18100.0
F1255.1549295774646
sF20150.0
F1236.4181818181817
sF22200.0
F1305.4772727272725
sF24250.0
F1357.657894736842
sF26300.0
F1445.7941176470588
sF28350.0
F1437.1935483870968
sF30400.0
F1445.0416666666665
sF32450.0
F1468.4210526315792
sF34500.0
F1538.625
sF36550.0
F1596.0666666666662
sF38600.0
F1630.2142857142858
sF40650.0
F1693.4615384615386
sF42700.0
F1726.7
sF44750.0
F1755.5
sF46800.0
F1723.0
sF48850.0
F1759.5
sF50900.0
F1782.0
sF1750.0
F462.98884758364295
sF3800.0
F679.3038461538458
sF5850.0
F847.891472868217
sF7900.0
F1018.2874999999998
sF9950.0
F1152.4449760765542
sF12000.0
F1203.1311475409843
sF53200.0
F1774.0
sF14050.0
F1240.0205479452054
sF16100.0
F1232.8020833333335
sF18150.0
F1227.8714285714284
sF20200.0
F1267.0178571428567
sF22250.0
F1321.068181818182
sF24300.0
F1364.4473684210527
sF26350.0
F1406.9411764705887
sF28400.0
F1434.2903225806451
sF30450.0
F1489.6249999999998
sF32500.0
F1482.5263157894735
sF34550.0
F1544.25
sF36600.0
F1565.5625
sF38650.0
F1660.357142857143
sF40700.0
F1685.6153846153848
sF42750.0
F1737.111111111111
sF44800.0
F1756.75
sF46850.0
F1719.6666666666663
sF48900.0
F1756.333333333333
sF50950.0
F1777.0
sF1800.0
F496.9074074074074
sF51500.0
F1765.9999999999998
sF3850.0
F700.9962264150944
sF5900.0
F881.4703557312255
sF7950.0
F1010.9620253164561
sF10000.0
F1161.4688995215315
sF12050.0
F1207.668508287292
sF14100.0
F1271.9420289855072
sF53550.0
F1784.0
sF16150.0
F1252.1847826086962
sF18200.0
F1241.5142857142853
sF20250.0
F1278.267857142857
sF22300.0
F1287.4772727272725
sF24350.0
F1355.0263157894738
sF26400.0
F1366.5454545454543
sF28450.0
F1475.0645161290322
sF30500.0
F1464.7083333333333
sF32550.0
F1480.0
sF34600.0
F1526.625
sF36650.0
F1609.25
sF38700.0
F1595.4999999999998
sF40750.0
F1702.5384615384617
sF42800.0
F1728.5555555555557
sF44850.0
F1759.25
sF46900.0
F1736.3333333333333
sF48950.0
F1754.5
sF51000.0
F1777.0
sF1850.0
F453.14015151515156
sF3900.0
F700.1825095057034
sF51850.0
F1724.0
sF5950.0
F870.9722222222218
sF8000.0
F1015.0995670995669
sF10050.0
F1166.9362745098035
sF12100.0
F1202.7795698924726
sF14150.0
F1267.8661971830984
sF16200.0
F1232.925531914894
sF53900.0
F1788.0
sF18250.0
F1241.5428571428572
sF20300.0
F1284.3396226415093
sF22350.0
F1286.2045454545457
sF24400.0
F1365.8421052631581
sF26450.0
F1389.5757575757573
sF28500.0
F1450.741935483871
sF30550.0
F1453.6086956521738
sF32600.0
F1502.2105263157894
sF34650.0
F1531.0
sF36700.0
F1581.8125
sF38750.0
F1613.9285714285713
sF40800.0
F1716.3846153846155
sF42850.0
F1692.6666666666665
sF44900.0
F1759.25
sF46950.0
F1726.3333333333333
sF49000.0
F1764.5
sF51050.0
F1759.3333333333333
sF1900.0
F484.76752767527677
sF3950.0
F672.5714285714284
sF6000.0
F865.5905511811025
sF52200.0
F1779.0
sF8050.0
F1038.7656903765687
sF10100.0
F1145.3961352657004
sF12150.0
F1194.2472527472528
sF14200.0
F1259.8428571428567
sF16250.0
F1219.2727272727273
sF18300.0
F1269.4084507042248
sF54250.0
F1798.0
sF20350.0
F1262.6296296296293
sF22400.0
F1313.6590909090908
sF24450.0
F1409.1351351351352
sF26500.0
F1385.1818181818185
sF28550.0
F1449.193548387097
sF30600.0
F1472.304347826087
sF32650.0
F1493.1578947368419
sF34700.0
F1528.5
sF36750.0
F1569.3125
sF38800.0
F1613.0714285714284
sF40850.0
F1709.6153846153848
sF42900.0
F1693.5555555555554
sF44950.0
F1709.25
sF47000.0
F1756.333333333333
sF49050.0
F1769.5
sF51100.0
F1789.3333333333333
sF1950.0
F490.9037037037035
sF4000.0
F716.0615384615385
sF6050.0
F862.28515625
sF8100.0
F1041.852320675105
sF52550.0
F1764.0
sF10150.0
F1143.0809523809528
sF12200.0
F1215.7747252747258
sF14250.0
F1274.4370370370373
sF16300.0
F1218.0340909090912
sF18350.0
F1254.9428571428568
sF20400.0
F1260.4615384615383
sF22450.0
F1333.159090909091
sF24500.0
F1386.0
sF26550.0
F1408.71875
sF28600.0
F1429.7666666666669
sF30650.0
F1461.8695652173915
sF32700.0
F1461.0526315789473
sF34750.0
F1515.5
sF36800.0
F1586.25
sF38850.0
F1620.2142857142858
sF40900.0
F1685.4166666666667
sF42950.0
F1710.6999999999998
sF45000.0
F1739.4285714285713
sF47050.0
F1741.333333333333
sF49100.0
F1754.5
sF51150.0
F1759.5
sF2000.0
F500.7970479704796
sF4050.0
F710.0494296577947
sF6100.0
F886.5551181102359
sF8150.0
F1052.0041841004183
sF10200.0
F1175.747619047619
sF52900.0
F1779.0
sF12250.0
F1215.6312849162018
sF14300.0
F1302.6642335766426
sF16350.0
F1213.093023255814
sF18400.0
F1273.1641791044776
sF20450.0
F1275.9230769230767
sF22500.0
F1333.3863636363633
sF24550.0
F1367.8648648648646
sF26600.0
F1399.9393939393942
sF28650.0
F1475.4137931034486
sF30700.0
F1459.260869565217
sF32750.0
F1459.3684210526314
sF34800.0
F1536.625
sF36850.0
F1580.1875
sF38900.0
F1645.2142857142858
sF40950.0
F1678.6363636363637
sF43000.0
F1695.6999999999998
sF45050.0
F1751.75
sF47100.0
F1756.3333333333333
sF49150.0
F1742.0
s.