(lp0
F52.65644171779142
aF33.970329160871565
aF34.448002439768224
aF49.266018449264486
aF63.87752442996734
aF70.1736409155936
aF82.20469541199938
aF89.30487483530966
aF83.71476163124639
aF81.72640541649572
aF87.13954143957903
aF87.9815443544878
aF91.83306347150264
aF95.07320800855872
aF99.53713439466863
aF111.67443900299688
aF127.87261982928425
aF148.0569218419325
aF172.6968147282291
aF203.73557164801383
aF241.38236590742113
aF287.8412757415806
aF360.1118249047585
aF448.96138733565107
aF556.6318091146239
aF704.0479872459135
aF876.9347090956386
aF1028.2040437383944
aF1097.132368785595
aF1123.0369136830427
aF1231.1890848952603
aF1382.1989417989416
aF1669.1255060728752
aI-100
aI-100
a.