(lp0
F1.3103695641418884
aF21.841372212073512
aF125.47923183642894
aF241.83709534522595
aF291.23583083106473
aF279.8091636793426
aF266.9464445502641
aF227.2208359343338
aF181.81015785900053
aF166.81503606693207
aF169.4621755590674
aF170.38241940085607
aF167.386583266184
aF170.3706676908909
aF177.4571185246095
aF187.66799980017714
aF203.30811922072436
aF221.3317911414769
aF254.5026853036889
aF307.65615597688486
aF371.2084771762517
aF468.65031698676154
aF581.1836921377347
aF698.806867808808
aF746.689534355193
aF401.60951766413814
aF432.7901653394284
aF513.6976713416249
aF630.6313661923924
aF774.1520229206465
aF926.4893585094419
aF1229.714639933879
aF1728.6791155650067
aI-100
aI-100
a.