(lp0
F0.0
aF1.0
aF1.4180835691825242
aF2.010961009185447
aF2.85171076539259
aF4.043964180464152
aF5.734679158678882
aF8.132254289455986
aF11.532216188291637
aF16.35364629287709
aF23.1908371041517
aF32.88654505298596
aF46.63586918682018
aF66.13355982837527
aF93.78291456416841
aF132.9920102134957
aF188.59378451631267
aF267.44174707253256
aF379.2547472370269
aF394.9172384721677
aF416.22743879293944
aF443.4594312865146
aF477.90721649484493
aF510.45243921486957
aF558.9746442144979
aF626.8077201665956
aF704.0115020527257
aF831.5661377694108
aF960.6637615968517
aF1058.9540128082858
aF1072.3271013597048
aF1222.0625698324018
aF1358.0941255006671
aF1681.1362586605076
a.