(lp0
F0.0
aF1.0
aF1.531928764664839
aF2.346805740007538
aF3.595139218198101
aF5.507497181332332
aF8.437093353393516
aF12.925025998226054
aF19.800219110723354
aF30.332525202383582
aF46.467267862452545
aF71.1845442538771
aF109.04965094207144
aF167.0562970548194
aF169.7425846927448
aF176.5748449851252
aF185.91945972100942
aF201.6107855841918
aF222.72983395537292
aF259.6432619404714
aF320.81547471130574
aF397.8908747108155
aF517.3485611465454
aF672.7827687443556
aF861.1088069813973
aF1037.4417983295825
a.