(lp0
F0.0
aF1.0
aF1.2448983530892845
aF1.5497719095244127
aF1.9293084978309782
aF2.4017929715509463
aF2.9899881147451914
aF3.7222312798028234
aF4.6337995900439575
aF5.768609478191524
aF7.181332439015865
aF8.940028926317504
aF11.129427286943232
aF13.855005700342574
aF17.248073778399117
aF21.472098640691534
aF26.730580235167555
aF33.276855311881086
aF41.42630237375117
aF51.57153559966155
aF64.2013197343041
aF79.9241172033937
aF99.49740187861984
aF123.86415173535651
aF154.19827850214656
aF191.9611829565252
aF238.97216051964904
aF297.4960490650992
aF380.94483466735073
aF504.0312714046154
aF668.2144991805656
aF890.7405242737761
aF1232.6672881185123
aF1730.5629668712345
a.