(lp0
F0.0
aF1.0
aF1.2777896696937017
aF1.6327464399759382
aF2.0863065342304217
aF2.665860937254102
aF3.4064095664632585
aF4.352674954772553
aF5.561803092742869
aF7.106814536777314
aF9.081014199523082
aF11.603626134492414
aF14.826993605642256
aF18.945779261904246
aF24.20872102515841
aF30.93365364244414
aF39.526703070198046
aF50.50681286014938
aF64.53708372185184
aF82.46481889193984
aF105.37269369328274
aF134.64413946907536
aF172.0468904983824
aF219.83973938175652
aF280.90894797016415
aF358.942551840801
aF458.65308475567156
aF558.5908050101679
aF688.173031991781
aF847.0686396791015
aF1012.0161353610537
aF1043.5490101935293
aF1230.0271332423395
aF1728.4554468161614
a.