(lp0
F0.0
aF1.0
aF1.5453029645453393
aF2.387961252232613
aF3.6901236022944577
aF5.702358942164352
aF8.811872178228198
aF13.617012200210624
aF21.04240932123553
aF32.51689750528175
aF50.248458112728805
aF77.64909128543212
aF119.99137095762994
aF130.06586344934644
aF172.10693141003367
aF174.70284398604454
aF190.03730268379425
aF210.60759892377533
aF230.97825561587604
aF268.639465144837
aF329.129367225851
aF398.28911133611837
aF509.82679507944425
aF644.0734390527239
aF787.348306416804
aF953.8271881625625
aF1066.7203844021446
a.